Archive member included because of file (symbol)

C:/Users/bkirii/Desktop/c/base_test_14/TRAINAPP/lib/FMG_TPlus.a(VGE_FMG.o)
                              Obj/GNU_ARM_DEBUG_TETRA/Entry.o (FMG_Init)
C:/Users/bkirii/Desktop/c/base_test_14/TRAINAPP/lib/FMG_TPlus.a(md5.o)
                              C:/Users/bkirii/Desktop/c/base_test_14/TRAINAPP/lib/FMG_TPlus.a(VGE_FMG.o) (md5_init)
C:/Program Files/TeliumSDK/SDK11.16.8.02/SDKTPLUS/HW_TETRA/gnu_473/lib/Platform/ExtraGPRS.lib(gprs_GetInformation.o)
                              Obj/GNU_ARM_DEBUG_TETRA/ComGPRS.o (gprs_GetInformation)
C:/Program Files/TeliumSDK/SDK11.16.8.02/SDKTPLUS/HW_TETRA/gnu_473/lib/Platform/ExtraGPRS.lib(gprs_SetPinModeFree.o)
                              Obj/GNU_ARM_DEBUG_TETRA/ComGPRS.o (gprs_SetPinModeFree)
C:/Program Files/TeliumSDK/SDK11.16.8.02/SDKTPLUS/HW_TETRA/gnu_473/lib/Platform/ExtraGPRS.lib(gprs_SubmitPuk.o)
                              Obj/GNU_ARM_DEBUG_TETRA/ComGPRS.o (gprs_SubmitPuk)
C:/Program Files/TeliumSDK/SDK11.16.8.02/SDKTPLUS/HW_TETRA/gnu_473/lib/Platform/ExtraGPRS.lib(LIBGPRS_asm_link.o)
                              C:/Program Files/TeliumSDK/SDK11.16.8.02/SDKTPLUS/HW_TETRA/gnu_473/lib/Platform/ExtraGPRS.lib(gprs_GetInformation.o) (LIBGPRS_InitFuncAndBranch)
C:/Program Files/TeliumSDK/SDK11.16.8.02/SDKTPLUS/HW_TETRA/gnu_473/lib/Platform/ExtraGPRS.lib(LIBGPRS_link.o)
                              C:/Program Files/TeliumSDK/SDK11.16.8.02/SDKTPLUS/HW_TETRA/gnu_473/lib/Platform/ExtraGPRS.lib(LIBGPRS_asm_link.o) (LIBGPRS_GetProcAddress)
C:/Program Files/TeliumSDK/SDK11.16.8.02/SDKTPLUS/HW_TETRA/gnu_473/lib/Platform/liblinklayer.lib(LL_ClearReceiveBuffer.o)
                              Obj/GNU_ARM_DEBUG_TETRA/ComGPRS.o (LL_ClearReceiveBuffer)
C:/Program Files/TeliumSDK/SDK11.16.8.02/SDKTPLUS/HW_TETRA/gnu_473/lib/Platform/liblinklayer.lib(LL_ClearSendBuffer.o)
                              Obj/GNU_ARM_DEBUG_TETRA/ComGPRS.o (LL_ClearSendBuffer)
C:/Program Files/TeliumSDK/SDK11.16.8.02/SDKTPLUS/HW_TETRA/gnu_473/lib/Platform/liblinklayer.lib(LL_Configure.o)
                              Obj/GNU_ARM_DEBUG_TETRA/ComGPRS.o (LL_Configure)
C:/Program Files/TeliumSDK/SDK11.16.8.02/SDKTPLUS/HW_TETRA/gnu_473/lib/Platform/liblinklayer.lib(LL_Connect.o)
                              Obj/GNU_ARM_DEBUG_TETRA/ComGPRS.o (LL_Connect)
C:/Program Files/TeliumSDK/SDK11.16.8.02/SDKTPLUS/HW_TETRA/gnu_473/lib/Platform/liblinklayer.lib(LL_Disconnect.o)
                              Obj/GNU_ARM_DEBUG_TETRA/ComGPRS.o (LL_Disconnect)
C:/Program Files/TeliumSDK/SDK11.16.8.02/SDKTPLUS/HW_TETRA/gnu_473/lib/Platform/liblinklayer.lib(LL_GetLastError.o)
                              Obj/GNU_ARM_DEBUG_TETRA/ComGPRS.o (LL_GetLastError)
C:/Program Files/TeliumSDK/SDK11.16.8.02/SDKTPLUS/HW_TETRA/gnu_473/lib/Platform/liblinklayer.lib(LL_GPRS_Connect.o)
                              Obj/GNU_ARM_DEBUG_TETRA/ComGPRS.o (LL_GPRS_Connect)
C:/Program Files/TeliumSDK/SDK11.16.8.02/SDKTPLUS/HW_TETRA/gnu_473/lib/Platform/liblinklayer.lib(LL_GPRS_Start.o)
                              Obj/GNU_ARM_DEBUG_TETRA/ComGPRS.o (LL_GPRS_Start)
C:/Program Files/TeliumSDK/SDK11.16.8.02/SDKTPLUS/HW_TETRA/gnu_473/lib/Platform/liblinklayer.lib(LL_GSM_Start.o)
                              Obj/GNU_ARM_DEBUG_TETRA/ComGPRS.o (LL_GSM_Start)
C:/Program Files/TeliumSDK/SDK11.16.8.02/SDKTPLUS/HW_TETRA/gnu_473/lib/Platform/liblinklayer.lib(LL_Network_GetStatus.o)
                              Obj/GNU_ARM_DEBUG_TETRA/ComGPRS.o (LL_Network_GetStatus)
C:/Program Files/TeliumSDK/SDK11.16.8.02/SDKTPLUS/HW_TETRA/gnu_473/lib/Platform/liblinklayer.lib(LL_Receive.o)
                              Obj/GNU_ARM_DEBUG_TETRA/ComGPRS.o (LL_Receive)
C:/Program Files/TeliumSDK/SDK11.16.8.02/SDKTPLUS/HW_TETRA/gnu_473/lib/Platform/liblinklayer.lib(LL_Send.o)
                              Obj/GNU_ARM_DEBUG_TETRA/ComGPRS.o (LL_Send)
C:/Program Files/TeliumSDK/SDK11.16.8.02/SDKTPLUS/HW_TETRA/gnu_473/lib/Platform/liblinklayer.lib(LINKLAYER_asm_link.o)
                              C:/Program Files/TeliumSDK/SDK11.16.8.02/SDKTPLUS/HW_TETRA/gnu_473/lib/Platform/liblinklayer.lib(LL_ClearReceiveBuffer.o) (LINKLAYER_InitFuncAndBranch)
C:/Program Files/TeliumSDK/SDK11.16.8.02/SDKTPLUS/HW_TETRA/gnu_473/lib/Platform/liblinklayer.lib(LINKLAYER_link.o)
                              C:/Program Files/TeliumSDK/SDK11.16.8.02/SDKTPLUS/HW_TETRA/gnu_473/lib/Platform/liblinklayer.lib(LINKLAYER_asm_link.o) (LINKLAYER_GetProcAddress)
C:/Program Files/TeliumSDK/SDK11.16.8.02/SDKTPLUS/HW_TETRA/gnu_473/lib/Platform/TlvTree.lib(TlvTree_AddChild.o)
                              Obj/GNU_ARM_DEBUG_TETRA/ComGPRS.o (TlvTree_AddChild)
C:/Program Files/TeliumSDK/SDK11.16.8.02/SDKTPLUS/HW_TETRA/gnu_473/lib/Platform/TlvTree.lib(TlvTree_AddChildInteger.o)
                              Obj/GNU_ARM_DEBUG_TETRA/ComGPRS.o (TlvTree_AddChildInteger)
C:/Program Files/TeliumSDK/SDK11.16.8.02/SDKTPLUS/HW_TETRA/gnu_473/lib/Platform/TlvTree.lib(TlvTree_AddChildString.o)
                              Obj/GNU_ARM_DEBUG_TETRA/ComGPRS.o (TlvTree_AddChildString)
C:/Program Files/TeliumSDK/SDK11.16.8.02/SDKTPLUS/HW_TETRA/gnu_473/lib/Platform/TlvTree.lib(TlvTree_New.o)
                              Obj/GNU_ARM_DEBUG_TETRA/ComGPRS.o (TlvTree_New)
C:/Program Files/TeliumSDK/SDK11.16.8.02/SDKTPLUS/HW_TETRA/gnu_473/lib/Platform/TlvTree.lib(TlvTree_Release.o)
                              Obj/GNU_ARM_DEBUG_TETRA/ComGPRS.o (TlvTree_Release)
C:/Program Files/TeliumSDK/SDK11.16.8.02/SDKTPLUS/HW_TETRA/gnu_473/lib/Platform/TlvTree.lib(TLV_TREE_DLL_asm_link.o)
                              C:/Program Files/TeliumSDK/SDK11.16.8.02/SDKTPLUS/HW_TETRA/gnu_473/lib/Platform/TlvTree.lib(TlvTree_AddChild.o) (TLV_TREE_DLL_InitFuncAndBranch)
C:/Program Files/TeliumSDK/SDK11.16.8.02/SDKTPLUS/HW_TETRA/gnu_473/lib/Platform/TlvTree.lib(TLV_TREE_DLL_link.o)
                              C:/Program Files/TeliumSDK/SDK11.16.8.02/SDKTPLUS/HW_TETRA/gnu_473/lib/Platform/TlvTree.lib(TLV_TREE_DLL_asm_link.o) (TLV_TREE_DLL_GetProcAddress)
C:/Program Files/TeliumSDK/SDK11.16.8.02/SDKTPLUS/HW_TETRA/gnu_473/lib/Platform/libwrapper_tplus.lib(DLLExist.o)
                              Obj/GNU_ARM_DEBUG_TETRA/schemes.o (DLLExist)
C:/Program Files/TeliumSDK/SDK11.16.8.02/SDKTPLUS/HW_TETRA/gnu_473/lib/Platform/libwrapper_tplus.lib(d_tolong.o)
                              Obj/GNU_ARM_DEBUG_TETRA/globals.o (d_tolong)
C:/Program Files/TeliumSDK/SDK11.16.8.02/SDKTPLUS/HW_TETRA/gnu_473/lib/Platform/libwrapper_tplus.lib(stdcam0.o)
                              Obj/GNU_ARM_DEBUG_TETRA/globals.o (stdcam0)
C:/Program Files/TeliumSDK/SDK11.16.8.02/SDKTPLUS/HW_TETRA/gnu_473/lib/Platform/libwrapper_tplus.lib(extenstp1.o)
                              C:/Program Files/TeliumSDK/SDK11.16.8.02/SDKTPLUS/HW_TETRA/gnu_473/lib/Platform/libwrapper_tplus.lib(DLLExist.o) (extenslib_open)
C:/Program Files/TeliumSDK/SDK11.16.8.02/SDKTPLUS/HW_TETRA/gnu_473/lib/Platform/libwrapper_tplus.lib(Telium_Fclose.o)
                              Obj/GNU_ARM_DEBUG_TETRA/Entry.o (Telium_Fclose)
C:/Program Files/TeliumSDK/SDK11.16.8.02/SDKTPLUS/HW_TETRA/gnu_473/lib/Platform/libwrapper_tplus.lib(Telium_Fopen.o)
                              Obj/GNU_ARM_DEBUG_TETRA/Entry.o (Telium_Fopen)
C:/Program Files/TeliumSDK/SDK11.16.8.02/SDKTPLUS/HW_TETRA/gnu_473/lib/Platform/libwrapper_tplus.lib(Telium_Getc.o)
                              Obj/GNU_ARM_DEBUG_TETRA/globals.o (Telium_Getc)
C:/Program Files/TeliumSDK/SDK11.16.8.02/SDKTPLUS/HW_TETRA/gnu_473/lib/Platform/libwrapper_tplus.lib(Telium_Is_iso1.o)
                              Obj/GNU_ARM_DEBUG_TETRA/magnetic.o (Telium_Is_iso1)
C:/Program Files/TeliumSDK/SDK11.16.8.02/SDKTPLUS/HW_TETRA/gnu_473/lib/Platform/libwrapper_tplus.lib(Telium_Is_iso2.o)
                              Obj/GNU_ARM_DEBUG_TETRA/magnetic.o (Telium_Is_iso2)
C:/Program Files/TeliumSDK/SDK11.16.8.02/SDKTPLUS/HW_TETRA/gnu_473/lib/Platform/libwrapper_tplus.lib(Telium_Is_iso3.o)
                              Obj/GNU_ARM_DEBUG_TETRA/magnetic.o (Telium_Is_iso3)
C:/Program Files/TeliumSDK/SDK11.16.8.02/SDKTPLUS/HW_TETRA/gnu_473/lib/Platform/libwrapper_tplus.lib(Telium_Reset_buf.o)
                              Obj/GNU_ARM_DEBUG_TETRA/Menu.o (Telium_Reset_buf)
C:/Program Files/TeliumSDK/SDK11.16.8.02/SDKTPLUS/HW_TETRA/gnu_473/lib/Platform/libwrapper_tplus.lib(Telium_Status.o)
                              Obj/GNU_ARM_DEBUG_TETRA/Utility.o (Telium_Status)
C:/Program Files/TeliumSDK/SDK11.16.8.02/SDKTPLUS/HW_TETRA/gnu_473/lib/Platform/libwrapper_tplus.lib(Telium_Stdin.o)
                              Obj/GNU_ARM_DEBUG_TETRA/globals.o (Telium_Stdin)
C:/Program Files/TeliumSDK/SDK11.16.8.02/SDKTPLUS/HW_TETRA/gnu_473/lib/Platform/libwrapper_tplus.lib(Telium_Stdout.o)
                              Obj/GNU_ARM_DEBUG_TETRA/Entry.o (Telium_Stdout)
C:/Program Files/TeliumSDK/SDK11.16.8.02/SDKTPLUS/HW_TETRA/gnu_473/lib/Platform/libwrapper_tplus.lib(Telium_Stdperif.o)
                              Obj/GNU_ARM_DEBUG_TETRA/Menu.o (Telium_Stdperif)
C:/Program Files/TeliumSDK/SDK11.16.8.02/SDKTPLUS/HW_TETRA/gnu_473/lib/Platform/libwrapper_tplus.lib(Telium_Ttestall.o)
                              Obj/GNU_ARM_DEBUG_TETRA/Entry.o (Telium_Ttestall)
C:/Program Files/TeliumSDK/SDK11.16.8.02/SDKTPLUS/HW_TETRA/gnu_473/lib/Platform/libwrapper_tplus.lib(buzzer.o)
                              Obj/GNU_ARM_DEBUG_TETRA/ComGPRS.o (buzzer)
C:/Program Files/TeliumSDK/SDK11.16.8.02/SDKTPLUS/HW_TETRA/gnu_473/lib/Platform/libwrapper_tplus.lib(DrawExtendedString.o)
                              Obj/GNU_ARM_DEBUG_TETRA/schemes.o (DrawExtendedString)
C:/Program Files/TeliumSDK/SDK11.16.8.02/SDKTPLUS/HW_TETRA/gnu_473/lib/Platform/libwrapper_tplus.lib(InitContexteGraphique.o)
                              Obj/GNU_ARM_DEBUG_TETRA/schemes.o (InitContexteGraphique)
C:/Program Files/TeliumSDK/SDK11.16.8.02/SDKTPLUS/HW_TETRA/gnu_473/lib/Platform/libwrapper_tplus.lib(PaintGraphics.o)
                              Obj/GNU_ARM_DEBUG_TETRA/schemes.o (PaintGraphics)
C:/Program Files/TeliumSDK/SDK11.16.8.02/SDKTPLUS/HW_TETRA/gnu_473/lib/Platform/libwrapper_tplus.lib(_DrawExtendedString.o)
                              Obj/GNU_ARM_DEBUG_TETRA/schemes.o (_DrawExtendedString)
C:/Program Files/TeliumSDK/SDK11.16.8.02/SDKTPLUS/HW_TETRA/gnu_473/lib/Platform/libwrapper_tplus.lib(libgrtp1.o)
                              C:/Program Files/TeliumSDK/SDK11.16.8.02/SDKTPLUS/HW_TETRA/gnu_473/lib/Platform/libwrapper_tplus.lib(DrawExtendedString.o) (libgrlib_open)
C:/Program Files/TeliumSDK/SDK11.16.8.02/SDKTPLUS/HW_TETRA/gnu_473/lib/Platform/libwrapper_tplus.lib(PSQ_Est_pinpad.o)
                              Obj/GNU_ARM_DEBUG_TETRA/schemes.o (PSQ_Est_pinpad)
C:/Program Files/TeliumSDK/SDK11.16.8.02/SDKTPLUS/HW_TETRA/gnu_473/lib/Platform/libwrapper_tplus.lib(PSQ_donner_type_pinpad.o)
                              Obj/GNU_ARM_DEBUG_TETRA/schemes.o (PSQ_donner_type_pinpad)
C:/Program Files/TeliumSDK/SDK11.16.8.02/SDKTPLUS/HW_TETRA/gnu_473/lib/Platform/libwrapper_tplus.lib(paramtp1.o)
                              C:/Program Files/TeliumSDK/SDK11.16.8.02/SDKTPLUS/HW_TETRA/gnu_473/lib/Platform/libwrapper_tplus.lib(PSQ_Est_pinpad.o) (paramlib_open)
C:/Program Files/TeliumSDK/SDK11.16.8.02/SDKTPLUS/HW_TETRA/gnu_473/lib/Platform/libwrapper_tplus.lib(IsPPSConnected.o)
                              Obj/GNU_ARM_DEBUG_TETRA/schemes.o (IsPPSConnected)
C:/Program Files/TeliumSDK/SDK11.16.8.02/SDKTPLUS/HW_TETRA/gnu_473/lib/Platform/libwrapper_tplus.lib(PPS_SendTerminalRefRequestCommand.o)
                              Obj/GNU_ARM_DEBUG_TETRA/schemes.o (PPS_SendTerminalRefRequestCommand)
C:/Program Files/TeliumSDK/SDK11.16.8.02/SDKTPLUS/HW_TETRA/gnu_473/lib/Platform/libwrapper_tplus.lib(PPS_firstline.o)
                              Obj/GNU_ARM_DEBUG_TETRA/schemes.o (PPS_firstline)
C:/Program Files/TeliumSDK/SDK11.16.8.02/SDKTPLUS/HW_TETRA/gnu_473/lib/Platform/libwrapper_tplus.lib(PPS_newline.o)
                              Obj/GNU_ARM_DEBUG_TETRA/schemes.o (PPS_newline)
C:/Program Files/TeliumSDK/SDK11.16.8.02/SDKTPLUS/HW_TETRA/gnu_473/lib/Platform/libwrapper_tplus.lib(pinpadtp1.o)
                              C:/Program Files/TeliumSDK/SDK11.16.8.02/SDKTPLUS/HW_TETRA/gnu_473/lib/Platform/libwrapper_tplus.lib(IsPPSConnected.o) (pinpadlib_open)
C:/Program Files/TeliumSDK/SDK11.16.8.02/SDKTPLUS/HW_TETRA/gnu_473/lib/Platform/libwrapper_tplus.lib(PPS_Display.o)
                              Obj/GNU_ARM_DEBUG_TETRA/schemes.o (PPS_Display)
C:/Program Files/TeliumSDK/SDK11.16.8.02/SDKTPLUS/HW_TETRA/gnu_473/lib/Platform/libwrapper_tplus.lib(Telium_Read_date.o)
                              Obj/GNU_ARM_DEBUG_TETRA/Entry.o (Telium_Read_date)
C:/Program Files/TeliumSDK/SDK11.16.8.02/SDKTPLUS/HW_TETRA/gnu_473/lib/Platform/libwrapper_tplus.lib(BoosterType.o)
                              Obj/GNU_ARM_DEBUG_TETRA/schemes.o (BoosterType)
C:/Program Files/TeliumSDK/SDK11.16.8.02/SDKTPLUS/HW_TETRA/gnu_473/lib/Platform/libwrapper_tplus.lib(IsColorDisplay.o)
                              Obj/GNU_ARM_DEBUG_TETRA/ComGPRS.o (IsColorDisplay)
C:/Program Files/TeliumSDK/SDK11.16.8.02/SDKTPLUS/HW_TETRA/gnu_473/lib/Platform/libwrapper_tplus.lib(IsISO1.o)
                              Obj/GNU_ARM_DEBUG_TETRA/magnetic.o (IsISO1)
C:/Program Files/TeliumSDK/SDK11.16.8.02/SDKTPLUS/HW_TETRA/gnu_473/lib/Platform/libwrapper_tplus.lib(IsISO2.o)
                              Obj/GNU_ARM_DEBUG_TETRA/magnetic.o (IsISO2)
C:/Program Files/TeliumSDK/SDK11.16.8.02/SDKTPLUS/HW_TETRA/gnu_473/lib/Platform/libwrapper_tplus.lib(IsISO3.o)
                              Obj/GNU_ARM_DEBUG_TETRA/magnetic.o (IsISO3)
C:/Program Files/TeliumSDK/SDK11.16.8.02/SDKTPLUS/HW_TETRA/gnu_473/lib/Platform/libwrapper_tplus.lib(IsPrinter.o)
                              Obj/GNU_ARM_DEBUG_TETRA/Goal.o (IsPrinter)
C:/Program Files/TeliumSDK/SDK11.16.8.02/SDKTPLUS/HW_TETRA/gnu_473/lib/Platform/libwrapper_tplus.lib(Telium_ServiceRegister.o)
                              Obj/GNU_ARM_DEBUG_TETRA/Entry.o (Telium_ServiceRegister)
C:/Program Files/TeliumSDK/SDK11.16.8.02/SDKTPLUS/HW_TETRA/gnu_473/lib/Platform/libwrapper_tplus.lib(Telium_Pprintf.o)
                              Obj/GNU_ARM_DEBUG_TETRA/Entry.o (Telium_Pprintf)
C:/Program Files/TeliumSDK/SDK11.16.8.02/SDKTPLUS/HW_TETRA/gnu_473/lib/Platform/libwrapper_tplus.lib(Telium_Printf.o)
                              Obj/GNU_ARM_DEBUG_TETRA/Entry.o (Telium_Printf)
C:/Program Files/TeliumSDK/SDK11.16.8.02/SDKTPLUS/HW_TETRA/gnu_473/lib/Platform/libwrapper_tplus.lib(Telium_Stdprt.o)
                              C:/Program Files/TeliumSDK/SDK11.16.8.02/SDKTPLUS/HW_TETRA/gnu_473/lib/Platform/libwrapper_tplus.lib(Telium_Pprintf.o) (Telium_Stdprt)
C:/Program Files/TeliumSDK/SDK11.16.8.02/SDKTPLUS/HW_TETRA/gnu_473/lib/Platform/libwrapper_tplus.lib(Telium_Sprintf.o)
                              Obj/GNU_ARM_DEBUG_TETRA/Entry.o (Telium_Sprintf)
C:/Program Files/TeliumSDK/SDK11.16.8.02/SDKTPLUS/HW_TETRA/gnu_473/lib/Platform/libwrapper_tplus.lib(ApplicationGetCurrent.o)
                              Obj/GNU_ARM_DEBUG_TETRA/Main.o (ApplicationGetCurrent)
C:/Program Files/TeliumSDK/SDK11.16.8.02/SDKTPLUS/HW_TETRA/gnu_473/lib/Platform/libwrapper_tplus.lib(FS_close.o)
                              Obj/GNU_ARM_DEBUG_TETRA/Entry.o (FS_close)
C:/Program Files/TeliumSDK/SDK11.16.8.02/SDKTPLUS/HW_TETRA/gnu_473/lib/Platform/libwrapper_tplus.lib(FS_dskcreate.o)
                              Obj/GNU_ARM_DEBUG_TETRA/Entry.o (FS_dskcreate)
C:/Program Files/TeliumSDK/SDK11.16.8.02/SDKTPLUS/HW_TETRA/gnu_473/lib/Platform/libwrapper_tplus.lib(FS_exist.o)
                              C:/Users/bkirii/Desktop/c/base_test_14/TRAINAPP/lib/FMG_TPlus.a(VGE_FMG.o) (FS_exist)
C:/Program Files/TeliumSDK/SDK11.16.8.02/SDKTPLUS/HW_TETRA/gnu_473/lib/Platform/libwrapper_tplus.lib(FS_length.o)
                              Obj/GNU_ARM_DEBUG_TETRA/Entry.o (FS_length)
C:/Program Files/TeliumSDK/SDK11.16.8.02/SDKTPLUS/HW_TETRA/gnu_473/lib/Platform/libwrapper_tplus.lib(FS_mount.o)
                              Obj/GNU_ARM_DEBUG_TETRA/Entry.o (FS_mount)
C:/Program Files/TeliumSDK/SDK11.16.8.02/SDKTPLUS/HW_TETRA/gnu_473/lib/Platform/libwrapper_tplus.lib(FS_open.o)
                              Obj/GNU_ARM_DEBUG_TETRA/Entry.o (FS_open)
C:/Program Files/TeliumSDK/SDK11.16.8.02/SDKTPLUS/HW_TETRA/gnu_473/lib/Platform/libwrapper_tplus.lib(FS_read.o)
                              Obj/GNU_ARM_DEBUG_TETRA/Entry.o (FS_read)
C:/Program Files/TeliumSDK/SDK11.16.8.02/SDKTPLUS/HW_TETRA/gnu_473/lib/Platform/libwrapper_tplus.lib(FS_rename.o)
                              C:/Users/bkirii/Desktop/c/base_test_14/TRAINAPP/lib/FMG_TPlus.a(VGE_FMG.o) (FS_rename)
C:/Program Files/TeliumSDK/SDK11.16.8.02/SDKTPLUS/HW_TETRA/gnu_473/lib/Platform/libwrapper_tplus.lib(FS_seek.o)
                              C:/Users/bkirii/Desktop/c/base_test_14/TRAINAPP/lib/FMG_TPlus.a(VGE_FMG.o) (FS_seek)
C:/Program Files/TeliumSDK/SDK11.16.8.02/SDKTPLUS/HW_TETRA/gnu_473/lib/Platform/libwrapper_tplus.lib(FS_unlink.o)
                              C:/Users/bkirii/Desktop/c/base_test_14/TRAINAPP/lib/FMG_TPlus.a(VGE_FMG.o) (FS_unlink)
C:/Program Files/TeliumSDK/SDK11.16.8.02/SDKTPLUS/HW_TETRA/gnu_473/lib/Platform/libwrapper_tplus.lib(FS_unmount.o)
                              Obj/GNU_ARM_DEBUG_TETRA/Entry.o (FS_unmount)
C:/Program Files/TeliumSDK/SDK11.16.8.02/SDKTPLUS/HW_TETRA/gnu_473/lib/Platform/libwrapper_tplus.lib(FS_write.o)
                              C:/Users/bkirii/Desktop/c/base_test_14/TRAINAPP/lib/FMG_TPlus.a(VGE_FMG.o) (FS_write)
C:/Program Files/TeliumSDK/SDK11.16.8.02/SDKTPLUS/HW_TETRA/gnu_473/lib/Platform/libwrapper_tplus.lib(ObjectGetDescriptor.o)
                              Obj/GNU_ARM_DEBUG_TETRA/Utility.o (ObjectGetDescriptor)
C:/Program Files/TeliumSDK/SDK11.16.8.02/SDKTPLUS/HW_TETRA/gnu_473/lib/Platform/libwrapper_tplus.lib(ObjectGetInfo.o)
                              Obj/GNU_ARM_DEBUG_TETRA/Entry.o (ObjectGetInfo)
C:/Program Files/TeliumSDK/SDK11.16.8.02/SDKTPLUS/HW_TETRA/gnu_473/lib/Platform/libwrapper_tplus.lib(PageAlloc.o)
                              C:/Users/bkirii/Desktop/c/base_test_14/TRAINAPP/lib/FMG_TPlus.a(VGE_FMG.o) (PageAlloc)
C:/Program Files/TeliumSDK/SDK11.16.8.02/SDKTPLUS/HW_TETRA/gnu_473/lib/Platform/libwrapper_tplus.lib(PageFree.o)
                              C:/Users/bkirii/Desktop/c/base_test_14/TRAINAPP/lib/FMG_TPlus.a(VGE_FMG.o) (PageFree)
C:/Program Files/TeliumSDK/SDK11.16.8.02/SDKTPLUS/HW_TETRA/gnu_473/lib/Platform/libwrapper_tplus.lib(first_init.o)
                              Obj/GNU_ARM_DEBUG_TETRA/Entry.o (first_init)
C:/Program Files/TeliumSDK/SDK11.16.8.02/SDKTPLUS/HW_TETRA/gnu_473/lib/Platform/libwrapper_tplus.lib(raz_init.o)
                              Obj/GNU_ARM_DEBUG_TETRA/Entry.o (raz_init)
C:/Program Files/TeliumSDK/SDK11.16.8.02/SDKTPLUS/HW_TETRA/gnu_473/lib/Platform/libwrapper_tplus.lib(DisplayFooter.o)
                              Obj/GNU_ARM_DEBUG_TETRA/Menu.o (DisplayFooter)
C:/Program Files/TeliumSDK/SDK11.16.8.02/SDKTPLUS/HW_TETRA/gnu_473/lib/Platform/libwrapper_tplus.lib(DisplayHeader.o)
                              Obj/GNU_ARM_DEBUG_TETRA/Menu.o (DisplayHeader)
C:/Program Files/TeliumSDK/SDK11.16.8.02/SDKTPLUS/HW_TETRA/gnu_473/lib/Platform/libwrapper_tplus.lib(DisplayLeds.o)
                              Obj/GNU_ARM_DEBUG_TETRA/Menu.o (DisplayLeds)
C:/Program Files/TeliumSDK/SDK11.16.8.02/SDKTPLUS/HW_TETRA/gnu_473/lib/Platform/libwrapper_tplus.lib(IsFooter.o)
                              Obj/GNU_ARM_DEBUG_TETRA/ComGPRS.o (IsFooter)
C:/Program Files/TeliumSDK/SDK11.16.8.02/SDKTPLUS/HW_TETRA/gnu_473/lib/Platform/libwrapper_tplus.lib(IsHeader.o)
                              Obj/GNU_ARM_DEBUG_TETRA/ComGPRS.o (IsHeader)
C:/Program Files/TeliumSDK/SDK11.16.8.02/SDKTPLUS/HW_TETRA/gnu_473/lib/Platform/libwrapper_tplus.lib(Telium_Exit.o)
                              C:/Program Files/TeliumSDK/SDK11.16.8.02/SDKTPLUS/HW_TETRA/gnu_473/lib/Platform/libwrapper_tplus.lib(DLLExist.o) (Telium_Exit)
C:/Program Files/TeliumSDK/SDK11.16.8.02/SDKTPLUS/HW_TETRA/gnu_473/lib/Platform/libwrapper_tplus.lib(upload_diagnostic_txt.o)
                              C:/Users/bkirii/Desktop/c/base_test_14/TRAINAPP/lib/FMG_TPlus.a(VGE_FMG.o) (upload_diagnostic_txt)
C:/Program Files/TeliumSDK/SDK11.16.8.02/SDKTPLUS/HW_TETRA/gnu_473/lib/Platform/libwrapper_tplus.lib(emulationtp1.o)
                              C:/Program Files/TeliumSDK/SDK11.16.8.02/SDKTPLUS/HW_TETRA/gnu_473/lib/Platform/libwrapper_tplus.lib(DisplayFooter.o) (emulationlib_open)
C:/Program Files/TeliumSDK/SDK11.16.8.02/SDKTPLUS/HW_TETRA/gnu_473/lib/Platform/libwrapper_tplus.lib(TM_InitContexteGraphique.o)
                              C:/Program Files/TeliumSDK/SDK11.16.8.02/SDKTPLUS/HW_TETRA/gnu_473/lib/Platform/libwrapper_tplus.lib(InitContexteGraphique.o) (TM_InitContexteGraphique)
C:/Program Files/TeliumSDK/SDK11.16.8.02/SDKTPLUS/HW_TETRA/gnu_473/lib/Platform/libwrapper_tplus.lib(extensttrois9.o)
                              C:/Program Files/TeliumSDK/SDK11.16.8.02/SDKTPLUS/HW_TETRA/gnu_473/lib/Platform/libwrapper_tplus.lib(Telium_Pprintf.o) (Telium_Vfprintf)
C:/Program Files/TeliumSDK/SDK11.16.8.02/SDKTPLUS/HW_TETRA/gnu_473/lib/Platform/libwrapper_tplus.lib(toolstp1.o)
                              C:/Program Files/TeliumSDK/SDK11.16.8.02/SDKTPLUS/HW_TETRA/gnu_473/lib/Platform/libwrapper_tplus.lib(Telium_Read_date.o) (toolslib_open)
C:/Program Files/TeliumSDK/SDK11.16.8.02/SDKTPLUS/HW_TETRA/gnu_473/lib/Platform/libwrapper_tplus.lib(wrappertp1.o)
                              C:/Program Files/TeliumSDK/SDK11.16.8.02/SDKTPLUS/HW_TETRA/gnu_473/lib/Platform/libwrapper_tplus.lib(ApplicationGetCurrent.o) (wrapperlib_open)
C:/Program Files/TeliumSDK/SDK11.16.8.02/SDKTPLUS/HW_TETRA/gnu_473/lib/Platform\libSec.a(SEC_ComputeMAC.o)
                              Obj/GNU_ARM_DEBUG_TETRA/schemes.o (SEC_ComputeMAC)
C:/Program Files/TeliumSDK/SDK11.16.8.02/SDKTPLUS/HW_TETRA/gnu_473/lib/Platform\libSec.a(SEC_GetConfig.o)
                              Obj/GNU_ARM_DEBUG_TETRA/schemes.o (SEC_GetConfig)
C:/Program Files/TeliumSDK/SDK11.16.8.02/SDKTPLUS/HW_TETRA/gnu_473/lib/Platform\libSec.a(SEC_Iso9564.o)
                              Obj/GNU_ARM_DEBUG_TETRA/schemes.o (SEC_Iso9564)
C:/Program Files/TeliumSDK/SDK11.16.8.02/SDKTPLUS/HW_TETRA/gnu_473/lib/Platform\libSec.a(SEC_isSecretArea.o)
                              Obj/GNU_ARM_DEBUG_TETRA/schemes.o (SEC_isSecretArea)
C:/Program Files/TeliumSDK/SDK11.16.8.02/SDKTPLUS/HW_TETRA/gnu_473/lib/Platform\libSec.a(SEC_KeyVerify.o)
                              Obj/GNU_ARM_DEBUG_TETRA/schemes.o (SEC_KeyVerify)
C:/Program Files/TeliumSDK/SDK11.16.8.02/SDKTPLUS/HW_TETRA/gnu_473/lib/Platform\libSec.a(SEC_listSecureId.o)
                              Obj/GNU_ARM_DEBUG_TETRA/schemes.o (SEC_listSecureId)
C:/Program Files/TeliumSDK/SDK11.16.8.02/SDKTPLUS/HW_TETRA/gnu_473/lib/Platform\libSec.a(SEC_listTLVKeys.o)
                              Obj/GNU_ARM_DEBUG_TETRA/schemes.o (SEC_listTLVKeys)
C:/Program Files/TeliumSDK/SDK11.16.8.02/SDKTPLUS/HW_TETRA/gnu_473/lib/Platform\libSec.a(SEC_LoadKey.o)
                              Obj/GNU_ARM_DEBUG_TETRA/schemes.o (SEC_LoadKey)
C:/Program Files/TeliumSDK/SDK11.16.8.02/SDKTPLUS/HW_TETRA/gnu_473/lib/Platform\libSec.a(SEC_PinEntry.o)
                              Obj/GNU_ARM_DEBUG_TETRA/schemes.o (SEC_PinEntry)
C:/Program Files/TeliumSDK/SDK11.16.8.02/SDKTPLUS/HW_TETRA/gnu_473/lib/Platform\libSec.a(SEC_PinEntryInit.o)
                              Obj/GNU_ARM_DEBUG_TETRA/schemes.o (SEC_PinEntryInit)
C:/Program Files/TeliumSDK/SDK11.16.8.02/SDKTPLUS/HW_TETRA/gnu_473/lib/Platform\libSec.a(SEC_SetConfig.o)
                              Obj/GNU_ARM_DEBUG_TETRA/schemes.o (SEC_SetConfig)
C:/Program Files/TeliumSDK/SDK11.16.8.02/SDKTPLUS/HW_TETRA/gnu_473/lib/Platform\libSec.a(Telium3.o)
                              Obj/GNU_ARM_DEBUG_TETRA/Entry.o (SEClib_Open)
C:/Program Files/TeliumSDK/SDK11.16.8.02/SDKTPLUS/HW_TETRA/gnu_473/lib/Platform\libSec.a(LIBSECV2_asm_link.o)
                              C:/Program Files/TeliumSDK/SDK11.16.8.02/SDKTPLUS/HW_TETRA/gnu_473/lib/Platform\libSec.a(SEC_ComputeMAC.o) (LIBSECV2_InitFuncAndBranch)
C:/Program Files/TeliumSDK/SDK11.16.8.02/SDKTPLUS/HW_TETRA/gnu_473/lib/Platform\libSec.a(LIBSECV2_link.o)
                              C:/Program Files/TeliumSDK/SDK11.16.8.02/SDKTPLUS/HW_TETRA/gnu_473/lib/Platform\libSec.a(LIBSECV2_asm_link.o) (LIBSECV2_GetProcAddress)
C:/Program Files/TeliumSDK/SDK11.16.8.02/SDKTPLUS/HW_TETRA/gnu_473/lib/Platform\libGRAPHICLIB.a(GL_Button_Create.o)
                              Obj/GNU_ARM_DEBUG_TETRA/Goal.o (GL_Button_Create)
C:/Program Files/TeliumSDK/SDK11.16.8.02/SDKTPLUS/HW_TETRA/gnu_473/lib/Platform\libGRAPHICLIB.a(GL_Dialog_Amount.o)
                              Obj/GNU_ARM_DEBUG_TETRA/amount.o (GL_Dialog_Amount)
C:/Program Files/TeliumSDK/SDK11.16.8.02/SDKTPLUS/HW_TETRA/gnu_473/lib/Platform\libGRAPHICLIB.a(GL_Dialog_Choice.o)
                              Obj/GNU_ARM_DEBUG_TETRA/ComGPRS.o (GL_Dialog_Choice)
C:/Program Files/TeliumSDK/SDK11.16.8.02/SDKTPLUS/HW_TETRA/gnu_473/lib/Platform\libGRAPHICLIB.a(GL_Dialog_Menu.o)
                              Obj/GNU_ARM_DEBUG_TETRA/Menu.o (GL_Dialog_Menu)
C:/Program Files/TeliumSDK/SDK11.16.8.02/SDKTPLUS/HW_TETRA/gnu_473/lib/Platform\libGRAPHICLIB.a(GL_Dialog_Message.o)
                              Obj/GNU_ARM_DEBUG_TETRA/Entry.o (GL_Dialog_Message)
C:/Program Files/TeliumSDK/SDK11.16.8.02/SDKTPLUS/HW_TETRA/gnu_473/lib/Platform\libGRAPHICLIB.a(GL_Dialog_Password.o)
                              Obj/GNU_ARM_DEBUG_TETRA/ComGPRS.o (GL_Dialog_Password)
C:/Program Files/TeliumSDK/SDK11.16.8.02/SDKTPLUS/HW_TETRA/gnu_473/lib/Platform\libGRAPHICLIB.a(GL_Dialog_Progress.o)
                              Obj/GNU_ARM_DEBUG_TETRA/Entry.o (GL_Dialog_Progress)
C:/Program Files/TeliumSDK/SDK11.16.8.02/SDKTPLUS/HW_TETRA/gnu_473/lib/Platform\libGRAPHICLIB.a(GL_Dialog_Text.o)
                              Obj/GNU_ARM_DEBUG_TETRA/ComGPRS.o (GL_Dialog_Text)
C:/Program Files/TeliumSDK/SDK11.16.8.02/SDKTPLUS/HW_TETRA/gnu_473/lib/Platform\libGRAPHICLIB.a(GL_Dialog_VirtualKeyboard.o)
                              Obj/GNU_ARM_DEBUG_TETRA/ComGPRS.o (GL_Dialog_VirtualKeyboard)
C:/Program Files/TeliumSDK/SDK11.16.8.02/SDKTPLUS/HW_TETRA/gnu_473/lib/Platform\libGRAPHICLIB.a(GL_Document_Create.o)
                              Obj/GNU_ARM_DEBUG_TETRA/Goal.o (GL_Document_Create)
C:/Program Files/TeliumSDK/SDK11.16.8.02/SDKTPLUS/HW_TETRA/gnu_473/lib/Platform\libGRAPHICLIB.a(GL_Document_Print.o)
                              Obj/GNU_ARM_DEBUG_TETRA/Goal.o (GL_Document_Print)
C:/Program Files/TeliumSDK/SDK11.16.8.02/SDKTPLUS/HW_TETRA/gnu_473/lib/Platform\libGRAPHICLIB.a(GL_Drawing_Clear.o)
                              Obj/GNU_ARM_DEBUG_TETRA/Goal.o (GL_Drawing_Clear)
C:/Program Files/TeliumSDK/SDK11.16.8.02/SDKTPLUS/HW_TETRA/gnu_473/lib/Platform\libGRAPHICLIB.a(GL_Drawing_Create.o)
                              Obj/GNU_ARM_DEBUG_TETRA/Goal.o (GL_Drawing_Create)
C:/Program Files/TeliumSDK/SDK11.16.8.02/SDKTPLUS/HW_TETRA/gnu_473/lib/Platform\libGRAPHICLIB.a(GL_Drawing_DrawEllipse.o)
                              Obj/GNU_ARM_DEBUG_TETRA/Goal.o (GL_Drawing_DrawEllipse)
C:/Program Files/TeliumSDK/SDK11.16.8.02/SDKTPLUS/HW_TETRA/gnu_473/lib/Platform\libGRAPHICLIB.a(GL_Drawing_DrawLine.o)
                              Obj/GNU_ARM_DEBUG_TETRA/Goal.o (GL_Drawing_DrawLine)
C:/Program Files/TeliumSDK/SDK11.16.8.02/SDKTPLUS/HW_TETRA/gnu_473/lib/Platform\libGRAPHICLIB.a(GL_Drawing_DrawRect.o)
                              Obj/GNU_ARM_DEBUG_TETRA/Goal.o (GL_Drawing_DrawRect)
C:/Program Files/TeliumSDK/SDK11.16.8.02/SDKTPLUS/HW_TETRA/gnu_473/lib/Platform\libGRAPHICLIB.a(GL_Drawing_DrawText.o)
                              Obj/GNU_ARM_DEBUG_TETRA/Goal.o (GL_Drawing_DrawText)
C:/Program Files/TeliumSDK/SDK11.16.8.02/SDKTPLUS/HW_TETRA/gnu_473/lib/Platform\libGRAPHICLIB.a(GL_Drawing_SetBrush.o)
                              Obj/GNU_ARM_DEBUG_TETRA/Goal.o (GL_Drawing_SetBrush)
C:/Program Files/TeliumSDK/SDK11.16.8.02/SDKTPLUS/HW_TETRA/gnu_473/lib/Platform\libGRAPHICLIB.a(GL_Drawing_SetFont.o)
                              Obj/GNU_ARM_DEBUG_TETRA/Goal.o (GL_Drawing_SetFont)
C:/Program Files/TeliumSDK/SDK11.16.8.02/SDKTPLUS/HW_TETRA/gnu_473/lib/Platform\libGRAPHICLIB.a(GL_Drawing_SetPen.o)
                              Obj/GNU_ARM_DEBUG_TETRA/Goal.o (GL_Drawing_SetPen)
C:/Program Files/TeliumSDK/SDK11.16.8.02/SDKTPLUS/HW_TETRA/gnu_473/lib/Platform\libGRAPHICLIB.a(GL_GraphicLib_BindSingleKey.o)
                              Obj/GNU_ARM_DEBUG_TETRA/Goal.o (GL_GraphicLib_BindSingleKey)
C:/Program Files/TeliumSDK/SDK11.16.8.02/SDKTPLUS/HW_TETRA/gnu_473/lib/Platform\libGRAPHICLIB.a(GL_GraphicLib_Create.o)
                              Obj/GNU_ARM_DEBUG_TETRA/Entry.o (GL_GraphicLib_Create)
C:/Program Files/TeliumSDK/SDK11.16.8.02/SDKTPLUS/HW_TETRA/gnu_473/lib/Platform\libGRAPHICLIB.a(GL_GraphicLib_IsTouchPresent.o)
                              Obj/GNU_ARM_DEBUG_TETRA/Menu.o (GL_GraphicLib_IsTouchPresent)
C:/Program Files/TeliumSDK/SDK11.16.8.02/SDKTPLUS/HW_TETRA/gnu_473/lib/Platform\libGRAPHICLIB.a(GL_GraphicLib_SetCharset.o)
                              Obj/GNU_ARM_DEBUG_TETRA/Goal.o (GL_GraphicLib_SetCharset)
C:/Program Files/TeliumSDK/SDK11.16.8.02/SDKTPLUS/HW_TETRA/gnu_473/lib/Platform\libGRAPHICLIB.a(GL_GraphicLib_UnbindKey.o)
                              Obj/GNU_ARM_DEBUG_TETRA/Goal.o (GL_GraphicLib_UnbindKey)
C:/Program Files/TeliumSDK/SDK11.16.8.02/SDKTPLUS/HW_TETRA/gnu_473/lib/Platform\libGRAPHICLIB.a(GL_Label_Create.o)
                              Obj/GNU_ARM_DEBUG_TETRA/Entry.o (GL_Label_Create)
C:/Program Files/TeliumSDK/SDK11.16.8.02/SDKTPLUS/HW_TETRA/gnu_473/lib/Platform\libGRAPHICLIB.a(GL_Layout_Create.o)
                              Obj/GNU_ARM_DEBUG_TETRA/Goal.o (GL_Layout_Create)
C:/Program Files/TeliumSDK/SDK11.16.8.02/SDKTPLUS/HW_TETRA/gnu_473/lib/Platform\libGRAPHICLIB.a(GL_Message_GetKey.o)
                              Obj/GNU_ARM_DEBUG_TETRA/Goal.o (GL_Message_GetKey)
C:/Program Files/TeliumSDK/SDK11.16.8.02/SDKTPLUS/HW_TETRA/gnu_473/lib/Platform\libGRAPHICLIB.a(GL_Message_GetWidget.o)
                              Obj/GNU_ARM_DEBUG_TETRA/Goal.o (GL_Message_GetWidget)
C:/Program Files/TeliumSDK/SDK11.16.8.02/SDKTPLUS/HW_TETRA/gnu_473/lib/Platform\libGRAPHICLIB.a(GL_Message_SetResult.o)
                              Obj/GNU_ARM_DEBUG_TETRA/Goal.o (GL_Message_SetResult)
C:/Program Files/TeliumSDK/SDK11.16.8.02/SDKTPLUS/HW_TETRA/gnu_473/lib/Platform\libGRAPHICLIB.a(GL_Message_SetUserData.o)
                              Obj/GNU_ARM_DEBUG_TETRA/Goal.o (GL_Message_SetUserData)
C:/Program Files/TeliumSDK/SDK11.16.8.02/SDKTPLUS/HW_TETRA/gnu_473/lib/Platform\libGRAPHICLIB.a(GL_Picture_Create.o)
                              Obj/GNU_ARM_DEBUG_TETRA/Goal.o (GL_Picture_Create)
C:/Program Files/TeliumSDK/SDK11.16.8.02/SDKTPLUS/HW_TETRA/gnu_473/lib/Platform\libGRAPHICLIB.a(GL_Print_Create.o)
                              Obj/GNU_ARM_DEBUG_TETRA/Goal.o (GL_Print_Create)
C:/Program Files/TeliumSDK/SDK11.16.8.02/SDKTPLUS/HW_TETRA/gnu_473/lib/Platform\libGRAPHICLIB.a(GL_Timer_Create.o)
                              Obj/GNU_ARM_DEBUG_TETRA/Goal.o (GL_Timer_Create)
C:/Program Files/TeliumSDK/SDK11.16.8.02/SDKTPLUS/HW_TETRA/gnu_473/lib/Platform\libGRAPHICLIB.a(GL_Timer_SetInterval.o)
                              Obj/GNU_ARM_DEBUG_TETRA/Goal.o (GL_Timer_SetInterval)
C:/Program Files/TeliumSDK/SDK11.16.8.02/SDKTPLUS/HW_TETRA/gnu_473/lib/Platform\libGRAPHICLIB.a(GL_Timer_Stop.o)
                              Obj/GNU_ARM_DEBUG_TETRA/Goal.o (GL_Timer_Stop)
C:/Program Files/TeliumSDK/SDK11.16.8.02/SDKTPLUS/HW_TETRA/gnu_473/lib/Platform\libGRAPHICLIB.a(GL_Widget_Destroy.o)
                              Obj/GNU_ARM_DEBUG_TETRA/Entry.o (GL_Widget_Destroy)
C:/Program Files/TeliumSDK/SDK11.16.8.02/SDKTPLUS/HW_TETRA/gnu_473/lib/Platform\libGRAPHICLIB.a(GL_Widget_GetUserData.o)
                              Obj/GNU_ARM_DEBUG_TETRA/Goal.o (GL_Widget_GetUserData)
C:/Program Files/TeliumSDK/SDK11.16.8.02/SDKTPLUS/HW_TETRA/gnu_473/lib/Platform\libGRAPHICLIB.a(GL_Widget_RegisterCallback.o)
                              Obj/GNU_ARM_DEBUG_TETRA/Goal.o (GL_Widget_RegisterCallback)
C:/Program Files/TeliumSDK/SDK11.16.8.02/SDKTPLUS/HW_TETRA/gnu_473/lib/Platform\libGRAPHICLIB.a(GL_Widget_SearchId.o)
                              Obj/GNU_ARM_DEBUG_TETRA/Goal.o (GL_Widget_SearchId)
C:/Program Files/TeliumSDK/SDK11.16.8.02/SDKTPLUS/HW_TETRA/gnu_473/lib/Platform\libGRAPHICLIB.a(GL_Widget_SetBackAlign.o)
                              Obj/GNU_ARM_DEBUG_TETRA/Entry.o (GL_Widget_SetBackAlign)
C:/Program Files/TeliumSDK/SDK11.16.8.02/SDKTPLUS/HW_TETRA/gnu_473/lib/Platform\libGRAPHICLIB.a(GL_Widget_SetBackColor.o)
                              Obj/GNU_ARM_DEBUG_TETRA/Goal.o (GL_Widget_SetBackColor)
C:/Program Files/TeliumSDK/SDK11.16.8.02/SDKTPLUS/HW_TETRA/gnu_473/lib/Platform\libGRAPHICLIB.a(GL_Widget_SetBorders.o)
                              Obj/GNU_ARM_DEBUG_TETRA/Goal.o (GL_Widget_SetBorders)
C:/Program Files/TeliumSDK/SDK11.16.8.02/SDKTPLUS/HW_TETRA/gnu_473/lib/Platform\libGRAPHICLIB.a(GL_Widget_SetExpand.o)
                              Obj/GNU_ARM_DEBUG_TETRA/Goal.o (GL_Widget_SetExpand)
C:/Program Files/TeliumSDK/SDK11.16.8.02/SDKTPLUS/HW_TETRA/gnu_473/lib/Platform\libGRAPHICLIB.a(GL_Widget_SetFocusable.o)
                              Obj/GNU_ARM_DEBUG_TETRA/Goal.o (GL_Widget_SetFocusable)
C:/Program Files/TeliumSDK/SDK11.16.8.02/SDKTPLUS/HW_TETRA/gnu_473/lib/Platform\libGRAPHICLIB.a(GL_Widget_SetFontName.o)
                              Obj/GNU_ARM_DEBUG_TETRA/Goal.o (GL_Widget_SetFontName)
C:/Program Files/TeliumSDK/SDK11.16.8.02/SDKTPLUS/HW_TETRA/gnu_473/lib/Platform\libGRAPHICLIB.a(GL_Widget_SetFontScale.o)
                              Obj/GNU_ARM_DEBUG_TETRA/Entry.o (GL_Widget_SetFontScale)
C:/Program Files/TeliumSDK/SDK11.16.8.02/SDKTPLUS/HW_TETRA/gnu_473/lib/Platform\libGRAPHICLIB.a(GL_Widget_SetFontStyle.o)
                              Obj/GNU_ARM_DEBUG_TETRA/Goal.o (GL_Widget_SetFontStyle)
C:/Program Files/TeliumSDK/SDK11.16.8.02/SDKTPLUS/HW_TETRA/gnu_473/lib/Platform\libGRAPHICLIB.a(GL_Widget_SetForeColor.o)
                              Obj/GNU_ARM_DEBUG_TETRA/Goal.o (GL_Widget_SetForeColor)
C:/Program Files/TeliumSDK/SDK11.16.8.02/SDKTPLUS/HW_TETRA/gnu_473/lib/Platform\libGRAPHICLIB.a(GL_Widget_SetGrow.o)
                              Obj/GNU_ARM_DEBUG_TETRA/Goal.o (GL_Widget_SetGrow)
C:/Program Files/TeliumSDK/SDK11.16.8.02/SDKTPLUS/HW_TETRA/gnu_473/lib/Platform\libGRAPHICLIB.a(GL_Widget_SetId.o)
                              Obj/GNU_ARM_DEBUG_TETRA/Goal.o (GL_Widget_SetId)
C:/Program Files/TeliumSDK/SDK11.16.8.02/SDKTPLUS/HW_TETRA/gnu_473/lib/Platform\libGRAPHICLIB.a(GL_Widget_SetItem.o)
                              Obj/GNU_ARM_DEBUG_TETRA/Goal.o (GL_Widget_SetItem)
C:/Program Files/TeliumSDK/SDK11.16.8.02/SDKTPLUS/HW_TETRA/gnu_473/lib/Platform\libGRAPHICLIB.a(GL_Widget_SetMargins.o)
                              Obj/GNU_ARM_DEBUG_TETRA/Goal.o (GL_Widget_SetMargins)
C:/Program Files/TeliumSDK/SDK11.16.8.02/SDKTPLUS/HW_TETRA/gnu_473/lib/Platform\libGRAPHICLIB.a(GL_Widget_SetMinSize.o)
                              Obj/GNU_ARM_DEBUG_TETRA/Goal.o (GL_Widget_SetMinSize)
C:/Program Files/TeliumSDK/SDK11.16.8.02/SDKTPLUS/HW_TETRA/gnu_473/lib/Platform\libGRAPHICLIB.a(GL_Widget_SetShortcut.o)
                              Obj/GNU_ARM_DEBUG_TETRA/Goal.o (GL_Widget_SetShortcut)
C:/Program Files/TeliumSDK/SDK11.16.8.02/SDKTPLUS/HW_TETRA/gnu_473/lib/Platform\libGRAPHICLIB.a(GL_Widget_SetShrink.o)
                              Obj/GNU_ARM_DEBUG_TETRA/Goal.o (GL_Widget_SetShrink)
C:/Program Files/TeliumSDK/SDK11.16.8.02/SDKTPLUS/HW_TETRA/gnu_473/lib/Platform\libGRAPHICLIB.a(GL_Widget_SetSize.o)
                              Obj/GNU_ARM_DEBUG_TETRA/Goal.o (GL_Widget_SetSize)
C:/Program Files/TeliumSDK/SDK11.16.8.02/SDKTPLUS/HW_TETRA/gnu_473/lib/Platform\libGRAPHICLIB.a(GL_Widget_SetSource.o)
                              Obj/GNU_ARM_DEBUG_TETRA/Goal.o (GL_Widget_SetSource)
C:/Program Files/TeliumSDK/SDK11.16.8.02/SDKTPLUS/HW_TETRA/gnu_473/lib/Platform\libGRAPHICLIB.a(GL_Widget_SetText.o)
                              Obj/GNU_ARM_DEBUG_TETRA/Entry.o (GL_Widget_SetText)
C:/Program Files/TeliumSDK/SDK11.16.8.02/SDKTPLUS/HW_TETRA/gnu_473/lib/Platform\libGRAPHICLIB.a(GL_Widget_SetTextAlign.o)
                              Obj/GNU_ARM_DEBUG_TETRA/Goal.o (GL_Widget_SetTextAlign)
C:/Program Files/TeliumSDK/SDK11.16.8.02/SDKTPLUS/HW_TETRA/gnu_473/lib/Platform\libGRAPHICLIB.a(GL_Widget_SetTextPaddings.o)
                              Obj/GNU_ARM_DEBUG_TETRA/Goal.o (GL_Widget_SetTextPaddings)
C:/Program Files/TeliumSDK/SDK11.16.8.02/SDKTPLUS/HW_TETRA/gnu_473/lib/Platform\libGRAPHICLIB.a(GL_Widget_SetTransformation.o)
                              Obj/GNU_ARM_DEBUG_TETRA/Goal.o (GL_Widget_SetTransformation)
C:/Program Files/TeliumSDK/SDK11.16.8.02/SDKTPLUS/HW_TETRA/gnu_473/lib/Platform\libGRAPHICLIB.a(GL_Widget_SetVisible.o)
                              Obj/GNU_ARM_DEBUG_TETRA/Goal.o (GL_Widget_SetVisible)
C:/Program Files/TeliumSDK/SDK11.16.8.02/SDKTPLUS/HW_TETRA/gnu_473/lib/Platform\libGRAPHICLIB.a(GL_Widget_SetWrap.o)
                              Obj/GNU_ARM_DEBUG_TETRA/Goal.o (GL_Widget_SetWrap)
C:/Program Files/TeliumSDK/SDK11.16.8.02/SDKTPLUS/HW_TETRA/gnu_473/lib/Platform\libGRAPHICLIB.a(GL_Widget_UnregisterCallback.o)
                              Obj/GNU_ARM_DEBUG_TETRA/Goal.o (GL_Widget_UnregisterCallback)
C:/Program Files/TeliumSDK/SDK11.16.8.02/SDKTPLUS/HW_TETRA/gnu_473/lib/Platform\libGRAPHICLIB.a(GL_Window_Create.o)
                              Obj/GNU_ARM_DEBUG_TETRA/Entry.o (GL_Window_Create)
C:/Program Files/TeliumSDK/SDK11.16.8.02/SDKTPLUS/HW_TETRA/gnu_473/lib/Platform\libGRAPHICLIB.a(GL_Window_Dispatch.o)
                              Obj/GNU_ARM_DEBUG_TETRA/Entry.o (GL_Window_Dispatch)
C:/Program Files/TeliumSDK/SDK11.16.8.02/SDKTPLUS/HW_TETRA/gnu_473/lib/Platform\libGRAPHICLIB.a(GL_Window_GetResult.o)
                              Obj/GNU_ARM_DEBUG_TETRA/Goal.o (GL_Window_GetResult)
C:/Program Files/TeliumSDK/SDK11.16.8.02/SDKTPLUS/HW_TETRA/gnu_473/lib/Platform\libGRAPHICLIB.a(GL_Window_MainLoop.o)
                              Obj/GNU_ARM_DEBUG_TETRA/Goal.o (GL_Window_MainLoop)
C:/Program Files/TeliumSDK/SDK11.16.8.02/SDKTPLUS/HW_TETRA/gnu_473/lib/Platform\libGRAPHICLIB.a(GL_link.o)
                              C:/Program Files/TeliumSDK/SDK11.16.8.02/SDKTPLUS/HW_TETRA/gnu_473/lib/Platform\libGRAPHICLIB.a(GL_GraphicLib_Create.o) (GL_GetProcAddressWithoutExit)
C:/Program Files/TeliumSDK/SDK11.16.8.02/SDKTPLUS/HW_TETRA/gnu_473/lib/Platform\libGRAPHICLIB.a(gl_asm_link.o)
                              C:/Program Files/TeliumSDK/SDK11.16.8.02/SDKTPLUS/HW_TETRA/gnu_473/lib/Platform\libGRAPHICLIB.a(GL_Button_Create.o) (GL_InitFuncAndBranch)
C:/Program Files/TeliumSDK/SDK11.16.8.02/SDKTPLUS/HW_TETRA/gnu_473/lib/Platform\libOSLAYER.a(OSL_Dll_Close.o)
                              C:/Program Files/TeliumSDK/SDK11.16.8.02/SDKTPLUS/HW_TETRA/gnu_473/lib/Platform/libwrapper_tplus.lib(extenstp1.o) (OSL_Dll_Close)
C:/Program Files/TeliumSDK/SDK11.16.8.02/SDKTPLUS/HW_TETRA/gnu_473/lib/Platform\libOSLAYER.a(OSL_Dll_GetSymbolByName.o)
                              C:/Program Files/TeliumSDK/SDK11.16.8.02/SDKTPLUS/HW_TETRA/gnu_473/lib/Platform/ExtraGPRS.lib(LIBGPRS_link.o) (OSL_Dll_GetSymbolByName)
C:/Program Files/TeliumSDK/SDK11.16.8.02/SDKTPLUS/HW_TETRA/gnu_473/lib/Platform\libOSLAYER.a(OSL_Dll_IsPresent.o)
                              C:/Program Files/TeliumSDK/SDK11.16.8.02/SDKTPLUS/HW_TETRA/gnu_473/lib/Platform/ExtraGPRS.lib(LIBGPRS_link.o) (OSL_Dll_IsPresent)
C:/Program Files/TeliumSDK/SDK11.16.8.02/SDKTPLUS/HW_TETRA/gnu_473/lib/Platform\libOSLAYER.a(OSL_Dll_Open.o)
                              C:/Program Files/TeliumSDK/SDK11.16.8.02/SDKTPLUS/HW_TETRA/gnu_473/lib/Platform/ExtraGPRS.lib(LIBGPRS_link.o) (OSL_Dll_Open)
C:/Program Files/TeliumSDK/SDK11.16.8.02/SDKTPLUS/HW_TETRA/gnu_473/lib/Platform\libOSLAYER.a(OSL_Dll_OpenByAppliType.o)
                              C:/Program Files/TeliumSDK/SDK11.16.8.02/SDKTPLUS/HW_TETRA/gnu_473/lib/Platform/libwrapper_tplus.lib(extenstp1.o) (OSL_Dll_OpenByAppliType)
C:/Program Files/TeliumSDK/SDK11.16.8.02/SDKTPLUS/HW_TETRA/gnu_473/lib/Platform\libOSLAYER.a(OSL_TimeStp_ElapsedMs.o)
                              Obj/GNU_ARM_DEBUG_TETRA/Timer.o (OSL_TimeStp_ElapsedMs)
C:/Program Files/TeliumSDK/SDK11.16.8.02/SDKTPLUS/HW_TETRA/gnu_473/lib/Platform\libOSLAYER.a(OSL_TimeStp_Now.o)
                              Obj/GNU_ARM_DEBUG_TETRA/Timer.o (OSL_TimeStp_Now)
C:/Program Files/TeliumSDK/SDK11.16.8.02/SDKTPLUS/HW_TETRA/gnu_473/lib/Platform\libgtl.a(GTL_StdTimer.o)
                              Obj/GNU_ARM_DEBUG_TETRA/globals.o (GTL_StdTimer_GetCurrent)
E:/IngeDev_8.18.0.5/toolchains/gnuArm47v7a-4/arm-islero-linux-gnueabi/sysroot/usr/lib/libc_nonshared.a(elf-init.oS)
                              E:/IngeDev_8.18.0.5/toolchains/gnuArm47v7a-4/arm-islero-linux-gnueabi/sysroot/usr/lib/crt1.o (__libc_csu_init)
E:/IngeDev_8.18.0.5/toolchains/gnuArm47v7a-4/lib/gcc/arm-islero-linux-gnueabi/4.7.3\libgcc.a(_udivsi3.o)
                              Obj/GNU_ARM_DEBUG_TETRA/globals.o (__aeabi_uidiv)
E:/IngeDev_8.18.0.5/toolchains/gnuArm47v7a-4/lib/gcc/arm-islero-linux-gnueabi/4.7.3\libgcc.a(_dvmd_lnx.o)
                              E:/IngeDev_8.18.0.5/toolchains/gnuArm47v7a-4/lib/gcc/arm-islero-linux-gnueabi/4.7.3\libgcc.a(_udivsi3.o) (__aeabi_idiv0)
C:/Program Files/TeliumSDK/SDK11.16.8.02/SDKTPLUS/HW_TETRA/gnu_473/lib/Platform/libwrapper_tplus.lib(TMT_Retrieve_Clock.o)
                              C:/Program Files/TeliumSDK/SDK11.16.8.02/SDKTPLUS/HW_TETRA/gnu_473/lib/Platform\libgtl.a(GTL_StdTimer.o) (TMT_Retrieve_Clock)

Allocating common symbols
Common symbol       size              file

isoField095         0x3e8             Obj/GNU_ARM_DEBUG_TETRA/Mapapp.o
isoField017         0x5               Obj/GNU_ARM_DEBUG_TETRA/Mapapp.o
isoField050         0x5               Obj/GNU_ARM_DEBUG_TETRA/Mapapp.o
isoField121         0x3e8             Obj/GNU_ARM_DEBUG_TETRA/Mapapp.o
isoField067         0x3e8             Obj/GNU_ARM_DEBUG_TETRA/Mapapp.o
isoField020         0x4               Obj/GNU_ARM_DEBUG_TETRA/Mapapp.o
isoField028         0xa               Obj/GNU_ARM_DEBUG_TETRA/Mapapp.o
isoField116         0x3e8             Obj/GNU_ARM_DEBUG_TETRA/Mapapp.o
BillerPayerName     0x3e8             Obj/GNU_ARM_DEBUG_TETRA/Mapapp.o
isoField072         0x3e8             Obj/GNU_ARM_DEBUG_TETRA/Mapapp.o
isoField035         0x64              Obj/GNU_ARM_DEBUG_TETRA/Mapapp.o
isoField105         0x3e8             Obj/GNU_ARM_DEBUG_TETRA/Mapapp.o
isoField089         0x3e8             Obj/GNU_ARM_DEBUG_TETRA/Mapapp.o
isoField046         0x64              Obj/GNU_ARM_DEBUG_TETRA/Mapapp.o
isoField081         0x3e8             Obj/GNU_ARM_DEBUG_TETRA/Mapapp.o
isoField003         0x7               Obj/GNU_ARM_DEBUG_TETRA/Mapapp.o
isoField059         0x64              Obj/GNU_ARM_DEBUG_TETRA/Mapapp.o
isoField010         0x9               Obj/GNU_ARM_DEBUG_TETRA/Mapapp.o
isoField051         0x5               Obj/GNU_ARM_DEBUG_TETRA/Mapapp.o
isoField096         0x3e8             Obj/GNU_ARM_DEBUG_TETRA/Mapapp.o
isoField018         0x5               Obj/GNU_ARM_DEBUG_TETRA/Mapapp.o
isoField128         0x3e8             Obj/GNU_ARM_DEBUG_TETRA/Mapapp.o
isoField120         0x3e8             Obj/GNU_ARM_DEBUG_TETRA/Mapapp.o
isoField115         0x3e8             Obj/GNU_ARM_DEBUG_TETRA/Mapapp.o
isoField068         0x3e8             Obj/GNU_ARM_DEBUG_TETRA/Mapapp.o
isoField029         0xa               Obj/GNU_ARM_DEBUG_TETRA/Mapapp.o
isoField060         0x64              Obj/GNU_ARM_DEBUG_TETRA/Mapapp.o
isoField021         0x4               Obj/GNU_ARM_DEBUG_TETRA/Mapapp.o
isoField073         0x3e8             Obj/GNU_ARM_DEBUG_TETRA/Mapapp.o
isoField036         0x64              Obj/GNU_ARM_DEBUG_TETRA/Mapapp.o
isoField104         0x3e8             Obj/GNU_ARM_DEBUG_TETRA/Mapapp.o
isoField004         0xd               Obj/GNU_ARM_DEBUG_TETRA/Mapapp.o
isoDrCr             0x2               Obj/GNU_ARM_DEBUG_TETRA/Mapapp.o
isoField047         0x3e8             Obj/GNU_ARM_DEBUG_TETRA/Mapapp.o
isoField082         0x3e8             Obj/GNU_ARM_DEBUG_TETRA/Mapapp.o
isoField052         0x11              Obj/GNU_ARM_DEBUG_TETRA/Mapapp.o
isoField097         0x3e8             Obj/GNU_ARM_DEBUG_TETRA/Mapapp.o
g_sFileManagement   0x1134            C:/Users/bkirii/Desktop/c/base_test_14/TRAINAPP/lib/FMG_TPlus.a(VGE_FMG.o)
isoField011         0x7               Obj/GNU_ARM_DEBUG_TETRA/Mapapp.o
isoField019         0x4               Obj/GNU_ARM_DEBUG_TETRA/Mapapp.o
isoField127         0x3e8             Obj/GNU_ARM_DEBUG_TETRA/Mapapp.o
isoField114         0x3e8             Obj/GNU_ARM_DEBUG_TETRA/Mapapp.o
isoField022         0x5               Obj/GNU_ARM_DEBUG_TETRA/Mapapp.o
isoField069         0x3e8             Obj/GNU_ARM_DEBUG_TETRA/Mapapp.o
isoField061         0x64              Obj/GNU_ARM_DEBUG_TETRA/Mapapp.o
isoField074         0x3e8             Obj/GNU_ARM_DEBUG_TETRA/Mapapp.o
isoField103         0x3e8             Obj/GNU_ARM_DEBUG_TETRA/Mapapp.o
isoField037         0x19              Obj/GNU_ARM_DEBUG_TETRA/Mapapp.o
isoField048         0x3e8             Obj/GNU_ARM_DEBUG_TETRA/Mapapp.o
isoField083         0x3e8             Obj/GNU_ARM_DEBUG_TETRA/Mapapp.o
isoField040         0x7               Obj/GNU_ARM_DEBUG_TETRA/Mapapp.o
isoField005         0xd               Obj/GNU_ARM_DEBUG_TETRA/Mapapp.o
isoField053         0x11              Obj/GNU_ARM_DEBUG_TETRA/Mapapp.o
isoField098         0x3e8             Obj/GNU_ARM_DEBUG_TETRA/Mapapp.o
isoField012         0x7               Obj/GNU_ARM_DEBUG_TETRA/Mapapp.o
isoField090         0x3e8             Obj/GNU_ARM_DEBUG_TETRA/Mapapp.o
isoField126         0x3e8             Obj/GNU_ARM_DEBUG_TETRA/Mapapp.o
isoField113         0x3e8             Obj/GNU_ARM_DEBUG_TETRA/Mapapp.o
isoField062         0x803             Obj/GNU_ARM_DEBUG_TETRA/Mapapp.o
isoField023         0x5               Obj/GNU_ARM_DEBUG_TETRA/Mapapp.o
isoField075         0x3e8             Obj/GNU_ARM_DEBUG_TETRA/Mapapp.o
BillerServiceName   0x3e8             Obj/GNU_ARM_DEBUG_TETRA/Mapapp.o
isoField030         0xa               Obj/GNU_ARM_DEBUG_TETRA/Mapapp.o
isoField038         0xd               Obj/GNU_ARM_DEBUG_TETRA/Mapapp.o
isoField102         0x3e8             Obj/GNU_ARM_DEBUG_TETRA/Mapapp.o
isoField049         0xd               Obj/GNU_ARM_DEBUG_TETRA/Mapapp.o
isoField084         0x3e8             Obj/GNU_ARM_DEBUG_TETRA/Mapapp.o
isoField041         0x9               Obj/GNU_ARM_DEBUG_TETRA/Mapapp.o
isoField006         0x4               Obj/GNU_ARM_DEBUG_TETRA/Mapapp.o
isoField054         0x3e8             Obj/GNU_ARM_DEBUG_TETRA/Mapapp.o
isoField099         0x3e8             Obj/GNU_ARM_DEBUG_TETRA/Mapapp.o
isoField013         0x5               Obj/GNU_ARM_DEBUG_TETRA/Mapapp.o
isoField091         0x3e8             Obj/GNU_ARM_DEBUG_TETRA/Mapapp.o
isoField125         0x3e8             Obj/GNU_ARM_DEBUG_TETRA/Mapapp.o
sSavedStatusHeader  0x4               Obj/GNU_ARM_DEBUG_TETRA/Menu.o
isoMnuItm           0x13              Obj/GNU_ARM_DEBUG_TETRA/Mapapp.o
isoField063         0x3e8             Obj/GNU_ARM_DEBUG_TETRA/Mapapp.o
isoField024         0x5               Obj/GNU_ARM_DEBUG_TETRA/Mapapp.o
isoField112         0x3e8             Obj/GNU_ARM_DEBUG_TETRA/Mapapp.o
isoField076         0x3e8             Obj/GNU_ARM_DEBUG_TETRA/Mapapp.o
orgMnuItm           0x2               Obj/GNU_ARM_DEBUG_TETRA/Mapapp.o
isoField031         0xa               Obj/GNU_ARM_DEBUG_TETRA/Mapapp.o
isoField101         0x3e8             Obj/GNU_ARM_DEBUG_TETRA/Mapapp.o
isoField039         0x5               Obj/GNU_ARM_DEBUG_TETRA/Mapapp.o
isoField109         0x3e8             Obj/GNU_ARM_DEBUG_TETRA/Mapapp.o
isoField085         0x3e8             Obj/GNU_ARM_DEBUG_TETRA/Mapapp.o
isoField042         0x1f              Obj/GNU_ARM_DEBUG_TETRA/Mapapp.o
isoField007         0xf               Obj/GNU_ARM_DEBUG_TETRA/Mapapp.o
isoField124         0x3e8             Obj/GNU_ARM_DEBUG_TETRA/Mapapp.o
isoField055         0x201             Obj/GNU_ARM_DEBUG_TETRA/Mapapp.o
isoField092         0x3e8             Obj/GNU_ARM_DEBUG_TETRA/Mapapp.o
LoggedInUser        0x3e8             Obj/GNU_ARM_DEBUG_TETRA/Mapapp.o
isoField014         0x5               Obj/GNU_ARM_DEBUG_TETRA/Mapapp.o
isoField064         0x9               Obj/GNU_ARM_DEBUG_TETRA/Mapapp.o
isoField025         0x3               Obj/GNU_ARM_DEBUG_TETRA/Mapapp.o
isoField119         0x3e8             Obj/GNU_ARM_DEBUG_TETRA/Mapapp.o
isoField111         0x3e8             Obj/GNU_ARM_DEBUG_TETRA/Mapapp.o
isoField077         0x3e8             Obj/GNU_ARM_DEBUG_TETRA/Mapapp.o
isoField100         0x3e8             Obj/GNU_ARM_DEBUG_TETRA/Mapapp.o
isoField032         0x64              Obj/GNU_ARM_DEBUG_TETRA/Mapapp.o
isoField086         0x3e8             Obj/GNU_ARM_DEBUG_TETRA/Mapapp.o
isoField108         0x3e8             Obj/GNU_ARM_DEBUG_TETRA/Mapapp.o
isoField043         0x51              Obj/GNU_ARM_DEBUG_TETRA/Mapapp.o
isoField000         0x7               Obj/GNU_ARM_DEBUG_TETRA/Mapapp.o
isoField008         0x9               Obj/GNU_ARM_DEBUG_TETRA/Mapapp.o
isoField123         0x3e8             Obj/GNU_ARM_DEBUG_TETRA/Mapapp.o
isoField015         0x7               Obj/GNU_ARM_DEBUG_TETRA/Mapapp.o
isoField056         0x64              Obj/GNU_ARM_DEBUG_TETRA/Mapapp.o
sSavedStatusLeds    0x4               Obj/GNU_ARM_DEBUG_TETRA/Menu.o
isoField093         0x3e8             Obj/GNU_ARM_DEBUG_TETRA/Mapapp.o
isoField065         0x3e8             Obj/GNU_ARM_DEBUG_TETRA/Mapapp.o
isoField026         0x3               Obj/GNU_ARM_DEBUG_TETRA/Mapapp.o
isoField110         0x3e8             Obj/GNU_ARM_DEBUG_TETRA/Mapapp.o
isoField118         0x3e8             Obj/GNU_ARM_DEBUG_TETRA/Mapapp.o
hostGateway         0x2               Obj/GNU_ARM_DEBUG_TETRA/Mapapp.o
invoiceNo           0x7               Obj/GNU_ARM_DEBUG_TETRA/Mapapp.o
isoField033         0xa               Obj/GNU_ARM_DEBUG_TETRA/Mapapp.o
isoField078         0x3e8             Obj/GNU_ARM_DEBUG_TETRA/Mapapp.o
isoField070         0x3e8             Obj/GNU_ARM_DEBUG_TETRA/Mapapp.o
isoField107         0x3e8             Obj/GNU_ARM_DEBUG_TETRA/Mapapp.o
isoField087         0x3e8             Obj/GNU_ARM_DEBUG_TETRA/Mapapp.o
isoField044         0xa               Obj/GNU_ARM_DEBUG_TETRA/Mapapp.o
beg                 0x4               Obj/GNU_ARM_DEBUG_TETRA/globals.o
isoField001         0x64              Obj/GNU_ARM_DEBUG_TETRA/Mapapp.o
isoField009         0x9               Obj/GNU_ARM_DEBUG_TETRA/Mapapp.o
sSavedStatusFooter  0x4               Obj/GNU_ARM_DEBUG_TETRA/Menu.o
billerReceipt       0x3e8             Obj/GNU_ARM_DEBUG_TETRA/Mapapp.o
isoField122         0x3e8             Obj/GNU_ARM_DEBUG_TETRA/Mapapp.o
isoField057         0x64              Obj/GNU_ARM_DEBUG_TETRA/Mapapp.o
isoField094         0x3e8             Obj/GNU_ARM_DEBUG_TETRA/Mapapp.o
isoField016         0x5               Obj/GNU_ARM_DEBUG_TETRA/Mapapp.o
isoField066         0x3e8             Obj/GNU_ARM_DEBUG_TETRA/Mapapp.o
isoField027         0x3               Obj/GNU_ARM_DEBUG_TETRA/Mapapp.o
isoField117         0x3e8             Obj/GNU_ARM_DEBUG_TETRA/Mapapp.o
isoField079         0x3e8             Obj/GNU_ARM_DEBUG_TETRA/Mapapp.o
isoField071         0x3e8             Obj/GNU_ARM_DEBUG_TETRA/Mapapp.o
isoField034         0xa               Obj/GNU_ARM_DEBUG_TETRA/Mapapp.o
isoField106         0x3e8             Obj/GNU_ARM_DEBUG_TETRA/Mapapp.o
isoField088         0x3e8             Obj/GNU_ARM_DEBUG_TETRA/Mapapp.o
billerRef           0x3e8             Obj/GNU_ARM_DEBUG_TETRA/Mapapp.o
isoField045         0xa               Obj/GNU_ARM_DEBUG_TETRA/Mapapp.o
isoField002         0x64              Obj/GNU_ARM_DEBUG_TETRA/Mapapp.o
isoField080         0x3e8             Obj/GNU_ARM_DEBUG_TETRA/Mapapp.o
isoField058         0x64              Obj/GNU_ARM_DEBUG_TETRA/Mapapp.o

Discarded input sections

 .note.GNU-stack
                0x00000000        0x0 E:/IngeDev_8.18.0.5/toolchains/gnuArm47v7a-4/arm-islero-linux-gnueabi/sysroot/usr/lib/crti.o
 .note.GNU-stack
                0x00000000        0x0 E:/IngeDev_8.18.0.5/toolchains/gnuArm47v7a-4/arm-islero-linux-gnueabi/sysroot/usr/lib/crt1.o
 .note.GNU-stack
                0x00000000        0x0 E:/IngeDev_8.18.0.5/toolchains/gnuArm47v7a-4/lib/gcc/arm-islero-linux-gnueabi/4.7.3/crtbegin.o
 .note.GNU-stack
                0x00000000        0x0 C:/Program Files/TeliumSDK/SDK11.16.8.02/SDKTPLUS/HW_TETRA/gnu_473/startfiles/startup_tplusentry.o
 .note.GNU-stack
                0x00000000        0x0 Obj/GNU_ARM_DEBUG_TETRA/Main.o
 .note.GNU-stack
                0x00000000        0x0 Obj/GNU_ARM_DEBUG_TETRA/Entry.o
 .note.GNU-stack
                0x00000000        0x0 Obj/GNU_ARM_DEBUG_TETRA/Menu.o
 .note.GNU-stack
                0x00000000        0x0 Obj/GNU_ARM_DEBUG_TETRA/ComGPRS.o
 .note.GNU-stack
                0x00000000        0x0 Obj/GNU_ARM_DEBUG_TETRA/Goal.o
 .note.GNU-stack
                0x00000000        0x0 Obj/GNU_ARM_DEBUG_TETRA/Mapapp.o
 .note.GNU-stack
                0x00000000        0x0 Obj/GNU_ARM_DEBUG_TETRA/FMG.o
 .note.GNU-stack
                0x00000000        0x0 Obj/GNU_ARM_DEBUG_TETRA/Utility.o
 .note.GNU-stack
                0x00000000        0x0 Obj/GNU_ARM_DEBUG_TETRA/Timer.o
 .note.GNU-stack
                0x00000000        0x0 Obj/GNU_ARM_DEBUG_TETRA/iso8583.o
 .note.GNU-stack
                0x00000000        0x0 Obj/GNU_ARM_DEBUG_TETRA/transaction.o
 .note.GNU-stack
                0x00000000        0x0 Obj/GNU_ARM_DEBUG_TETRA/globals.o
 .note.GNU-stack
                0x00000000        0x0 Obj/GNU_ARM_DEBUG_TETRA/magnetic.o
 .note.GNU-stack
                0x00000000        0x0 Obj/GNU_ARM_DEBUG_TETRA/schemes.o
 .note.GNU-stack
                0x00000000        0x0 Obj/GNU_ARM_DEBUG_TETRA/amount.o
 .note.GNU-stack
                0x00000000        0x0 C:/Users/bkirii/Desktop/c/base_test_14/TRAINAPP/lib/FMG_TPlus.a(VGE_FMG.o)
 .note.GNU-stack
                0x00000000        0x0 C:/Users/bkirii/Desktop/c/base_test_14/TRAINAPP/lib/FMG_TPlus.a(md5.o)
 .note.GNU-stack
                0x00000000        0x0 C:/Program Files/TeliumSDK/SDK11.16.8.02/SDKTPLUS/HW_TETRA/gnu_473/lib/Platform/ExtraGPRS.lib(gprs_GetInformation.o)
 .note.GNU-stack
                0x00000000        0x0 C:/Program Files/TeliumSDK/SDK11.16.8.02/SDKTPLUS/HW_TETRA/gnu_473/lib/Platform/ExtraGPRS.lib(gprs_SetPinModeFree.o)
 .note.GNU-stack
                0x00000000        0x0 C:/Program Files/TeliumSDK/SDK11.16.8.02/SDKTPLUS/HW_TETRA/gnu_473/lib/Platform/ExtraGPRS.lib(gprs_SubmitPuk.o)
 .note.GNU-stack
                0x00000000        0x0 C:/Program Files/TeliumSDK/SDK11.16.8.02/SDKTPLUS/HW_TETRA/gnu_473/lib/Platform/ExtraGPRS.lib(LIBGPRS_asm_link.o)
 .note.GNU-stack
                0x00000000        0x0 C:/Program Files/TeliumSDK/SDK11.16.8.02/SDKTPLUS/HW_TETRA/gnu_473/lib/Platform/ExtraGPRS.lib(LIBGPRS_link.o)
 .note.GNU-stack
                0x00000000        0x0 C:/Program Files/TeliumSDK/SDK11.16.8.02/SDKTPLUS/HW_TETRA/gnu_473/lib/Platform/liblinklayer.lib(LL_ClearReceiveBuffer.o)
 .note.GNU-stack
                0x00000000        0x0 C:/Program Files/TeliumSDK/SDK11.16.8.02/SDKTPLUS/HW_TETRA/gnu_473/lib/Platform/liblinklayer.lib(LL_ClearSendBuffer.o)
 .note.GNU-stack
                0x00000000        0x0 C:/Program Files/TeliumSDK/SDK11.16.8.02/SDKTPLUS/HW_TETRA/gnu_473/lib/Platform/liblinklayer.lib(LL_Configure.o)
 .note.GNU-stack
                0x00000000        0x0 C:/Program Files/TeliumSDK/SDK11.16.8.02/SDKTPLUS/HW_TETRA/gnu_473/lib/Platform/liblinklayer.lib(LL_Connect.o)
 .note.GNU-stack
                0x00000000        0x0 C:/Program Files/TeliumSDK/SDK11.16.8.02/SDKTPLUS/HW_TETRA/gnu_473/lib/Platform/liblinklayer.lib(LL_Disconnect.o)
 .note.GNU-stack
                0x00000000        0x0 C:/Program Files/TeliumSDK/SDK11.16.8.02/SDKTPLUS/HW_TETRA/gnu_473/lib/Platform/liblinklayer.lib(LL_GetLastError.o)
 .note.GNU-stack
                0x00000000        0x0 C:/Program Files/TeliumSDK/SDK11.16.8.02/SDKTPLUS/HW_TETRA/gnu_473/lib/Platform/liblinklayer.lib(LL_GPRS_Connect.o)
 .note.GNU-stack
                0x00000000        0x0 C:/Program Files/TeliumSDK/SDK11.16.8.02/SDKTPLUS/HW_TETRA/gnu_473/lib/Platform/liblinklayer.lib(LL_GPRS_Start.o)
 .note.GNU-stack
                0x00000000        0x0 C:/Program Files/TeliumSDK/SDK11.16.8.02/SDKTPLUS/HW_TETRA/gnu_473/lib/Platform/liblinklayer.lib(LL_GSM_Start.o)
 .note.GNU-stack
                0x00000000        0x0 C:/Program Files/TeliumSDK/SDK11.16.8.02/SDKTPLUS/HW_TETRA/gnu_473/lib/Platform/liblinklayer.lib(LL_Network_GetStatus.o)
 .note.GNU-stack
                0x00000000        0x0 C:/Program Files/TeliumSDK/SDK11.16.8.02/SDKTPLUS/HW_TETRA/gnu_473/lib/Platform/liblinklayer.lib(LL_Receive.o)
 .note.GNU-stack
                0x00000000        0x0 C:/Program Files/TeliumSDK/SDK11.16.8.02/SDKTPLUS/HW_TETRA/gnu_473/lib/Platform/liblinklayer.lib(LL_Send.o)
 .note.GNU-stack
                0x00000000        0x0 C:/Program Files/TeliumSDK/SDK11.16.8.02/SDKTPLUS/HW_TETRA/gnu_473/lib/Platform/liblinklayer.lib(LINKLAYER_asm_link.o)
 .note.GNU-stack
                0x00000000        0x0 C:/Program Files/TeliumSDK/SDK11.16.8.02/SDKTPLUS/HW_TETRA/gnu_473/lib/Platform/liblinklayer.lib(LINKLAYER_link.o)
 .note.GNU-stack
                0x00000000        0x0 C:/Program Files/TeliumSDK/SDK11.16.8.02/SDKTPLUS/HW_TETRA/gnu_473/lib/Platform/TlvTree.lib(TlvTree_AddChild.o)
 .note.GNU-stack
                0x00000000        0x0 C:/Program Files/TeliumSDK/SDK11.16.8.02/SDKTPLUS/HW_TETRA/gnu_473/lib/Platform/TlvTree.lib(TlvTree_AddChildInteger.o)
 .note.GNU-stack
                0x00000000        0x0 C:/Program Files/TeliumSDK/SDK11.16.8.02/SDKTPLUS/HW_TETRA/gnu_473/lib/Platform/TlvTree.lib(TlvTree_AddChildString.o)
 .note.GNU-stack
                0x00000000        0x0 C:/Program Files/TeliumSDK/SDK11.16.8.02/SDKTPLUS/HW_TETRA/gnu_473/lib/Platform/TlvTree.lib(TlvTree_New.o)
 .note.GNU-stack
                0x00000000        0x0 C:/Program Files/TeliumSDK/SDK11.16.8.02/SDKTPLUS/HW_TETRA/gnu_473/lib/Platform/TlvTree.lib(TlvTree_Release.o)
 .note.GNU-stack
                0x00000000        0x0 C:/Program Files/TeliumSDK/SDK11.16.8.02/SDKTPLUS/HW_TETRA/gnu_473/lib/Platform/TlvTree.lib(TLV_TREE_DLL_asm_link.o)
 .note.GNU-stack
                0x00000000        0x0 C:/Program Files/TeliumSDK/SDK11.16.8.02/SDKTPLUS/HW_TETRA/gnu_473/lib/Platform/TlvTree.lib(TLV_TREE_DLL_link.o)
 .note.GNU-stack
                0x00000000        0x0 C:/Program Files/TeliumSDK/SDK11.16.8.02/SDKTPLUS/HW_TETRA/gnu_473/lib/Platform/libwrapper_tplus.lib(DLLExist.o)
 .note.GNU-stack
                0x00000000        0x0 C:/Program Files/TeliumSDK/SDK11.16.8.02/SDKTPLUS/HW_TETRA/gnu_473/lib/Platform/libwrapper_tplus.lib(d_tolong.o)
 .note.GNU-stack
                0x00000000        0x0 C:/Program Files/TeliumSDK/SDK11.16.8.02/SDKTPLUS/HW_TETRA/gnu_473/lib/Platform/libwrapper_tplus.lib(stdcam0.o)
 .note.GNU-stack
                0x00000000        0x0 C:/Program Files/TeliumSDK/SDK11.16.8.02/SDKTPLUS/HW_TETRA/gnu_473/lib/Platform/libwrapper_tplus.lib(extenstp1.o)
 .note.GNU-stack
                0x00000000        0x0 C:/Program Files/TeliumSDK/SDK11.16.8.02/SDKTPLUS/HW_TETRA/gnu_473/lib/Platform/libwrapper_tplus.lib(Telium_Fclose.o)
 .note.GNU-stack
                0x00000000        0x0 C:/Program Files/TeliumSDK/SDK11.16.8.02/SDKTPLUS/HW_TETRA/gnu_473/lib/Platform/libwrapper_tplus.lib(Telium_Fopen.o)
 .note.GNU-stack
                0x00000000        0x0 C:/Program Files/TeliumSDK/SDK11.16.8.02/SDKTPLUS/HW_TETRA/gnu_473/lib/Platform/libwrapper_tplus.lib(Telium_Getc.o)
 .note.GNU-stack
                0x00000000        0x0 C:/Program Files/TeliumSDK/SDK11.16.8.02/SDKTPLUS/HW_TETRA/gnu_473/lib/Platform/libwrapper_tplus.lib(Telium_Is_iso1.o)
 .note.GNU-stack
                0x00000000        0x0 C:/Program Files/TeliumSDK/SDK11.16.8.02/SDKTPLUS/HW_TETRA/gnu_473/lib/Platform/libwrapper_tplus.lib(Telium_Is_iso2.o)
 .note.GNU-stack
                0x00000000        0x0 C:/Program Files/TeliumSDK/SDK11.16.8.02/SDKTPLUS/HW_TETRA/gnu_473/lib/Platform/libwrapper_tplus.lib(Telium_Is_iso3.o)
 .note.GNU-stack
                0x00000000        0x0 C:/Program Files/TeliumSDK/SDK11.16.8.02/SDKTPLUS/HW_TETRA/gnu_473/lib/Platform/libwrapper_tplus.lib(Telium_Reset_buf.o)
 .note.GNU-stack
                0x00000000        0x0 C:/Program Files/TeliumSDK/SDK11.16.8.02/SDKTPLUS/HW_TETRA/gnu_473/lib/Platform/libwrapper_tplus.lib(Telium_Status.o)
 .note.GNU-stack
                0x00000000        0x0 C:/Program Files/TeliumSDK/SDK11.16.8.02/SDKTPLUS/HW_TETRA/gnu_473/lib/Platform/libwrapper_tplus.lib(Telium_Stdin.o)
 .note.GNU-stack
                0x00000000        0x0 C:/Program Files/TeliumSDK/SDK11.16.8.02/SDKTPLUS/HW_TETRA/gnu_473/lib/Platform/libwrapper_tplus.lib(Telium_Stdout.o)
 .note.GNU-stack
                0x00000000        0x0 C:/Program Files/TeliumSDK/SDK11.16.8.02/SDKTPLUS/HW_TETRA/gnu_473/lib/Platform/libwrapper_tplus.lib(Telium_Stdperif.o)
 .note.GNU-stack
                0x00000000        0x0 C:/Program Files/TeliumSDK/SDK11.16.8.02/SDKTPLUS/HW_TETRA/gnu_473/lib/Platform/libwrapper_tplus.lib(Telium_Ttestall.o)
 .note.GNU-stack
                0x00000000        0x0 C:/Program Files/TeliumSDK/SDK11.16.8.02/SDKTPLUS/HW_TETRA/gnu_473/lib/Platform/libwrapper_tplus.lib(buzzer.o)
 .note.GNU-stack
                0x00000000        0x0 C:/Program Files/TeliumSDK/SDK11.16.8.02/SDKTPLUS/HW_TETRA/gnu_473/lib/Platform/libwrapper_tplus.lib(DrawExtendedString.o)
 .note.GNU-stack
                0x00000000        0x0 C:/Program Files/TeliumSDK/SDK11.16.8.02/SDKTPLUS/HW_TETRA/gnu_473/lib/Platform/libwrapper_tplus.lib(InitContexteGraphique.o)
 .note.GNU-stack
                0x00000000        0x0 C:/Program Files/TeliumSDK/SDK11.16.8.02/SDKTPLUS/HW_TETRA/gnu_473/lib/Platform/libwrapper_tplus.lib(PaintGraphics.o)
 .note.GNU-stack
                0x00000000        0x0 C:/Program Files/TeliumSDK/SDK11.16.8.02/SDKTPLUS/HW_TETRA/gnu_473/lib/Platform/libwrapper_tplus.lib(_DrawExtendedString.o)
 .note.GNU-stack
                0x00000000        0x0 C:/Program Files/TeliumSDK/SDK11.16.8.02/SDKTPLUS/HW_TETRA/gnu_473/lib/Platform/libwrapper_tplus.lib(libgrtp1.o)
 .note.GNU-stack
                0x00000000        0x0 C:/Program Files/TeliumSDK/SDK11.16.8.02/SDKTPLUS/HW_TETRA/gnu_473/lib/Platform/libwrapper_tplus.lib(PSQ_Est_pinpad.o)
 .note.GNU-stack
                0x00000000        0x0 C:/Program Files/TeliumSDK/SDK11.16.8.02/SDKTPLUS/HW_TETRA/gnu_473/lib/Platform/libwrapper_tplus.lib(PSQ_donner_type_pinpad.o)
 .note.GNU-stack
                0x00000000        0x0 C:/Program Files/TeliumSDK/SDK11.16.8.02/SDKTPLUS/HW_TETRA/gnu_473/lib/Platform/libwrapper_tplus.lib(paramtp1.o)
 .note.GNU-stack
                0x00000000        0x0 C:/Program Files/TeliumSDK/SDK11.16.8.02/SDKTPLUS/HW_TETRA/gnu_473/lib/Platform/libwrapper_tplus.lib(IsPPSConnected.o)
 .note.GNU-stack
                0x00000000        0x0 C:/Program Files/TeliumSDK/SDK11.16.8.02/SDKTPLUS/HW_TETRA/gnu_473/lib/Platform/libwrapper_tplus.lib(PPS_SendTerminalRefRequestCommand.o)
 .note.GNU-stack
                0x00000000        0x0 C:/Program Files/TeliumSDK/SDK11.16.8.02/SDKTPLUS/HW_TETRA/gnu_473/lib/Platform/libwrapper_tplus.lib(PPS_firstline.o)
 .note.GNU-stack
                0x00000000        0x0 C:/Program Files/TeliumSDK/SDK11.16.8.02/SDKTPLUS/HW_TETRA/gnu_473/lib/Platform/libwrapper_tplus.lib(PPS_newline.o)
 .note.GNU-stack
                0x00000000        0x0 C:/Program Files/TeliumSDK/SDK11.16.8.02/SDKTPLUS/HW_TETRA/gnu_473/lib/Platform/libwrapper_tplus.lib(pinpadtp1.o)
 .note.GNU-stack
                0x00000000        0x0 C:/Program Files/TeliumSDK/SDK11.16.8.02/SDKTPLUS/HW_TETRA/gnu_473/lib/Platform/libwrapper_tplus.lib(PPS_Display.o)
 .note.GNU-stack
                0x00000000        0x0 C:/Program Files/TeliumSDK/SDK11.16.8.02/SDKTPLUS/HW_TETRA/gnu_473/lib/Platform/libwrapper_tplus.lib(Telium_Read_date.o)
 .note.GNU-stack
                0x00000000        0x0 C:/Program Files/TeliumSDK/SDK11.16.8.02/SDKTPLUS/HW_TETRA/gnu_473/lib/Platform/libwrapper_tplus.lib(BoosterType.o)
 .note.GNU-stack
                0x00000000        0x0 C:/Program Files/TeliumSDK/SDK11.16.8.02/SDKTPLUS/HW_TETRA/gnu_473/lib/Platform/libwrapper_tplus.lib(IsColorDisplay.o)
 .note.GNU-stack
                0x00000000        0x0 C:/Program Files/TeliumSDK/SDK11.16.8.02/SDKTPLUS/HW_TETRA/gnu_473/lib/Platform/libwrapper_tplus.lib(IsISO1.o)
 .note.GNU-stack
                0x00000000        0x0 C:/Program Files/TeliumSDK/SDK11.16.8.02/SDKTPLUS/HW_TETRA/gnu_473/lib/Platform/libwrapper_tplus.lib(IsISO2.o)
 .note.GNU-stack
                0x00000000        0x0 C:/Program Files/TeliumSDK/SDK11.16.8.02/SDKTPLUS/HW_TETRA/gnu_473/lib/Platform/libwrapper_tplus.lib(IsISO3.o)
 .note.GNU-stack
                0x00000000        0x0 C:/Program Files/TeliumSDK/SDK11.16.8.02/SDKTPLUS/HW_TETRA/gnu_473/lib/Platform/libwrapper_tplus.lib(IsPrinter.o)
 .note.GNU-stack
                0x00000000        0x0 C:/Program Files/TeliumSDK/SDK11.16.8.02/SDKTPLUS/HW_TETRA/gnu_473/lib/Platform/libwrapper_tplus.lib(Telium_ServiceRegister.o)
 .note.GNU-stack
                0x00000000        0x0 C:/Program Files/TeliumSDK/SDK11.16.8.02/SDKTPLUS/HW_TETRA/gnu_473/lib/Platform/libwrapper_tplus.lib(Telium_Pprintf.o)
 .note.GNU-stack
                0x00000000        0x0 C:/Program Files/TeliumSDK/SDK11.16.8.02/SDKTPLUS/HW_TETRA/gnu_473/lib/Platform/libwrapper_tplus.lib(Telium_Printf.o)
 .note.GNU-stack
                0x00000000        0x0 C:/Program Files/TeliumSDK/SDK11.16.8.02/SDKTPLUS/HW_TETRA/gnu_473/lib/Platform/libwrapper_tplus.lib(Telium_Stdprt.o)
 .note.GNU-stack
                0x00000000        0x0 C:/Program Files/TeliumSDK/SDK11.16.8.02/SDKTPLUS/HW_TETRA/gnu_473/lib/Platform/libwrapper_tplus.lib(Telium_Sprintf.o)
 .note.GNU-stack
                0x00000000        0x0 C:/Program Files/TeliumSDK/SDK11.16.8.02/SDKTPLUS/HW_TETRA/gnu_473/lib/Platform/libwrapper_tplus.lib(ApplicationGetCurrent.o)
 .note.GNU-stack
                0x00000000        0x0 C:/Program Files/TeliumSDK/SDK11.16.8.02/SDKTPLUS/HW_TETRA/gnu_473/lib/Platform/libwrapper_tplus.lib(FS_close.o)
 .note.GNU-stack
                0x00000000        0x0 C:/Program Files/TeliumSDK/SDK11.16.8.02/SDKTPLUS/HW_TETRA/gnu_473/lib/Platform/libwrapper_tplus.lib(FS_dskcreate.o)
 .note.GNU-stack
                0x00000000        0x0 C:/Program Files/TeliumSDK/SDK11.16.8.02/SDKTPLUS/HW_TETRA/gnu_473/lib/Platform/libwrapper_tplus.lib(FS_exist.o)
 .note.GNU-stack
                0x00000000        0x0 C:/Program Files/TeliumSDK/SDK11.16.8.02/SDKTPLUS/HW_TETRA/gnu_473/lib/Platform/libwrapper_tplus.lib(FS_length.o)
 .note.GNU-stack
                0x00000000        0x0 C:/Program Files/TeliumSDK/SDK11.16.8.02/SDKTPLUS/HW_TETRA/gnu_473/lib/Platform/libwrapper_tplus.lib(FS_mount.o)
 .note.GNU-stack
                0x00000000        0x0 C:/Program Files/TeliumSDK/SDK11.16.8.02/SDKTPLUS/HW_TETRA/gnu_473/lib/Platform/libwrapper_tplus.lib(FS_open.o)
 .note.GNU-stack
                0x00000000        0x0 C:/Program Files/TeliumSDK/SDK11.16.8.02/SDKTPLUS/HW_TETRA/gnu_473/lib/Platform/libwrapper_tplus.lib(FS_read.o)
 .note.GNU-stack
                0x00000000        0x0 C:/Program Files/TeliumSDK/SDK11.16.8.02/SDKTPLUS/HW_TETRA/gnu_473/lib/Platform/libwrapper_tplus.lib(FS_rename.o)
 .note.GNU-stack
                0x00000000        0x0 C:/Program Files/TeliumSDK/SDK11.16.8.02/SDKTPLUS/HW_TETRA/gnu_473/lib/Platform/libwrapper_tplus.lib(FS_seek.o)
 .note.GNU-stack
                0x00000000        0x0 C:/Program Files/TeliumSDK/SDK11.16.8.02/SDKTPLUS/HW_TETRA/gnu_473/lib/Platform/libwrapper_tplus.lib(FS_unlink.o)
 .note.GNU-stack
                0x00000000        0x0 C:/Program Files/TeliumSDK/SDK11.16.8.02/SDKTPLUS/HW_TETRA/gnu_473/lib/Platform/libwrapper_tplus.lib(FS_unmount.o)
 .note.GNU-stack
                0x00000000        0x0 C:/Program Files/TeliumSDK/SDK11.16.8.02/SDKTPLUS/HW_TETRA/gnu_473/lib/Platform/libwrapper_tplus.lib(FS_write.o)
 .note.GNU-stack
                0x00000000        0x0 C:/Program Files/TeliumSDK/SDK11.16.8.02/SDKTPLUS/HW_TETRA/gnu_473/lib/Platform/libwrapper_tplus.lib(ObjectGetDescriptor.o)
 .note.GNU-stack
                0x00000000        0x0 C:/Program Files/TeliumSDK/SDK11.16.8.02/SDKTPLUS/HW_TETRA/gnu_473/lib/Platform/libwrapper_tplus.lib(ObjectGetInfo.o)
 .note.GNU-stack
                0x00000000        0x0 C:/Program Files/TeliumSDK/SDK11.16.8.02/SDKTPLUS/HW_TETRA/gnu_473/lib/Platform/libwrapper_tplus.lib(PageAlloc.o)
 .note.GNU-stack
                0x00000000        0x0 C:/Program Files/TeliumSDK/SDK11.16.8.02/SDKTPLUS/HW_TETRA/gnu_473/lib/Platform/libwrapper_tplus.lib(PageFree.o)
 .note.GNU-stack
                0x00000000        0x0 C:/Program Files/TeliumSDK/SDK11.16.8.02/SDKTPLUS/HW_TETRA/gnu_473/lib/Platform/libwrapper_tplus.lib(first_init.o)
 .note.GNU-stack
                0x00000000        0x0 C:/Program Files/TeliumSDK/SDK11.16.8.02/SDKTPLUS/HW_TETRA/gnu_473/lib/Platform/libwrapper_tplus.lib(raz_init.o)
 .note.GNU-stack
                0x00000000        0x0 C:/Program Files/TeliumSDK/SDK11.16.8.02/SDKTPLUS/HW_TETRA/gnu_473/lib/Platform/libwrapper_tplus.lib(DisplayFooter.o)
 .note.GNU-stack
                0x00000000        0x0 C:/Program Files/TeliumSDK/SDK11.16.8.02/SDKTPLUS/HW_TETRA/gnu_473/lib/Platform/libwrapper_tplus.lib(DisplayHeader.o)
 .note.GNU-stack
                0x00000000        0x0 C:/Program Files/TeliumSDK/SDK11.16.8.02/SDKTPLUS/HW_TETRA/gnu_473/lib/Platform/libwrapper_tplus.lib(DisplayLeds.o)
 .note.GNU-stack
                0x00000000        0x0 C:/Program Files/TeliumSDK/SDK11.16.8.02/SDKTPLUS/HW_TETRA/gnu_473/lib/Platform/libwrapper_tplus.lib(IsFooter.o)
 .note.GNU-stack
                0x00000000        0x0 C:/Program Files/TeliumSDK/SDK11.16.8.02/SDKTPLUS/HW_TETRA/gnu_473/lib/Platform/libwrapper_tplus.lib(IsHeader.o)
 .note.GNU-stack
                0x00000000        0x0 C:/Program Files/TeliumSDK/SDK11.16.8.02/SDKTPLUS/HW_TETRA/gnu_473/lib/Platform/libwrapper_tplus.lib(Telium_Exit.o)
 .note.GNU-stack
                0x00000000        0x0 C:/Program Files/TeliumSDK/SDK11.16.8.02/SDKTPLUS/HW_TETRA/gnu_473/lib/Platform/libwrapper_tplus.lib(upload_diagnostic_txt.o)
 .note.GNU-stack
                0x00000000        0x0 C:/Program Files/TeliumSDK/SDK11.16.8.02/SDKTPLUS/HW_TETRA/gnu_473/lib/Platform/libwrapper_tplus.lib(emulationtp1.o)
 .note.GNU-stack
                0x00000000        0x0 C:/Program Files/TeliumSDK/SDK11.16.8.02/SDKTPLUS/HW_TETRA/gnu_473/lib/Platform/libwrapper_tplus.lib(TM_InitContexteGraphique.o)
 .note.GNU-stack
                0x00000000        0x0 C:/Program Files/TeliumSDK/SDK11.16.8.02/SDKTPLUS/HW_TETRA/gnu_473/lib/Platform/libwrapper_tplus.lib(extensttrois9.o)
 .note.GNU-stack
                0x00000000        0x0 C:/Program Files/TeliumSDK/SDK11.16.8.02/SDKTPLUS/HW_TETRA/gnu_473/lib/Platform/libwrapper_tplus.lib(toolstp1.o)
 .note.GNU-stack
                0x00000000        0x0 C:/Program Files/TeliumSDK/SDK11.16.8.02/SDKTPLUS/HW_TETRA/gnu_473/lib/Platform/libwrapper_tplus.lib(wrappertp1.o)
 .note.GNU-stack
                0x00000000        0x0 C:/Program Files/TeliumSDK/SDK11.16.8.02/SDKTPLUS/HW_TETRA/gnu_473/lib/Platform\libSec.a(SEC_ComputeMAC.o)
 .note.GNU-stack
                0x00000000        0x0 C:/Program Files/TeliumSDK/SDK11.16.8.02/SDKTPLUS/HW_TETRA/gnu_473/lib/Platform\libSec.a(SEC_GetConfig.o)
 .note.GNU-stack
                0x00000000        0x0 C:/Program Files/TeliumSDK/SDK11.16.8.02/SDKTPLUS/HW_TETRA/gnu_473/lib/Platform\libSec.a(SEC_Iso9564.o)
 .note.GNU-stack
                0x00000000        0x0 C:/Program Files/TeliumSDK/SDK11.16.8.02/SDKTPLUS/HW_TETRA/gnu_473/lib/Platform\libSec.a(SEC_isSecretArea.o)
 .note.GNU-stack
                0x00000000        0x0 C:/Program Files/TeliumSDK/SDK11.16.8.02/SDKTPLUS/HW_TETRA/gnu_473/lib/Platform\libSec.a(SEC_KeyVerify.o)
 .note.GNU-stack
                0x00000000        0x0 C:/Program Files/TeliumSDK/SDK11.16.8.02/SDKTPLUS/HW_TETRA/gnu_473/lib/Platform\libSec.a(SEC_listSecureId.o)
 .note.GNU-stack
                0x00000000        0x0 C:/Program Files/TeliumSDK/SDK11.16.8.02/SDKTPLUS/HW_TETRA/gnu_473/lib/Platform\libSec.a(SEC_listTLVKeys.o)
 .note.GNU-stack
                0x00000000        0x0 C:/Program Files/TeliumSDK/SDK11.16.8.02/SDKTPLUS/HW_TETRA/gnu_473/lib/Platform\libSec.a(SEC_LoadKey.o)
 .note.GNU-stack
                0x00000000        0x0 C:/Program Files/TeliumSDK/SDK11.16.8.02/SDKTPLUS/HW_TETRA/gnu_473/lib/Platform\libSec.a(SEC_PinEntry.o)
 .note.GNU-stack
                0x00000000        0x0 C:/Program Files/TeliumSDK/SDK11.16.8.02/SDKTPLUS/HW_TETRA/gnu_473/lib/Platform\libSec.a(SEC_PinEntryInit.o)
 .note.GNU-stack
                0x00000000        0x0 C:/Program Files/TeliumSDK/SDK11.16.8.02/SDKTPLUS/HW_TETRA/gnu_473/lib/Platform\libSec.a(SEC_SetConfig.o)
 .note.GNU-stack
                0x00000000        0x0 C:/Program Files/TeliumSDK/SDK11.16.8.02/SDKTPLUS/HW_TETRA/gnu_473/lib/Platform\libSec.a(Telium3.o)
 .note.GNU-stack
                0x00000000        0x0 C:/Program Files/TeliumSDK/SDK11.16.8.02/SDKTPLUS/HW_TETRA/gnu_473/lib/Platform\libSec.a(LIBSECV2_asm_link.o)
 .note.GNU-stack
                0x00000000        0x0 C:/Program Files/TeliumSDK/SDK11.16.8.02/SDKTPLUS/HW_TETRA/gnu_473/lib/Platform\libSec.a(LIBSECV2_link.o)
 .note.GNU-stack
                0x00000000        0x0 C:/Program Files/TeliumSDK/SDK11.16.8.02/SDKTPLUS/HW_TETRA/gnu_473/lib/Platform\libGRAPHICLIB.a(GL_Button_Create.o)
 .note.GNU-stack
                0x00000000        0x0 C:/Program Files/TeliumSDK/SDK11.16.8.02/SDKTPLUS/HW_TETRA/gnu_473/lib/Platform\libGRAPHICLIB.a(GL_Dialog_Amount.o)
 .note.GNU-stack
                0x00000000        0x0 C:/Program Files/TeliumSDK/SDK11.16.8.02/SDKTPLUS/HW_TETRA/gnu_473/lib/Platform\libGRAPHICLIB.a(GL_Dialog_Choice.o)
 .note.GNU-stack
                0x00000000        0x0 C:/Program Files/TeliumSDK/SDK11.16.8.02/SDKTPLUS/HW_TETRA/gnu_473/lib/Platform\libGRAPHICLIB.a(GL_Dialog_Menu.o)
 .note.GNU-stack
                0x00000000        0x0 C:/Program Files/TeliumSDK/SDK11.16.8.02/SDKTPLUS/HW_TETRA/gnu_473/lib/Platform\libGRAPHICLIB.a(GL_Dialog_Message.o)
 .note.GNU-stack
                0x00000000        0x0 C:/Program Files/TeliumSDK/SDK11.16.8.02/SDKTPLUS/HW_TETRA/gnu_473/lib/Platform\libGRAPHICLIB.a(GL_Dialog_Password.o)
 .note.GNU-stack
                0x00000000        0x0 C:/Program Files/TeliumSDK/SDK11.16.8.02/SDKTPLUS/HW_TETRA/gnu_473/lib/Platform\libGRAPHICLIB.a(GL_Dialog_Progress.o)
 .note.GNU-stack
                0x00000000        0x0 C:/Program Files/TeliumSDK/SDK11.16.8.02/SDKTPLUS/HW_TETRA/gnu_473/lib/Platform\libGRAPHICLIB.a(GL_Dialog_Text.o)
 .note.GNU-stack
                0x00000000        0x0 C:/Program Files/TeliumSDK/SDK11.16.8.02/SDKTPLUS/HW_TETRA/gnu_473/lib/Platform\libGRAPHICLIB.a(GL_Dialog_VirtualKeyboard.o)
 .note.GNU-stack
                0x00000000        0x0 C:/Program Files/TeliumSDK/SDK11.16.8.02/SDKTPLUS/HW_TETRA/gnu_473/lib/Platform\libGRAPHICLIB.a(GL_Document_Create.o)
 .note.GNU-stack
                0x00000000        0x0 C:/Program Files/TeliumSDK/SDK11.16.8.02/SDKTPLUS/HW_TETRA/gnu_473/lib/Platform\libGRAPHICLIB.a(GL_Document_Print.o)
 .note.GNU-stack
                0x00000000        0x0 C:/Program Files/TeliumSDK/SDK11.16.8.02/SDKTPLUS/HW_TETRA/gnu_473/lib/Platform\libGRAPHICLIB.a(GL_Drawing_Clear.o)
 .note.GNU-stack
                0x00000000        0x0 C:/Program Files/TeliumSDK/SDK11.16.8.02/SDKTPLUS/HW_TETRA/gnu_473/lib/Platform\libGRAPHICLIB.a(GL_Drawing_Create.o)
 .note.GNU-stack
                0x00000000        0x0 C:/Program Files/TeliumSDK/SDK11.16.8.02/SDKTPLUS/HW_TETRA/gnu_473/lib/Platform\libGRAPHICLIB.a(GL_Drawing_DrawEllipse.o)
 .note.GNU-stack
                0x00000000        0x0 C:/Program Files/TeliumSDK/SDK11.16.8.02/SDKTPLUS/HW_TETRA/gnu_473/lib/Platform\libGRAPHICLIB.a(GL_Drawing_DrawLine.o)
 .note.GNU-stack
                0x00000000        0x0 C:/Program Files/TeliumSDK/SDK11.16.8.02/SDKTPLUS/HW_TETRA/gnu_473/lib/Platform\libGRAPHICLIB.a(GL_Drawing_DrawRect.o)
 .note.GNU-stack
                0x00000000        0x0 C:/Program Files/TeliumSDK/SDK11.16.8.02/SDKTPLUS/HW_TETRA/gnu_473/lib/Platform\libGRAPHICLIB.a(GL_Drawing_DrawText.o)
 .note.GNU-stack
                0x00000000        0x0 C:/Program Files/TeliumSDK/SDK11.16.8.02/SDKTPLUS/HW_TETRA/gnu_473/lib/Platform\libGRAPHICLIB.a(GL_Drawing_SetBrush.o)
 .note.GNU-stack
                0x00000000        0x0 C:/Program Files/TeliumSDK/SDK11.16.8.02/SDKTPLUS/HW_TETRA/gnu_473/lib/Platform\libGRAPHICLIB.a(GL_Drawing_SetFont.o)
 .note.GNU-stack
                0x00000000        0x0 C:/Program Files/TeliumSDK/SDK11.16.8.02/SDKTPLUS/HW_TETRA/gnu_473/lib/Platform\libGRAPHICLIB.a(GL_Drawing_SetPen.o)
 .note.GNU-stack
                0x00000000        0x0 C:/Program Files/TeliumSDK/SDK11.16.8.02/SDKTPLUS/HW_TETRA/gnu_473/lib/Platform\libGRAPHICLIB.a(GL_GraphicLib_BindSingleKey.o)
 .note.GNU-stack
                0x00000000        0x0 C:/Program Files/TeliumSDK/SDK11.16.8.02/SDKTPLUS/HW_TETRA/gnu_473/lib/Platform\libGRAPHICLIB.a(GL_GraphicLib_Create.o)
 .note.GNU-stack
                0x00000000        0x0 C:/Program Files/TeliumSDK/SDK11.16.8.02/SDKTPLUS/HW_TETRA/gnu_473/lib/Platform\libGRAPHICLIB.a(GL_GraphicLib_IsTouchPresent.o)
 .note.GNU-stack
                0x00000000        0x0 C:/Program Files/TeliumSDK/SDK11.16.8.02/SDKTPLUS/HW_TETRA/gnu_473/lib/Platform\libGRAPHICLIB.a(GL_GraphicLib_SetCharset.o)
 .note.GNU-stack
                0x00000000        0x0 C:/Program Files/TeliumSDK/SDK11.16.8.02/SDKTPLUS/HW_TETRA/gnu_473/lib/Platform\libGRAPHICLIB.a(GL_GraphicLib_UnbindKey.o)
 .note.GNU-stack
                0x00000000        0x0 C:/Program Files/TeliumSDK/SDK11.16.8.02/SDKTPLUS/HW_TETRA/gnu_473/lib/Platform\libGRAPHICLIB.a(GL_Label_Create.o)
 .note.GNU-stack
                0x00000000        0x0 C:/Program Files/TeliumSDK/SDK11.16.8.02/SDKTPLUS/HW_TETRA/gnu_473/lib/Platform\libGRAPHICLIB.a(GL_Layout_Create.o)
 .note.GNU-stack
                0x00000000        0x0 C:/Program Files/TeliumSDK/SDK11.16.8.02/SDKTPLUS/HW_TETRA/gnu_473/lib/Platform\libGRAPHICLIB.a(GL_Message_GetKey.o)
 .note.GNU-stack
                0x00000000        0x0 C:/Program Files/TeliumSDK/SDK11.16.8.02/SDKTPLUS/HW_TETRA/gnu_473/lib/Platform\libGRAPHICLIB.a(GL_Message_GetWidget.o)
 .note.GNU-stack
                0x00000000        0x0 C:/Program Files/TeliumSDK/SDK11.16.8.02/SDKTPLUS/HW_TETRA/gnu_473/lib/Platform\libGRAPHICLIB.a(GL_Message_SetResult.o)
 .note.GNU-stack
                0x00000000        0x0 C:/Program Files/TeliumSDK/SDK11.16.8.02/SDKTPLUS/HW_TETRA/gnu_473/lib/Platform\libGRAPHICLIB.a(GL_Message_SetUserData.o)
 .note.GNU-stack
                0x00000000        0x0 C:/Program Files/TeliumSDK/SDK11.16.8.02/SDKTPLUS/HW_TETRA/gnu_473/lib/Platform\libGRAPHICLIB.a(GL_Picture_Create.o)
 .note.GNU-stack
                0x00000000        0x0 C:/Program Files/TeliumSDK/SDK11.16.8.02/SDKTPLUS/HW_TETRA/gnu_473/lib/Platform\libGRAPHICLIB.a(GL_Print_Create.o)
 .note.GNU-stack
                0x00000000        0x0 C:/Program Files/TeliumSDK/SDK11.16.8.02/SDKTPLUS/HW_TETRA/gnu_473/lib/Platform\libGRAPHICLIB.a(GL_Timer_Create.o)
 .note.GNU-stack
                0x00000000        0x0 C:/Program Files/TeliumSDK/SDK11.16.8.02/SDKTPLUS/HW_TETRA/gnu_473/lib/Platform\libGRAPHICLIB.a(GL_Timer_SetInterval.o)
 .note.GNU-stack
                0x00000000        0x0 C:/Program Files/TeliumSDK/SDK11.16.8.02/SDKTPLUS/HW_TETRA/gnu_473/lib/Platform\libGRAPHICLIB.a(GL_Timer_Stop.o)
 .note.GNU-stack
                0x00000000        0x0 C:/Program Files/TeliumSDK/SDK11.16.8.02/SDKTPLUS/HW_TETRA/gnu_473/lib/Platform\libGRAPHICLIB.a(GL_Widget_Destroy.o)
 .note.GNU-stack
                0x00000000        0x0 C:/Program Files/TeliumSDK/SDK11.16.8.02/SDKTPLUS/HW_TETRA/gnu_473/lib/Platform\libGRAPHICLIB.a(GL_Widget_GetUserData.o)
 .note.GNU-stack
                0x00000000        0x0 C:/Program Files/TeliumSDK/SDK11.16.8.02/SDKTPLUS/HW_TETRA/gnu_473/lib/Platform\libGRAPHICLIB.a(GL_Widget_RegisterCallback.o)
 .note.GNU-stack
                0x00000000        0x0 C:/Program Files/TeliumSDK/SDK11.16.8.02/SDKTPLUS/HW_TETRA/gnu_473/lib/Platform\libGRAPHICLIB.a(GL_Widget_SearchId.o)
 .note.GNU-stack
                0x00000000        0x0 C:/Program Files/TeliumSDK/SDK11.16.8.02/SDKTPLUS/HW_TETRA/gnu_473/lib/Platform\libGRAPHICLIB.a(GL_Widget_SetBackAlign.o)
 .note.GNU-stack
                0x00000000        0x0 C:/Program Files/TeliumSDK/SDK11.16.8.02/SDKTPLUS/HW_TETRA/gnu_473/lib/Platform\libGRAPHICLIB.a(GL_Widget_SetBackColor.o)
 .note.GNU-stack
                0x00000000        0x0 C:/Program Files/TeliumSDK/SDK11.16.8.02/SDKTPLUS/HW_TETRA/gnu_473/lib/Platform\libGRAPHICLIB.a(GL_Widget_SetBorders.o)
 .note.GNU-stack
                0x00000000        0x0 C:/Program Files/TeliumSDK/SDK11.16.8.02/SDKTPLUS/HW_TETRA/gnu_473/lib/Platform\libGRAPHICLIB.a(GL_Widget_SetExpand.o)
 .note.GNU-stack
                0x00000000        0x0 C:/Program Files/TeliumSDK/SDK11.16.8.02/SDKTPLUS/HW_TETRA/gnu_473/lib/Platform\libGRAPHICLIB.a(GL_Widget_SetFocusable.o)
 .note.GNU-stack
                0x00000000        0x0 C:/Program Files/TeliumSDK/SDK11.16.8.02/SDKTPLUS/HW_TETRA/gnu_473/lib/Platform\libGRAPHICLIB.a(GL_Widget_SetFontName.o)
 .note.GNU-stack
                0x00000000        0x0 C:/Program Files/TeliumSDK/SDK11.16.8.02/SDKTPLUS/HW_TETRA/gnu_473/lib/Platform\libGRAPHICLIB.a(GL_Widget_SetFontScale.o)
 .note.GNU-stack
                0x00000000        0x0 C:/Program Files/TeliumSDK/SDK11.16.8.02/SDKTPLUS/HW_TETRA/gnu_473/lib/Platform\libGRAPHICLIB.a(GL_Widget_SetFontStyle.o)
 .note.GNU-stack
                0x00000000        0x0 C:/Program Files/TeliumSDK/SDK11.16.8.02/SDKTPLUS/HW_TETRA/gnu_473/lib/Platform\libGRAPHICLIB.a(GL_Widget_SetForeColor.o)
 .note.GNU-stack
                0x00000000        0x0 C:/Program Files/TeliumSDK/SDK11.16.8.02/SDKTPLUS/HW_TETRA/gnu_473/lib/Platform\libGRAPHICLIB.a(GL_Widget_SetGrow.o)
 .note.GNU-stack
                0x00000000        0x0 C:/Program Files/TeliumSDK/SDK11.16.8.02/SDKTPLUS/HW_TETRA/gnu_473/lib/Platform\libGRAPHICLIB.a(GL_Widget_SetId.o)
 .note.GNU-stack
                0x00000000        0x0 C:/Program Files/TeliumSDK/SDK11.16.8.02/SDKTPLUS/HW_TETRA/gnu_473/lib/Platform\libGRAPHICLIB.a(GL_Widget_SetItem.o)
 .note.GNU-stack
                0x00000000        0x0 C:/Program Files/TeliumSDK/SDK11.16.8.02/SDKTPLUS/HW_TETRA/gnu_473/lib/Platform\libGRAPHICLIB.a(GL_Widget_SetMargins.o)
 .note.GNU-stack
                0x00000000        0x0 C:/Program Files/TeliumSDK/SDK11.16.8.02/SDKTPLUS/HW_TETRA/gnu_473/lib/Platform\libGRAPHICLIB.a(GL_Widget_SetMinSize.o)
 .note.GNU-stack
                0x00000000        0x0 C:/Program Files/TeliumSDK/SDK11.16.8.02/SDKTPLUS/HW_TETRA/gnu_473/lib/Platform\libGRAPHICLIB.a(GL_Widget_SetShortcut.o)
 .note.GNU-stack
                0x00000000        0x0 C:/Program Files/TeliumSDK/SDK11.16.8.02/SDKTPLUS/HW_TETRA/gnu_473/lib/Platform\libGRAPHICLIB.a(GL_Widget_SetShrink.o)
 .note.GNU-stack
                0x00000000        0x0 C:/Program Files/TeliumSDK/SDK11.16.8.02/SDKTPLUS/HW_TETRA/gnu_473/lib/Platform\libGRAPHICLIB.a(GL_Widget_SetSize.o)
 .note.GNU-stack
                0x00000000        0x0 C:/Program Files/TeliumSDK/SDK11.16.8.02/SDKTPLUS/HW_TETRA/gnu_473/lib/Platform\libGRAPHICLIB.a(GL_Widget_SetSource.o)
 .note.GNU-stack
                0x00000000        0x0 C:/Program Files/TeliumSDK/SDK11.16.8.02/SDKTPLUS/HW_TETRA/gnu_473/lib/Platform\libGRAPHICLIB.a(GL_Widget_SetText.o)
 .note.GNU-stack
                0x00000000        0x0 C:/Program Files/TeliumSDK/SDK11.16.8.02/SDKTPLUS/HW_TETRA/gnu_473/lib/Platform\libGRAPHICLIB.a(GL_Widget_SetTextAlign.o)
 .note.GNU-stack
                0x00000000        0x0 C:/Program Files/TeliumSDK/SDK11.16.8.02/SDKTPLUS/HW_TETRA/gnu_473/lib/Platform\libGRAPHICLIB.a(GL_Widget_SetTextPaddings.o)
 .note.GNU-stack
                0x00000000        0x0 C:/Program Files/TeliumSDK/SDK11.16.8.02/SDKTPLUS/HW_TETRA/gnu_473/lib/Platform\libGRAPHICLIB.a(GL_Widget_SetTransformation.o)
 .note.GNU-stack
                0x00000000        0x0 C:/Program Files/TeliumSDK/SDK11.16.8.02/SDKTPLUS/HW_TETRA/gnu_473/lib/Platform\libGRAPHICLIB.a(GL_Widget_SetVisible.o)
 .note.GNU-stack
                0x00000000        0x0 C:/Program Files/TeliumSDK/SDK11.16.8.02/SDKTPLUS/HW_TETRA/gnu_473/lib/Platform\libGRAPHICLIB.a(GL_Widget_SetWrap.o)
 .note.GNU-stack
                0x00000000        0x0 C:/Program Files/TeliumSDK/SDK11.16.8.02/SDKTPLUS/HW_TETRA/gnu_473/lib/Platform\libGRAPHICLIB.a(GL_Widget_UnregisterCallback.o)
 .note.GNU-stack
                0x00000000        0x0 C:/Program Files/TeliumSDK/SDK11.16.8.02/SDKTPLUS/HW_TETRA/gnu_473/lib/Platform\libGRAPHICLIB.a(GL_Window_Create.o)
 .note.GNU-stack
                0x00000000        0x0 C:/Program Files/TeliumSDK/SDK11.16.8.02/SDKTPLUS/HW_TETRA/gnu_473/lib/Platform\libGRAPHICLIB.a(GL_Window_Dispatch.o)
 .note.GNU-stack
                0x00000000        0x0 C:/Program Files/TeliumSDK/SDK11.16.8.02/SDKTPLUS/HW_TETRA/gnu_473/lib/Platform\libGRAPHICLIB.a(GL_Window_GetResult.o)
 .note.GNU-stack
                0x00000000        0x0 C:/Program Files/TeliumSDK/SDK11.16.8.02/SDKTPLUS/HW_TETRA/gnu_473/lib/Platform\libGRAPHICLIB.a(GL_Window_MainLoop.o)
 .note.GNU-stack
                0x00000000        0x0 C:/Program Files/TeliumSDK/SDK11.16.8.02/SDKTPLUS/HW_TETRA/gnu_473/lib/Platform\libGRAPHICLIB.a(GL_link.o)
 .note.GNU-stack
                0x00000000        0x0 C:/Program Files/TeliumSDK/SDK11.16.8.02/SDKTPLUS/HW_TETRA/gnu_473/lib/Platform\libGRAPHICLIB.a(gl_asm_link.o)
 .note.GNU-stack
                0x00000000        0x0 C:/Program Files/TeliumSDK/SDK11.16.8.02/SDKTPLUS/HW_TETRA/gnu_473/lib/Platform\libOSLAYER.a(OSL_Dll_Close.o)
 .note.GNU-stack
                0x00000000        0x0 C:/Program Files/TeliumSDK/SDK11.16.8.02/SDKTPLUS/HW_TETRA/gnu_473/lib/Platform\libOSLAYER.a(OSL_Dll_GetSymbolByName.o)
 .note.GNU-stack
                0x00000000        0x0 C:/Program Files/TeliumSDK/SDK11.16.8.02/SDKTPLUS/HW_TETRA/gnu_473/lib/Platform\libOSLAYER.a(OSL_Dll_IsPresent.o)
 .note.GNU-stack
                0x00000000        0x0 C:/Program Files/TeliumSDK/SDK11.16.8.02/SDKTPLUS/HW_TETRA/gnu_473/lib/Platform\libOSLAYER.a(OSL_Dll_Open.o)
 .note.GNU-stack
                0x00000000        0x0 C:/Program Files/TeliumSDK/SDK11.16.8.02/SDKTPLUS/HW_TETRA/gnu_473/lib/Platform\libOSLAYER.a(OSL_Dll_OpenByAppliType.o)
 .note.GNU-stack
                0x00000000        0x0 C:/Program Files/TeliumSDK/SDK11.16.8.02/SDKTPLUS/HW_TETRA/gnu_473/lib/Platform\libOSLAYER.a(OSL_TimeStp_ElapsedMs.o)
 .note.GNU-stack
                0x00000000        0x0 C:/Program Files/TeliumSDK/SDK11.16.8.02/SDKTPLUS/HW_TETRA/gnu_473/lib/Platform\libOSLAYER.a(OSL_TimeStp_Now.o)
 .note.GNU-stack
                0x00000000        0x0 C:/Program Files/TeliumSDK/SDK11.16.8.02/SDKTPLUS/HW_TETRA/gnu_473/lib/Platform\libgtl.a(GTL_StdTimer.o)
 .note.GNU-stack
                0x00000000        0x0 E:/IngeDev_8.18.0.5/toolchains/gnuArm47v7a-4/arm-islero-linux-gnueabi/sysroot/usr/lib/libc_nonshared.a(elf-init.oS)
 .note.GNU-stack
                0x00000000        0x0 E:/IngeDev_8.18.0.5/toolchains/gnuArm47v7a-4/lib/gcc/arm-islero-linux-gnueabi/4.7.3\libgcc.a(_udivsi3.o)
 .note.GNU-stack
                0x00000000        0x0 E:/IngeDev_8.18.0.5/toolchains/gnuArm47v7a-4/lib/gcc/arm-islero-linux-gnueabi/4.7.3\libgcc.a(_dvmd_lnx.o)
 .note.GNU-stack
                0x00000000        0x0 C:/Program Files/TeliumSDK/SDK11.16.8.02/SDKTPLUS/HW_TETRA/gnu_473/lib/Platform/libwrapper_tplus.lib(TMT_Retrieve_Clock.o)
 .note.GNU-stack
                0x00000000        0x0 E:/IngeDev_8.18.0.5/toolchains/gnuArm47v7a-4/lib/gcc/arm-islero-linux-gnueabi/4.7.3/crtend.o
 .note.GNU-stack
                0x00000000        0x0 E:/IngeDev_8.18.0.5/toolchains/gnuArm47v7a-4/arm-islero-linux-gnueabi/sysroot/usr/lib/crtn.o
 .note.GNU-stack
                0x00000000        0x0 C:/Program Files/TeliumSDK/SDK11.16.8.02/SDKTPLUS/HW_TETRA/gnu_473/startfiles/stapp_legacyexitpoint.o

Memory Configuration

Name             Origin             Length             Attributes
*default*        0x00000000         0xffffffff

Linker script and memory map

LOAD E:/IngeDev_8.18.0.5/toolchains/gnuArm47v7a-4/arm-islero-linux-gnueabi/sysroot/usr/lib/crti.o
LOAD E:/IngeDev_8.18.0.5/toolchains/gnuArm47v7a-4/arm-islero-linux-gnueabi/sysroot/usr/lib/crt1.o
LOAD E:/IngeDev_8.18.0.5/toolchains/gnuArm47v7a-4/lib/gcc/arm-islero-linux-gnueabi/4.7.3/crtbegin.o
LOAD C:/Program Files/TeliumSDK/SDK11.16.8.02/SDKTPLUS/HW_TETRA/gnu_473/startfiles/startup_tplusentry.o
LOAD Obj/GNU_ARM_DEBUG_TETRA/Main.o
LOAD Obj/GNU_ARM_DEBUG_TETRA/Entry.o
LOAD Obj/GNU_ARM_DEBUG_TETRA/Menu.o
LOAD Obj/GNU_ARM_DEBUG_TETRA/ComGPRS.o
LOAD Obj/GNU_ARM_DEBUG_TETRA/Goal.o
LOAD Obj/GNU_ARM_DEBUG_TETRA/Mapapp.o
LOAD Obj/GNU_ARM_DEBUG_TETRA/FMG.o
LOAD Obj/GNU_ARM_DEBUG_TETRA/Utility.o
LOAD Obj/GNU_ARM_DEBUG_TETRA/Timer.o
LOAD Obj/GNU_ARM_DEBUG_TETRA/iso8583.o
LOAD Obj/GNU_ARM_DEBUG_TETRA/transaction.o
LOAD Obj/GNU_ARM_DEBUG_TETRA/globals.o
LOAD Obj/GNU_ARM_DEBUG_TETRA/magnetic.o
LOAD Obj/GNU_ARM_DEBUG_TETRA/schemes.o
LOAD Obj/GNU_ARM_DEBUG_TETRA/amount.o
START GROUP
LOAD C:/Users/bkirii/Desktop/c/base_test_14/TRAINAPP/lib/FMG_TPlus.a
LOAD C:/Program Files/TeliumSDK/SDK11.16.8.02/SDKTPLUS/HW_TETRA/gnu_473/lib/Platform/libSecurityTp.lib
LOAD C:/Program Files/TeliumSDK/SDK11.16.8.02/SDKTPLUS/HW_TETRA/gnu_473/lib/Platform/libpackip.lib
LOAD C:/Program Files/TeliumSDK/SDK11.16.8.02/SDKTPLUS/HW_TETRA/gnu_473/lib/Platform/LIBGRAPHICS.T3L
LOAD C:/Program Files/TeliumSDK/SDK11.16.8.02/SDKTPLUS/HW_TETRA/gnu_473/lib/Platform/SPMCI_TPlus.lib
LOAD C:/Program Files/TeliumSDK/SDK11.16.8.02/SDKTPLUS/HW_TETRA/gnu_473/lib/Platform/ExtraGPRS.lib
LOAD C:/Program Files/TeliumSDK/SDK11.16.8.02/SDKTPLUS/HW_TETRA/gnu_473/lib/Platform/LIBTPLUSMANAGER.LIB
LOAD C:/Program Files/TeliumSDK/SDK11.16.8.02/SDKTPLUS/HW_TETRA/gnu_473/lib/Platform/LIBOS.T3L
LOAD C:/Program Files/TeliumSDK/SDK11.16.8.02/SDKTPLUS/HW_TETRA/gnu_473/lib/Platform/liblinklayer.lib
LOAD C:/Program Files/TeliumSDK/SDK11.16.8.02/SDKTPLUS/HW_TETRA/gnu_473/lib/Platform/SQLITELIB.a
LOAD C:/Program Files/TeliumSDK/SDK11.16.8.02/SDKTPLUS/HW_TETRA/gnu_473/lib/Platform/LIBSERVICE.T3L
LOAD C:/Program Files/TeliumSDK/SDK11.16.8.02/SDKTPLUS/HW_TETRA/gnu_473/lib/Platform/LIBSVCDIRPX.T3L
LOAD C:/Program Files/TeliumSDK/SDK11.16.8.02/SDKTPLUS/HW_TETRA/gnu_473/lib/Platform/LIBSVCDIRSK.T3L
LOAD C:/Program Files/TeliumSDK/SDK11.16.8.02/SDKTPLUS/HW_TETRA/gnu_473/lib/Platform/libSecurityTp.lib
LOAD C:/Program Files/TeliumSDK/SDK11.16.8.02/SDKTPLUS/HW_TETRA/gnu_473/lib/Platform/libbluetooth.lib
LOAD C:/Program Files/TeliumSDK/SDK11.16.8.02/SDKTPLUS/HW_TETRA/gnu_473/lib/Platform/libwifi.lib
LOAD C:/Program Files/TeliumSDK/SDK11.16.8.02/SDKTPLUS/HW_TETRA/gnu_473/lib/Platform/libpackip.lib
LOAD C:/Program Files/TeliumSDK/SDK11.16.8.02/SDKTPLUS/HW_TETRA/gnu_473/lib/Platform/libTmsCall_TPlus.lib
LOAD C:/Program Files/TeliumSDK/SDK11.16.8.02/SDKTPLUS/HW_TETRA/gnu_473/lib/Platform/SPMCI_TPlus.lib
LOAD C:/Program Files/TeliumSDK/SDK11.16.8.02/SDKTPLUS/HW_TETRA/gnu_473/lib/Platform/ExtraGPRS.lib
LOAD C:/Program Files/TeliumSDK/SDK11.16.8.02/SDKTPLUS/HW_TETRA/gnu_473/lib/Platform/libndef.lib
LOAD C:/Program Files/TeliumSDK/SDK11.16.8.02/SDKTPLUS/HW_TETRA/gnu_473/lib/Platform/TlvTree.lib
LOAD C:/Program Files/TeliumSDK/SDK11.16.8.02/SDKTPLUS/HW_TETRA/gnu_473/lib/Platform/libwrapper_tplus.lib
LOAD C:/Program Files/TeliumSDK/SDK11.16.8.02/SDKTPLUS/HW_TETRA/gnu_473/lib/Platform/LIBTPLUSMANAGER.LIB
LOAD C:/Program Files/TeliumSDK/SDK11.16.8.02/SDKTPLUS/HW_TETRA/gnu_473/lib/Platform/LIBPROTOBUF.T3L
LOAD C:/Program Files/TeliumSDK/SDK11.16.8.02/SDKTPLUS/HW_TETRA/gnu_473/lib/Platform/LIBOS.T3L
LOAD C:/Program Files/TeliumSDK/SDK11.16.8.02/SDKTPLUS/HW_TETRA/gnu_473/lib/Platform/liblinklayer.lib
LOAD C:/Program Files/TeliumSDK/SDK11.16.8.02/SDKTPLUS/HW_TETRA/gnu_473/lib/Platform/SQLITELIB.a
LOAD C:/Program Files/TeliumSDK/SDK11.16.8.02/SDKTPLUS/HW_TETRA/gnu_473/lib/Platform/LIBSERVICE.T3L
LOAD C:/Program Files/TeliumSDK/SDK11.16.8.02/SDKTPLUS/HW_TETRA/gnu_473/lib/Platform/LIBSVCDIRPX.T3L
LOAD C:/Program Files/TeliumSDK/SDK11.16.8.02/SDKTPLUS/HW_TETRA/gnu_473/lib/Platform/LIBSVCDIRSK.T3L
LOAD C:/Program Files/TeliumSDK/SDK11.16.8.02/SDKTPLUS/HW_TETRA/gnu_473/lib/Platform/LIBGRAPHICS.T3L
LOAD C:/Program Files/TeliumSDK/SDK11.16.8.02/SDKTPLUS/HW_TETRA/gnu_473/lib/Platform\libSec.a
LOAD C:/Program Files/TeliumSDK/SDK11.16.8.02/SDKTPLUS/HW_TETRA/gnu_473/lib/Platform\libGRAPHICLIB.a
LOAD C:/Program Files/TeliumSDK/SDK11.16.8.02/SDKTPLUS/HW_TETRA/gnu_473/lib/Platform\libOSLAYER.a
LOAD C:/Program Files/TeliumSDK/SDK11.16.8.02/SDKTPLUS/HW_TETRA/gnu_473/lib/OS/libtelinux.so
LOAD C:/Program Files/TeliumSDK/SDK11.16.8.02/SDKTPLUS/HW_TETRA/gnu_473/lib/Platform\libSec.a
LOAD C:/Program Files/TeliumSDK/SDK11.16.8.02/SDKTPLUS/HW_TETRA/gnu_473/lib/Platform\libtpass.a
LOAD C:/Program Files/TeliumSDK/SDK11.16.8.02/SDKTPLUS/HW_TETRA/gnu_473/lib/Platform\libgtl.a
LOAD C:/Program Files/TeliumSDK/SDK11.16.8.02/SDKTPLUS/HW_TETRA/gnu_473/lib/Platform\libOSLAYER.a
LOAD C:/Program Files/TeliumSDK/SDK11.16.8.02/SDKTPLUS/HW_TETRA/gnu_473/lib/Platform\libmifare.a
LOAD C:/Program Files/TeliumSDK/SDK11.16.8.02/SDKTPLUS/HW_TETRA/gnu_473/lib/OS/libtelinux.so
LOAD C:/Program Files/TeliumSDK/SDK11.16.8.02/SDKTPLUS/HW_TETRA/gnu_473/lib/Platform\libGRAPHICLIB.a
LOAD E:/IngeDev_8.18.0.5/toolchains/gnuArm47v7a-4/arm-islero-linux-gnueabi/sysroot/usr/lib/libc.so
START GROUP
LOAD E:/IngeDev_8.18.0.5/toolchains/gnuArm47v7a-4/arm-islero-linux-gnueabi/sysroot/lib/libc.so.6
LOAD E:/IngeDev_8.18.0.5/toolchains/gnuArm47v7a-4/arm-islero-linux-gnueabi/sysroot/usr/lib/libc_nonshared.a
LOAD E:/IngeDev_8.18.0.5/toolchains/gnuArm47v7a-4/arm-islero-linux-gnueabi/sysroot/lib/ld-linux.so.3
END GROUP
START GROUP
LOAD E:/IngeDev_8.18.0.5/toolchains/gnuArm47v7a-4/arm-islero-linux-gnueabi/sysroot/lib/libc.so.6
LOAD E:/IngeDev_8.18.0.5/toolchains/gnuArm47v7a-4/arm-islero-linux-gnueabi/sysroot/usr/lib/libc_nonshared.a
LOAD E:/IngeDev_8.18.0.5/toolchains/gnuArm47v7a-4/arm-islero-linux-gnueabi/sysroot/lib/ld-linux.so.3
END GROUP
LOAD E:/IngeDev_8.18.0.5/toolchains/gnuArm47v7a-4/lib/gcc/arm-islero-linux-gnueabi/4.7.3\libgcc.a
LOAD E:/IngeDev_8.18.0.5/toolchains/gnuArm47v7a-4/arm-islero-linux-gnueabi/lib/libgcc_s.so
START GROUP
LOAD E:/IngeDev_8.18.0.5/toolchains/gnuArm47v7a-4/arm-islero-linux-gnueabi/lib\libgcc_s.so.1
LOAD E:/IngeDev_8.18.0.5/toolchains/gnuArm47v7a-4/lib/gcc/arm-islero-linux-gnueabi/4.7.3\libgcc.a
END GROUP
START GROUP
LOAD E:/IngeDev_8.18.0.5/toolchains/gnuArm47v7a-4/arm-islero-linux-gnueabi/lib\libgcc_s.so.1
LOAD E:/IngeDev_8.18.0.5/toolchains/gnuArm47v7a-4/lib/gcc/arm-islero-linux-gnueabi/4.7.3\libgcc.a
END GROUP
LOAD E:/IngeDev_8.18.0.5/toolchains/gnuArm47v7a-4/arm-islero-linux-gnueabi/lib/libstdc++.so
END GROUP
LOAD E:/IngeDev_8.18.0.5/toolchains/gnuArm47v7a-4/lib/gcc/arm-islero-linux-gnueabi/4.7.3/crtend.o
LOAD E:/IngeDev_8.18.0.5/toolchains/gnuArm47v7a-4/arm-islero-linux-gnueabi/sysroot/usr/lib/crtn.o
LOAD C:/Program Files/TeliumSDK/SDK11.16.8.02/SDKTPLUS/HW_TETRA/gnu_473/startfiles/stapp_legacyexitpoint.o
                0x00008000                PROVIDE (__executable_start, 0x8000)
                0x00008134                . = (0x8000 + SIZEOF_HEADERS)

.interp         0x00008134       0x13
 *(.interp)
 .interp        0x00008134       0x13 E:/IngeDev_8.18.0.5/toolchains/gnuArm47v7a-4/arm-islero-linux-gnueabi/sysroot/usr/lib/crti.o

.note.ABI-tag   0x00008148       0x20
 .note.ABI-tag  0x00008148       0x20 E:/IngeDev_8.18.0.5/toolchains/gnuArm47v7a-4/arm-islero-linux-gnueabi/sysroot/usr/lib/crt1.o

.note.gnu.build-id
 *(.note.gnu.build-id)

.hash           0x00008168      0x178
 *(.hash)
 .hash          0x00008168      0x178 E:/IngeDev_8.18.0.5/toolchains/gnuArm47v7a-4/arm-islero-linux-gnueabi/sysroot/usr/lib/crti.o

.gnu.hash
 *(.gnu.hash)

.dynsym         0x000082e0      0x370
 *(.dynsym)
 .dynsym        0x000082e0      0x370 E:/IngeDev_8.18.0.5/toolchains/gnuArm47v7a-4/arm-islero-linux-gnueabi/sysroot/usr/lib/crti.o

.dynstr         0x00008650      0x2f9
 *(.dynstr)
 .dynstr        0x00008650      0x2f9 E:/IngeDev_8.18.0.5/toolchains/gnuArm47v7a-4/arm-islero-linux-gnueabi/sysroot/usr/lib/crti.o

.gnu.version    0x0000894a       0x6e
 *(.gnu.version)
 .gnu.version   0x0000894a       0x6e E:/IngeDev_8.18.0.5/toolchains/gnuArm47v7a-4/arm-islero-linux-gnueabi/sysroot/usr/lib/crti.o

.gnu.version_d  0x000089b8        0x0
 *(.gnu.version_d)
 .gnu.version_d
                0x00000000        0x0 E:/IngeDev_8.18.0.5/toolchains/gnuArm47v7a-4/arm-islero-linux-gnueabi/sysroot/usr/lib/crti.o

.gnu.version_r  0x000089b8       0x50
 *(.gnu.version_r)
 .gnu.version_r
                0x000089b8       0x50 E:/IngeDev_8.18.0.5/toolchains/gnuArm47v7a-4/arm-islero-linux-gnueabi/sysroot/usr/lib/crti.o

.rel.dyn        0x00008a08       0x28
 *(.rel.init)
 *(.rel.text .rel.text.* .rel.gnu.linkonce.t.*)
 *(.rel.fini)
 *(.rel.rodata .rel.rodata.* .rel.gnu.linkonce.r.*)
 *(.rel.data.rel.ro* .rel.gnu.linkonce.d.rel.ro.*)
 *(.rel.data .rel.data.* .rel.gnu.linkonce.d.*)
 *(.rel.tdata .rel.tdata.* .rel.gnu.linkonce.td.*)
 *(.rel.tbss .rel.tbss.* .rel.gnu.linkonce.tb.*)
 *(.rel.ctors)
 *(.rel.dtors)
 *(.rel.got)
 .rel.got       0x00008a08       0x20 E:/IngeDev_8.18.0.5/toolchains/gnuArm47v7a-4/arm-islero-linux-gnueabi/sysroot/usr/lib/crti.o
 *(.rel.bss .rel.bss.* .rel.gnu.linkonce.b.*)
 .rel.bss       0x00008a28        0x8 E:/IngeDev_8.18.0.5/toolchains/gnuArm47v7a-4/arm-islero-linux-gnueabi/sysroot/usr/lib/crti.o
                0x00008a30                PROVIDE (__rel_iplt_start, .)
 *(.rel.iplt)
                0x00008a30                PROVIDE (__rel_iplt_end, .)
                0x00008a30                PROVIDE (__rela_iplt_start, .)
                0x00008a30                PROVIDE (__rela_iplt_end, .)

.rela.dyn       0x00008a30        0x0
 *(.rela.init)
 *(.rela.text .rela.text.* .rela.gnu.linkonce.t.*)
 *(.rela.fini)
 *(.rela.rodata .rela.rodata.* .rela.gnu.linkonce.r.*)
 *(.rela.data .rela.data.* .rela.gnu.linkonce.d.*)
 *(.rela.tdata .rela.tdata.* .rela.gnu.linkonce.td.*)
 *(.rela.tbss .rela.tbss.* .rela.gnu.linkonce.tb.*)
 *(.rela.ctors)
 *(.rela.dtors)
 *(.rela.got)
 *(.rela.bss .rela.bss.* .rela.gnu.linkonce.b.*)
                0x00008a30                PROVIDE (__rel_iplt_start, .)
                0x00008a30                PROVIDE (__rel_iplt_end, .)
                0x00008a30                PROVIDE (__rela_iplt_start, .)
 *(.rela.iplt)
                0x00008a30                PROVIDE (__rela_iplt_end, .)

.rel.plt        0x00008a30      0x130
 *(.rel.plt)
 .rel.plt       0x00008a30      0x130 E:/IngeDev_8.18.0.5/toolchains/gnuArm47v7a-4/arm-islero-linux-gnueabi/sysroot/usr/lib/crti.o

.rela.plt
 *(.rela.plt)

.init           0x00008b60        0xc
 *(.init)
 .init          0x00008b60        0x8 E:/IngeDev_8.18.0.5/toolchains/gnuArm47v7a-4/arm-islero-linux-gnueabi/sysroot/usr/lib/crti.o
                0x00008b60                _init
 .init          0x00008b68        0x4 E:/IngeDev_8.18.0.5/toolchains/gnuArm47v7a-4/arm-islero-linux-gnueabi/sysroot/usr/lib/crtn.o

.plt            0x00008b6c      0x1e8
 *(.plt)
 .plt           0x00008b6c      0x1e8 E:/IngeDev_8.18.0.5/toolchains/gnuArm47v7a-4/arm-islero-linux-gnueabi/sysroot/usr/lib/crti.o
                0x00008b80                Odm_AppGetCurrentAppliIdentifier
                0x00008b8c                getpid@@GLIBC_2.4
                0x00008b98                iniparser_getint
                0x00008ba4                atoi@@GLIBC_2.4
                0x00008bb0                Odm_AppGetAppliTypeFromAppId
                0x00008bbc                memset@@GLIBC_2.4
                0x00008bc8                Sap_trace_debug
                0x00008bd4                snprintf@@GLIBC_2.4
                0x00008be0                abort@@GLIBC_2.4
                0x00008bec                pause@@GLIBC_2.4
                0x00008bf8                memmove@@GLIBC_2.4
                0x00008c08                kill@@GLIBC_2.4
                0x00008c14                COREDBG_StackOverFlowSet
                0x00008c20                strcpy@@GLIBC_2.4
                0x00008c2c                iniparser_freedict
                0x00008c38                strcat@@GLIBC_2.4
                0x00008c44                OSL_Logger_Log
                0x00008c50                access@@GLIBC_2.4
                0x00008c60                Stapp_LegacyInstall
                0x00008c6c                raise@@GLIBC_2.4
                0x00008c78                memcpy@@GLIBC_2.4
                0x00008c84                strlen@@GLIBC_2.4
                0x00008c90                Sys_GetMode
                0x00008c9c                Stapp_LegacyInstall_end
                0x00008ca8                OSL_InitFuncAndBranch
                0x00008cb4                sprintf@@GLIBC_2.4
                0x00008cc0                Oem_upload_diagnostic_txt
                0x00008cd0                Stapp_LegacyUninstall
                0x00008cdc                strcmp@@GLIBC_2.4
                0x00008ce8                strncpy@@GLIBC_2.4
                0x00008cf4                memcmp@@GLIBC_2.4
                0x00008d00                strrchr@@GLIBC_2.4
                0x00008d0c                getenv@@GLIBC_2.4
                0x00008d18                __libc_start_main@@GLIBC_2.4
                0x00008d24                vsprintf@@GLIBC_2.4
                0x00008d30                iniparser_load
                0x00008d48                strchr@@GLIBC_2.4

.iplt
 *(.iplt)

.text           0x00008d54    0x197c8
 *(.text.unlikely .text.*_unlikely)
 *(.text.exit .text.exit.*)
 .text.exit     0x00008d54      0x104 C:/Program Files/TeliumSDK/SDK11.16.8.02/SDKTPLUS/HW_TETRA/gnu_473/startfiles/stapp_legacyexitpoint.o
                0x00008d54                telinux_after_main_last
                0x00008d90                telinux_gmon_dump_prepare
 *(.text.startup .text.startup.*)
 .text.startup  0x00008e58       0x14 C:/Program Files/TeliumSDK/SDK11.16.8.02/SDKTPLUS/HW_TETRA/gnu_473/startfiles/startup_tplusentry.o
                0x00008e58                main
                0x00008e68                telinux_before_main_first
 *(.text.hot .text.hot.*)
 *(.text .stub .text.* .gnu.linkonce.t.*)
 .text          0x00008e6c       0x24 E:/IngeDev_8.18.0.5/toolchains/gnuArm47v7a-4/arm-islero-linux-gnueabi/sysroot/usr/lib/crti.o
 .text          0x00008e90       0x3c E:/IngeDev_8.18.0.5/toolchains/gnuArm47v7a-4/arm-islero-linux-gnueabi/sysroot/usr/lib/crt1.o
                0x00008e90                _start
 .text          0x00008ecc       0xd8 E:/IngeDev_8.18.0.5/toolchains/gnuArm47v7a-4/lib/gcc/arm-islero-linux-gnueabi/4.7.3/crtbegin.o
 .text          0x00008fa4       0x14 C:/Program Files/TeliumSDK/SDK11.16.8.02/SDKTPLUS/HW_TETRA/gnu_473/startfiles/startup_tplusentry.o
                0x00008fa4                __stack_chk_fail
 .text          0x00008fb8      0x2c4 Obj/GNU_ARM_DEBUG_TETRA/Main.o
                0x00008fb8                Main
 .text          0x0000927c     0x1368 Obj/GNU_ARM_DEBUG_TETRA/Entry.o
                0x000092bc                give_your_domain
                0x00009328                after_reset
                0x00009674                is_name
                0x00009714                is_state
                0x00009774                idle_message
                0x00009838                more_function
                0x00009878                keyboard_event
                0x00009970                state
                0x00009a60                consult
                0x00009b1c                mcall
                0x00009bd8                is_time_function
                0x00009c38                time_function
                0x00009ca0                is_change_init
                0x00009d44                modif_param
                0x00009ddc                is_evol_pg
                0x00009e3c                is_delete
                0x00009e7c                file_received
                0x0000a020                message_received
                0x0000a0dc                is_card_specific
                0x0000a13c                card_inside
                0x0000a18c                is_for_you_after
                0x0000a32c                debit_non_emv
                0x0000a4a4                give_interface
                0x0000a518                entry
 .text          0x0000a5e4      0x45c Obj/GNU_ARM_DEBUG_TETRA/Menu.o
                0x0000a5e4                menuGoalDisplay
                0x0000a76c                initUIContext
                0x0000a888                releaseUIContext
                0x0000a990                ResetPeripherals
 .text          0x0000aa40     0x2500 Obj/GNU_ARM_DEBUG_TETRA/ComGPRS.o
                0x0000bcc8                PromptGPRS
                0x0000c414                ComGPRS
 .text          0x0000cf40     0x24cc Obj/GNU_ARM_DEBUG_TETRA/Goal.o
                0x0000d0d0                GoalCreateScreen
                0x0000d40c                GoalClrScreen
                0x0000d608                GoalRefreshScreen
                0x0000d640                GoalDspLine
                0x0000d9e8                GoalDspMultiLine
                0x0000dcac                GoalGetKey
                0x0000df70                GoalDestroyScreen
                0x0000dfb0                GoalCreateDrawing
                0x0000e184                GoalClrDrawing
                0x0000e2a4                GoalDrawLine
                0x0000e3ec                GoalDrawRect
                0x0000e54c                GoalDrawEllipse
                0x0000e6ac                GoalDrawText
                0x0000e848                GoalDestroyDrawing
                0x0000e888                GoalCreatePicture
                0x0000ea88                GoalClrPicture
                0x0000ebe8                GoalDspPicture
                0x0000ee98                GoalDestroyPicture
                0x0000eed8                GoalCreateDocument
                0x0000ef50                GoalPrnLine
                0x0000f130                GoalPrnMultiLine
                0x0000f2cc                GoalPrnPicture
                0x0000f374                GoalPrnDocument
                0x0000f3cc                GoalDestroyDocument
 .text          0x0000f40c      0x3dc Obj/GNU_ARM_DEBUG_TETRA/Mapapp.o
                0x0000f40c                getAppCmpDat
                0x0000f444                getAppCmpTim
                0x0000f47c                appLen
                0x0000f4e0                appReset
                0x0000f638                appPut
                0x0000f708                appGet
 .text          0x0000f7e8      0xa54 Obj/GNU_ARM_DEBUG_TETRA/FMG.o
                0x0000f7e8                FMGCreateBatch
                0x0000f8ec                FMGDeleteBatch
                0x0000faa4                FMGAddDelTransactions
                0x0000fe94                FMGReadTransactions
 .text          0x0001023c     0x1220 Obj/GNU_ARM_DEBUG_TETRA/Utility.o
                0x0001023c                FMG_ErrorMsg
                0x0001040c                LL_ErrorMsg
                0x00010b18                SEC_ErrorMsg
                0x00010dc8                OpenConverter
                0x00010fcc                SetParity
                0x000110b0                CheckParity
                0x00011174                parseStr
                0x000111f8                UintToIp
                0x00011278                IpToUint
                0x000113a0                ParamExist
                0x00011408                AppliExist
 .text          0x0001145c      0x358 Obj/GNU_ARM_DEBUG_TETRA/Timer.o
                0x0001145c                TimerStart
                0x000114fc                TimerGet
                0x00011584                TimerStop
                0x000115e4                Timer
 .text          0x000117b4       0x88 Obj/GNU_ARM_DEBUG_TETRA/iso8583.o
                0x000117b4                isoFmt
                0x000117f8                isoFmt_Gateway
 .text          0x0001183c      0xc48 Obj/GNU_ARM_DEBUG_TETRA/transaction.o
                0x00011e2c                getLen_
                0x00011ea8                getLen_fmt
                0x00012130                reqBuild
                0x00012370                doTransaction
 .text          0x00012484     0x4878 Obj/GNU_ARM_DEBUG_TETRA/globals.o
                0x00012484                bPtr
                0x000124cc                wPtr
                0x00012514                cPtr
                0x0001255c                dPtr
                0x000125e8                num2dec
                0x00012830                dec2num
                0x00012948                num2hex
                0x00012a20                hex2num
                0x00012b10                bin2hex
                0x00012bb0                hex2bin
                0x00012c74                Hex2Text
                0x00012d68                bin2num
                0x00012de4                num2bin
                0x00012e58                tmrStart
                0x00012ed4                tmrGet
                0x00012f44                tmrStop
                0x00012f98                tmrPause
                0x00012ff0                bufReset
                0x00013038                bufInit
                0x00013088                bufDim
                0x000130c0                bufPtr
                0x000130f8                bufLen
                0x00013130                bufSet
                0x000131ac                bufIns
                0x00013298                bufOwr
                0x00013318                bufDel
                0x000133b0                bufApp
                0x000133f8                bufCat
                0x0001344c                bufCpy
                0x00013494                bufGet
                0x000134e0                queReset
                0x00013530                queInit
                0x00013570                quePut
                0x00013630                queNxt
                0x000136a4                queGet
                0x00013738                queLen
                0x00013770                queRewind
                0x000137b0                quePutTag
                0x00013800                quePutTlv
                0x00013888                queGetTag
                0x000138d4                queGetTlv
                0x00013930                queFindTlv
                0x000139a8                queMergeTlv
                0x00013ad4                bitOn
                0x00013b40                bitOff
                0x00013bb0                bitTest
                0x00013c18                tbxParity
                0x00013cf4                tbxCheckParity
                0x00013dc4                fmtSbs
                0x00013e20                fmtTok
                0x00013ec8                fmtPad
                0x00013f78                fmtCnt
                0x000140c0                fmtIns
                0x0001419c                fmtAmt
                0x00014384                fmtMut
                0x0001448c                fmtDel
                0x00014550                fmtTcp
                0x000145e4                fmtDate
                0x0001468c                fmtTime
                0x00014734                isSorted
                0x00014ac0                addStr
                0x00014b4c                subStr
                0x00014be4                stdPow
                0x00014c3c                stdLrc
                0x00014ca0                trk2Lrc
                0x00014d18                stdGetAcc
                0x00014dac                stdLuhnCheck
                0x00014ec0                stdArgMsgCrc16
                0x00014f38                stdCrc16
                0x00014ffc                xor
                0x0001506c                stdParity
                0x000156bc                stdDES
                0x000156fc                stdSED
                0x0001573c                stdEDE
                0x0001579c                stdDED
                0x00015880                hashJerkinsBin
                0x00015950                bmpWdt
                0x00015998                bmpHgt
                0x000159e0                bmpDat
                0x00015a18                Radix64Encode
                0x00015b64                Radix64Decode
                0x00015e74                BaseToDec
                0x00015f58                stdOWF
                0x00016218                ts2dt
                0x00016334                dt2ts
                0x00016468                count_chars
                0x000164d8                begKey
                0x00016528                mapGet
                0x000165a8                mapDatLen
                0x0001660c                mapPut
                0x0001678c                getDateTime
                0x00016a10                strFormatDatTim
                0x00016afc                message_RemoveCard
                0x00016be0                strtouppercase
                0x00016c54                kbdKey
                0x00016cb0                basename
 .text          0x00016cfc      0x7c4 Obj/GNU_ARM_DEBUG_TETRA/magnetic.o
                0x00016cfc                IsoError
                0x00016e0c                Magnetic
 .text          0x000174c0     0x24d0 Obj/GNU_ARM_DEBUG_TETRA/schemes.o
                0x000177c4                GetPpdDisplay
                0x00017ed8                SetConfig
                0x000181a4                GetConfig
                0x00018bdc                CreateSecret
                0x00018d28                FreeSecret
                0x00018dc8                LoadIso9564Key
                0x00018f20                LoadMacKey
                0x000190ec                Iso9564PinEntry
                0x00019510                MacCalculation
                0x00019948                LoadKeysAuto
 .text          0x00019990       0xf4 Obj/GNU_ARM_DEBUG_TETRA/amount.o
                0x00019990                amount
 .text          0x00019a84     0x4948 C:/Users/bkirii/Desktop/c/base_test_14/TRAINAPP/lib/FMG_TPlus.a(VGE_FMG.o)
                0x00019a84                CreateOrMountDisk
                0x00019b10                SaveMangementFile
                0x00019bd4                ExtraireFileID
                0x00019c80                DeleteFileFromTable
                0x00019d1c                AddModifyRecordBegin
                0x0001a03c                AddModifyRecordBeginWithCkecksum
                0x0001a458                AddModifyRecordMiddle
                0x0001a870                AddModifyRecordMiddleWithCkecksum
                0x0001ada0                AddModifyRecordEnd
                0x0001b25c                AddModifyRecordEndWithCkecksum
                0x0001b674                DeleteRecordBegin
                0x0001b8e8                DeleteRecordBeginWithCkecksum
                0x0001bc18                DeleteRecordMiddle
                0x0001bf58                DeleteRecordMiddleWithCkecksum
                0x0001c384                DeleteRecordEnd
                0x0001c6c0                DeleteRecordEndWithCkecksum
                0x0001ca0c                IsFileEmpty
                0x0001ca64                FMG_Init
                0x0001cc6c                FMG_GetFileDescription
                0x0001ccc4                FMG_CreateFile
                0x0001ce88                FMG_DeleteFile
                0x0001cf68                FMG_CreateFileType
                0x0001d18c                FMG_DeleteFileType
                0x0001d29c                FMG_CheckFileCoherence
                0x0001d4e0                FMG_CheckRecordCoherence
                0x0001d55c                FMG_CalculMD5
                0x0001d5d0                FMG_AddRecord
                0x0001d8e8                FMG_ModifyRecord
                0x0001dc34                FMG_ReadRecord
                0x0001e0b8                FMG_DeleteRecord
 .text          0x0001e3cc      0xfbc C:/Users/bkirii/Desktop/c/base_test_14/TRAINAPP/lib/FMG_TPlus.a(md5.o)
                0x0001f12c                md5_init
                0x0001f1a0                md5_append
                0x0001f2b8                md5_finish
 .text          0x0001f388       0x24 C:/Program Files/TeliumSDK/SDK11.16.8.02/SDKTPLUS/HW_TETRA/gnu_473/lib/Platform/ExtraGPRS.lib(gprs_GetInformation.o)
                0x0001f392                gprs_GetInformation
 .text          0x0001f3ac       0x24 C:/Program Files/TeliumSDK/SDK11.16.8.02/SDKTPLUS/HW_TETRA/gnu_473/lib/Platform/ExtraGPRS.lib(gprs_SetPinModeFree.o)
                0x0001f3b6                gprs_SetPinModeFree
 .text          0x0001f3d0       0x24 C:/Program Files/TeliumSDK/SDK11.16.8.02/SDKTPLUS/HW_TETRA/gnu_473/lib/Platform/ExtraGPRS.lib(gprs_SubmitPuk.o)
                0x0001f3da                gprs_SubmitPuk
 .text          0x0001f3f4       0x10 C:/Program Files/TeliumSDK/SDK11.16.8.02/SDKTPLUS/HW_TETRA/gnu_473/lib/Platform/ExtraGPRS.lib(LIBGPRS_asm_link.o)
                0x0001f3f4                LIBGPRS_InitFuncAndBranch
 .text          0x0001f404       0x98 C:/Program Files/TeliumSDK/SDK11.16.8.02/SDKTPLUS/HW_TETRA/gnu_473/lib/Platform/ExtraGPRS.lib(LIBGPRS_link.o)
                0x0001f404                LIBGPRS_GetProcAddressWithoutExit
                0x0001f464                LIBGPRS_GetProcAddress
                0x0001f48c                LIBGPRS_IsPresent
 .text          0x0001f49c       0x24 C:/Program Files/TeliumSDK/SDK11.16.8.02/SDKTPLUS/HW_TETRA/gnu_473/lib/Platform/liblinklayer.lib(LL_ClearReceiveBuffer.o)
                0x0001f4a6                LL_ClearReceiveBuffer
 .text          0x0001f4c0       0x24 C:/Program Files/TeliumSDK/SDK11.16.8.02/SDKTPLUS/HW_TETRA/gnu_473/lib/Platform/liblinklayer.lib(LL_ClearSendBuffer.o)
                0x0001f4ca                LL_ClearSendBuffer
 .text          0x0001f4e4       0x24 C:/Program Files/TeliumSDK/SDK11.16.8.02/SDKTPLUS/HW_TETRA/gnu_473/lib/Platform/liblinklayer.lib(LL_Configure.o)
                0x0001f4ee                LL_Configure
 .text          0x0001f508       0x24 C:/Program Files/TeliumSDK/SDK11.16.8.02/SDKTPLUS/HW_TETRA/gnu_473/lib/Platform/liblinklayer.lib(LL_Connect.o)
                0x0001f512                LL_Connect
 .text          0x0001f52c       0x24 C:/Program Files/TeliumSDK/SDK11.16.8.02/SDKTPLUS/HW_TETRA/gnu_473/lib/Platform/liblinklayer.lib(LL_Disconnect.o)
                0x0001f536                LL_Disconnect
 .text          0x0001f550       0x24 C:/Program Files/TeliumSDK/SDK11.16.8.02/SDKTPLUS/HW_TETRA/gnu_473/lib/Platform/liblinklayer.lib(LL_GetLastError.o)
                0x0001f55a                LL_GetLastError
 .text          0x0001f574       0x24 C:/Program Files/TeliumSDK/SDK11.16.8.02/SDKTPLUS/HW_TETRA/gnu_473/lib/Platform/liblinklayer.lib(LL_GPRS_Connect.o)
                0x0001f57e                LL_GPRS_Connect
 .text          0x0001f598       0x24 C:/Program Files/TeliumSDK/SDK11.16.8.02/SDKTPLUS/HW_TETRA/gnu_473/lib/Platform/liblinklayer.lib(LL_GPRS_Start.o)
                0x0001f5a2                LL_GPRS_Start
 .text          0x0001f5bc       0x24 C:/Program Files/TeliumSDK/SDK11.16.8.02/SDKTPLUS/HW_TETRA/gnu_473/lib/Platform/liblinklayer.lib(LL_GSM_Start.o)
                0x0001f5c6                LL_GSM_Start
 .text          0x0001f5e0       0x24 C:/Program Files/TeliumSDK/SDK11.16.8.02/SDKTPLUS/HW_TETRA/gnu_473/lib/Platform/liblinklayer.lib(LL_Network_GetStatus.o)
                0x0001f5ea                LL_Network_GetStatus
 .text          0x0001f604       0x24 C:/Program Files/TeliumSDK/SDK11.16.8.02/SDKTPLUS/HW_TETRA/gnu_473/lib/Platform/liblinklayer.lib(LL_Receive.o)
                0x0001f60e                LL_Receive
 .text          0x0001f628       0x24 C:/Program Files/TeliumSDK/SDK11.16.8.02/SDKTPLUS/HW_TETRA/gnu_473/lib/Platform/liblinklayer.lib(LL_Send.o)
                0x0001f632                LL_Send
 .text          0x0001f64c       0x10 C:/Program Files/TeliumSDK/SDK11.16.8.02/SDKTPLUS/HW_TETRA/gnu_473/lib/Platform/liblinklayer.lib(LINKLAYER_asm_link.o)
                0x0001f64c                LINKLAYER_InitFuncAndBranch
 .text          0x0001f65c       0x98 C:/Program Files/TeliumSDK/SDK11.16.8.02/SDKTPLUS/HW_TETRA/gnu_473/lib/Platform/liblinklayer.lib(LINKLAYER_link.o)
                0x0001f65c                LINKLAYER_GetProcAddressWithoutExit
                0x0001f6bc                LINKLAYER_GetProcAddress
                0x0001f6e4                LINKLAYER_IsPresent
 .text          0x0001f6f4       0x24 C:/Program Files/TeliumSDK/SDK11.16.8.02/SDKTPLUS/HW_TETRA/gnu_473/lib/Platform/TlvTree.lib(TlvTree_AddChild.o)
                0x0001f6fe                TlvTree_AddChild
 .text          0x0001f718       0x24 C:/Program Files/TeliumSDK/SDK11.16.8.02/SDKTPLUS/HW_TETRA/gnu_473/lib/Platform/TlvTree.lib(TlvTree_AddChildInteger.o)
                0x0001f722                TlvTree_AddChildInteger
 .text          0x0001f73c       0x24 C:/Program Files/TeliumSDK/SDK11.16.8.02/SDKTPLUS/HW_TETRA/gnu_473/lib/Platform/TlvTree.lib(TlvTree_AddChildString.o)
                0x0001f746                TlvTree_AddChildString
 .text          0x0001f760       0x24 C:/Program Files/TeliumSDK/SDK11.16.8.02/SDKTPLUS/HW_TETRA/gnu_473/lib/Platform/TlvTree.lib(TlvTree_New.o)
                0x0001f76a                TlvTree_New
 .text          0x0001f784       0x24 C:/Program Files/TeliumSDK/SDK11.16.8.02/SDKTPLUS/HW_TETRA/gnu_473/lib/Platform/TlvTree.lib(TlvTree_Release.o)
                0x0001f78e                TlvTree_Release
 .text          0x0001f7a8       0x10 C:/Program Files/TeliumSDK/SDK11.16.8.02/SDKTPLUS/HW_TETRA/gnu_473/lib/Platform/TlvTree.lib(TLV_TREE_DLL_asm_link.o)
                0x0001f7a8                TLV_TREE_DLL_InitFuncAndBranch
 .text          0x0001f7b8       0x98 C:/Program Files/TeliumSDK/SDK11.16.8.02/SDKTPLUS/HW_TETRA/gnu_473/lib/Platform/TlvTree.lib(TLV_TREE_DLL_link.o)
                0x0001f7b8                TLV_TREE_DLL_GetProcAddressWithoutExit
                0x0001f818                TLV_TREE_DLL_GetProcAddress
                0x0001f840                TLV_TREE_DLL_IsPresent
 .text          0x0001f850       0x60 C:/Program Files/TeliumSDK/SDK11.16.8.02/SDKTPLUS/HW_TETRA/gnu_473/lib/Platform/libwrapper_tplus.lib(DLLExist.o)
                0x0001f85c                DLLExist
 .text          0x0001f8b0       0x60 C:/Program Files/TeliumSDK/SDK11.16.8.02/SDKTPLUS/HW_TETRA/gnu_473/lib/Platform/libwrapper_tplus.lib(d_tolong.o)
                0x0001f8bc                d_tolong
 .text          0x0001f910       0x5c C:/Program Files/TeliumSDK/SDK11.16.8.02/SDKTPLUS/HW_TETRA/gnu_473/lib/Platform/libwrapper_tplus.lib(stdcam0.o)
                0x0001f918                stdcam0
 .text          0x0001f96c       0x7c C:/Program Files/TeliumSDK/SDK11.16.8.02/SDKTPLUS/HW_TETRA/gnu_473/lib/Platform/libwrapper_tplus.lib(extenstp1.o)
                0x0001f96c                GetProcAddressExtens
                0x0001f98c                extenslib_open
                0x0001f9d0                extenslib_close
 .text          0x0001f9e8       0x64 C:/Program Files/TeliumSDK/SDK11.16.8.02/SDKTPLUS/HW_TETRA/gnu_473/lib/Platform/libwrapper_tplus.lib(Telium_Fclose.o)
                0x0001f9f8                Telium_Fclose
 .text          0x0001fa4c       0x64 C:/Program Files/TeliumSDK/SDK11.16.8.02/SDKTPLUS/HW_TETRA/gnu_473/lib/Platform/libwrapper_tplus.lib(Telium_Fopen.o)
                0x0001fa5c                Telium_Fopen
 .text          0x0001fab0       0x60 C:/Program Files/TeliumSDK/SDK11.16.8.02/SDKTPLUS/HW_TETRA/gnu_473/lib/Platform/libwrapper_tplus.lib(Telium_Getc.o)
                0x0001fabc                Telium_Getc
 .text          0x0001fb10       0x64 C:/Program Files/TeliumSDK/SDK11.16.8.02/SDKTPLUS/HW_TETRA/gnu_473/lib/Platform/libwrapper_tplus.lib(Telium_Is_iso1.o)
                0x0001fb20                Telium_Is_iso1
 .text          0x0001fb74       0x64 C:/Program Files/TeliumSDK/SDK11.16.8.02/SDKTPLUS/HW_TETRA/gnu_473/lib/Platform/libwrapper_tplus.lib(Telium_Is_iso2.o)
                0x0001fb84                Telium_Is_iso2
 .text          0x0001fbd8       0x64 C:/Program Files/TeliumSDK/SDK11.16.8.02/SDKTPLUS/HW_TETRA/gnu_473/lib/Platform/libwrapper_tplus.lib(Telium_Is_iso3.o)
                0x0001fbe8                Telium_Is_iso3
 .text          0x0001fc3c       0x60 C:/Program Files/TeliumSDK/SDK11.16.8.02/SDKTPLUS/HW_TETRA/gnu_473/lib/Platform/libwrapper_tplus.lib(Telium_Reset_buf.o)
                0x0001fc50                Telium_Reset_buf
 .text          0x0001fc9c       0x60 C:/Program Files/TeliumSDK/SDK11.16.8.02/SDKTPLUS/HW_TETRA/gnu_473/lib/Platform/libwrapper_tplus.lib(Telium_Status.o)
                0x0001fcac                Telium_Status
 .text          0x0001fcfc       0x64 C:/Program Files/TeliumSDK/SDK11.16.8.02/SDKTPLUS/HW_TETRA/gnu_473/lib/Platform/libwrapper_tplus.lib(Telium_Stdin.o)
                0x0001fd0c                Telium_Stdin
 .text          0x0001fd60       0x64 C:/Program Files/TeliumSDK/SDK11.16.8.02/SDKTPLUS/HW_TETRA/gnu_473/lib/Platform/libwrapper_tplus.lib(Telium_Stdout.o)
                0x0001fd70                Telium_Stdout
 .text          0x0001fdc4       0x64 C:/Program Files/TeliumSDK/SDK11.16.8.02/SDKTPLUS/HW_TETRA/gnu_473/lib/Platform/libwrapper_tplus.lib(Telium_Stdperif.o)
                0x0001fdd4                Telium_Stdperif
 .text          0x0001fe28       0x64 C:/Program Files/TeliumSDK/SDK11.16.8.02/SDKTPLUS/HW_TETRA/gnu_473/lib/Platform/libwrapper_tplus.lib(Telium_Ttestall.o)
                0x0001fe38                Telium_Ttestall
 .text          0x0001fe8c       0x50 C:/Program Files/TeliumSDK/SDK11.16.8.02/SDKTPLUS/HW_TETRA/gnu_473/lib/Platform/libwrapper_tplus.lib(buzzer.o)
                0x0001fe94                buzzer
 .text          0x0001fedc       0x64 C:/Program Files/TeliumSDK/SDK11.16.8.02/SDKTPLUS/HW_TETRA/gnu_473/lib/Platform/libwrapper_tplus.lib(DrawExtendedString.o)
                0x0001fef0                DrawExtendedString
 .text          0x0001ff40       0x5c C:/Program Files/TeliumSDK/SDK11.16.8.02/SDKTPLUS/HW_TETRA/gnu_473/lib/Platform/libwrapper_tplus.lib(InitContexteGraphique.o)
                0x0001ff58                InitContexteGraphique
 .text          0x0001ff9c       0x58 C:/Program Files/TeliumSDK/SDK11.16.8.02/SDKTPLUS/HW_TETRA/gnu_473/lib/Platform/libwrapper_tplus.lib(PaintGraphics.o)
                0x0001ffac                PaintGraphics
 .text          0x0001fff4       0x64 C:/Program Files/TeliumSDK/SDK11.16.8.02/SDKTPLUS/HW_TETRA/gnu_473/lib/Platform/libwrapper_tplus.lib(_DrawExtendedString.o)
                0x00020008                _DrawExtendedString
 .text          0x00020058       0x7c C:/Program Files/TeliumSDK/SDK11.16.8.02/SDKTPLUS/HW_TETRA/gnu_473/lib/Platform/libwrapper_tplus.lib(libgrtp1.o)
                0x00020058                GetProcAddressLibgr
                0x00020078                libgrlib_open
                0x000200bc                libgrlib_close
 .text          0x000200d4       0x64 C:/Program Files/TeliumSDK/SDK11.16.8.02/SDKTPLUS/HW_TETRA/gnu_473/lib/Platform/libwrapper_tplus.lib(PSQ_Est_pinpad.o)
                0x000200e4                PSQ_Est_pinpad
 .text          0x00020138       0x6c C:/Program Files/TeliumSDK/SDK11.16.8.02/SDKTPLUS/HW_TETRA/gnu_473/lib/Platform/libwrapper_tplus.lib(PSQ_donner_type_pinpad.o)
                0x00020150                PSQ_donner_type_pinpad
 .text          0x000201a4       0x7c C:/Program Files/TeliumSDK/SDK11.16.8.02/SDKTPLUS/HW_TETRA/gnu_473/lib/Platform/libwrapper_tplus.lib(paramtp1.o)
                0x000201a4                GetProcAddressParam
                0x000201c4                paramlib_open
                0x00020208                paramlib_close
 .text          0x00020220       0x64 C:/Program Files/TeliumSDK/SDK11.16.8.02/SDKTPLUS/HW_TETRA/gnu_473/lib/Platform/libwrapper_tplus.lib(IsPPSConnected.o)
                0x00020230                IsPPSConnected
 .text          0x00020284       0x74 C:/Program Files/TeliumSDK/SDK11.16.8.02/SDKTPLUS/HW_TETRA/gnu_473/lib/Platform/libwrapper_tplus.lib(PPS_SendTerminalRefRequestCommand.o)
                0x000202a4                PPS_SendTerminalRefRequestCommand
 .text          0x000202f8       0x60 C:/Program Files/TeliumSDK/SDK11.16.8.02/SDKTPLUS/HW_TETRA/gnu_473/lib/Platform/libwrapper_tplus.lib(PPS_firstline.o)
                0x00020308                PPS_firstline
 .text          0x00020358       0x5c C:/Program Files/TeliumSDK/SDK11.16.8.02/SDKTPLUS/HW_TETRA/gnu_473/lib/Platform/libwrapper_tplus.lib(PPS_newline.o)
                0x00020364                PPS_newline
 .text          0x000203b4       0x7c C:/Program Files/TeliumSDK/SDK11.16.8.02/SDKTPLUS/HW_TETRA/gnu_473/lib/Platform/libwrapper_tplus.lib(pinpadtp1.o)
                0x000203b4                GetProcAddressPinpad
                0x000203d4                pinpadlib_open
                0x00020418                pinpadlib_close
 .text          0x00020430       0x60 C:/Program Files/TeliumSDK/SDK11.16.8.02/SDKTPLUS/HW_TETRA/gnu_473/lib/Platform/libwrapper_tplus.lib(PPS_Display.o)
                0x0002043c                PPS_Display
 .text          0x00020490       0x60 C:/Program Files/TeliumSDK/SDK11.16.8.02/SDKTPLUS/HW_TETRA/gnu_473/lib/Platform/libwrapper_tplus.lib(Telium_Read_date.o)
                0x000204a4                Telium_Read_date
 .text          0x000204f0       0x60 C:/Program Files/TeliumSDK/SDK11.16.8.02/SDKTPLUS/HW_TETRA/gnu_473/lib/Platform/libwrapper_tplus.lib(BoosterType.o)
                0x000204fc                BoosterType
 .text          0x00020550       0x64 C:/Program Files/TeliumSDK/SDK11.16.8.02/SDKTPLUS/HW_TETRA/gnu_473/lib/Platform/libwrapper_tplus.lib(IsColorDisplay.o)
                0x00020560                IsColorDisplay
 .text          0x000205b4       0x5c C:/Program Files/TeliumSDK/SDK11.16.8.02/SDKTPLUS/HW_TETRA/gnu_473/lib/Platform/libwrapper_tplus.lib(IsISO1.o)
                0x000205bc                IsISO1
 .text          0x00020610       0x5c C:/Program Files/TeliumSDK/SDK11.16.8.02/SDKTPLUS/HW_TETRA/gnu_473/lib/Platform/libwrapper_tplus.lib(IsISO2.o)
                0x00020618                IsISO2
 .text          0x0002066c       0x5c C:/Program Files/TeliumSDK/SDK11.16.8.02/SDKTPLUS/HW_TETRA/gnu_473/lib/Platform/libwrapper_tplus.lib(IsISO3.o)
                0x00020674                IsISO3
 .text          0x000206c8       0x60 C:/Program Files/TeliumSDK/SDK11.16.8.02/SDKTPLUS/HW_TETRA/gnu_473/lib/Platform/libwrapper_tplus.lib(IsPrinter.o)
                0x000206d4                IsPrinter
 .text          0x00020728       0x64 C:/Program Files/TeliumSDK/SDK11.16.8.02/SDKTPLUS/HW_TETRA/gnu_473/lib/Platform/libwrapper_tplus.lib(Telium_ServiceRegister.o)
                0x00020740                Telium_ServiceRegister
 .text          0x0002078c       0x2e C:/Program Files/TeliumSDK/SDK11.16.8.02/SDKTPLUS/HW_TETRA/gnu_473/lib/Platform/libwrapper_tplus.lib(Telium_Pprintf.o)
                0x0002078c                Telium_Pprintf
 .text          0x000207ba       0x20 C:/Program Files/TeliumSDK/SDK11.16.8.02/SDKTPLUS/HW_TETRA/gnu_473/lib/Platform/libwrapper_tplus.lib(Telium_Printf.o)
                0x000207ba                Telium_Printf
 *fill*         0x000207da        0x2 00000000
 .text          0x000207dc       0x20 C:/Program Files/TeliumSDK/SDK11.16.8.02/SDKTPLUS/HW_TETRA/gnu_473/lib/Platform/libwrapper_tplus.lib(Telium_Stdprt.o)
                0x000207e4                Telium_Stdprt
 .text          0x000207fc       0x20 C:/Program Files/TeliumSDK/SDK11.16.8.02/SDKTPLUS/HW_TETRA/gnu_473/lib/Platform/libwrapper_tplus.lib(Telium_Sprintf.o)
                0x000207fc                Telium_Sprintf
 .text          0x0002081c       0x64 C:/Program Files/TeliumSDK/SDK11.16.8.02/SDKTPLUS/HW_TETRA/gnu_473/lib/Platform/libwrapper_tplus.lib(ApplicationGetCurrent.o)
                0x00020834                ApplicationGetCurrent
 .text          0x00020880       0x58 C:/Program Files/TeliumSDK/SDK11.16.8.02/SDKTPLUS/HW_TETRA/gnu_473/lib/Platform/libwrapper_tplus.lib(FS_close.o)
                0x0002088c                FS_close
 .text          0x000208d8       0x5c C:/Program Files/TeliumSDK/SDK11.16.8.02/SDKTPLUS/HW_TETRA/gnu_473/lib/Platform/libwrapper_tplus.lib(FS_dskcreate.o)
                0x000208e8                FS_dskcreate
 .text          0x00020934       0x58 C:/Program Files/TeliumSDK/SDK11.16.8.02/SDKTPLUS/HW_TETRA/gnu_473/lib/Platform/libwrapper_tplus.lib(FS_exist.o)
                0x00020940                FS_exist
 .text          0x0002098c       0x58 C:/Program Files/TeliumSDK/SDK11.16.8.02/SDKTPLUS/HW_TETRA/gnu_473/lib/Platform/libwrapper_tplus.lib(FS_length.o)
                0x00020998                FS_length
 .text          0x000209e4       0x58 C:/Program Files/TeliumSDK/SDK11.16.8.02/SDKTPLUS/HW_TETRA/gnu_473/lib/Platform/libwrapper_tplus.lib(FS_mount.o)
                0x000209f0                FS_mount
 .text          0x00020a3c       0x54 C:/Program Files/TeliumSDK/SDK11.16.8.02/SDKTPLUS/HW_TETRA/gnu_473/lib/Platform/libwrapper_tplus.lib(FS_open.o)
                0x00020a44                FS_open
 .text          0x00020a90       0x54 C:/Program Files/TeliumSDK/SDK11.16.8.02/SDKTPLUS/HW_TETRA/gnu_473/lib/Platform/libwrapper_tplus.lib(FS_read.o)
                0x00020a98                FS_read
 .text          0x00020ae4       0x58 C:/Program Files/TeliumSDK/SDK11.16.8.02/SDKTPLUS/HW_TETRA/gnu_473/lib/Platform/libwrapper_tplus.lib(FS_rename.o)
                0x00020af0                FS_rename
 .text          0x00020b3c       0x50 C:/Program Files/TeliumSDK/SDK11.16.8.02/SDKTPLUS/HW_TETRA/gnu_473/lib/Platform/libwrapper_tplus.lib(FS_seek.o)
                0x00020b44                FS_seek
 .text          0x00020b8c       0x58 C:/Program Files/TeliumSDK/SDK11.16.8.02/SDKTPLUS/HW_TETRA/gnu_473/lib/Platform/libwrapper_tplus.lib(FS_unlink.o)
                0x00020b98                FS_unlink
 .text          0x00020be4       0x58 C:/Program Files/TeliumSDK/SDK11.16.8.02/SDKTPLUS/HW_TETRA/gnu_473/lib/Platform/libwrapper_tplus.lib(FS_unmount.o)
                0x00020bf0                FS_unmount
 .text          0x00020c3c       0x58 C:/Program Files/TeliumSDK/SDK11.16.8.02/SDKTPLUS/HW_TETRA/gnu_473/lib/Platform/libwrapper_tplus.lib(FS_write.o)
                0x00020c48                FS_write
 .text          0x00020c94       0x60 C:/Program Files/TeliumSDK/SDK11.16.8.02/SDKTPLUS/HW_TETRA/gnu_473/lib/Platform/libwrapper_tplus.lib(ObjectGetDescriptor.o)
                0x00020ca8                ObjectGetDescriptor
 .text          0x00020cf4       0x5c C:/Program Files/TeliumSDK/SDK11.16.8.02/SDKTPLUS/HW_TETRA/gnu_473/lib/Platform/libwrapper_tplus.lib(ObjectGetInfo.o)
                0x00020d04                ObjectGetInfo
 .text          0x00020d50       0x54 C:/Program Files/TeliumSDK/SDK11.16.8.02/SDKTPLUS/HW_TETRA/gnu_473/lib/Platform/libwrapper_tplus.lib(PageAlloc.o)
                0x00020d5c                PageAlloc
 .text          0x00020da4       0x58 C:/Program Files/TeliumSDK/SDK11.16.8.02/SDKTPLUS/HW_TETRA/gnu_473/lib/Platform/libwrapper_tplus.lib(PageFree.o)
                0x00020db0                PageFree
 .text          0x00020dfc       0x58 C:/Program Files/TeliumSDK/SDK11.16.8.02/SDKTPLUS/HW_TETRA/gnu_473/lib/Platform/libwrapper_tplus.lib(first_init.o)
                0x00020e08                first_init
 .text          0x00020e54       0x58 C:/Program Files/TeliumSDK/SDK11.16.8.02/SDKTPLUS/HW_TETRA/gnu_473/lib/Platform/libwrapper_tplus.lib(raz_init.o)
                0x00020e60                raz_init
 .text          0x00020eac       0x60 C:/Program Files/TeliumSDK/SDK11.16.8.02/SDKTPLUS/HW_TETRA/gnu_473/lib/Platform/libwrapper_tplus.lib(DisplayFooter.o)
                0x00020ec0                DisplayFooter
 .text          0x00020f0c       0x60 C:/Program Files/TeliumSDK/SDK11.16.8.02/SDKTPLUS/HW_TETRA/gnu_473/lib/Platform/libwrapper_tplus.lib(DisplayHeader.o)
                0x00020f20                DisplayHeader
 .text          0x00020f6c       0x5c C:/Program Files/TeliumSDK/SDK11.16.8.02/SDKTPLUS/HW_TETRA/gnu_473/lib/Platform/libwrapper_tplus.lib(DisplayLeds.o)
                0x00020f7c                DisplayLeds
 .text          0x00020fc8       0x5c C:/Program Files/TeliumSDK/SDK11.16.8.02/SDKTPLUS/HW_TETRA/gnu_473/lib/Platform/libwrapper_tplus.lib(IsFooter.o)
                0x00020fd8                IsFooter
 .text          0x00021024       0x64 C:/Program Files/TeliumSDK/SDK11.16.8.02/SDKTPLUS/HW_TETRA/gnu_473/lib/Platform/libwrapper_tplus.lib(IsHeader.o)
                0x0002103c                IsHeader
 .text          0x00021088       0x5c C:/Program Files/TeliumSDK/SDK11.16.8.02/SDKTPLUS/HW_TETRA/gnu_473/lib/Platform/libwrapper_tplus.lib(Telium_Exit.o)
                0x00021098                Telium_Exit
 .text          0x000210e4       0x68 C:/Program Files/TeliumSDK/SDK11.16.8.02/SDKTPLUS/HW_TETRA/gnu_473/lib/Platform/libwrapper_tplus.lib(upload_diagnostic_txt.o)
                0x00021100                upload_diagnostic_txt
 .text          0x0002114c       0x70 C:/Program Files/TeliumSDK/SDK11.16.8.02/SDKTPLUS/HW_TETRA/gnu_473/lib/Platform/libwrapper_tplus.lib(emulationtp1.o)
                0x0002114c                GetProcAddressEmulation
                0x0002116c                emulationlib_open
                0x000211a4                emulationlib_close
 .text          0x000211bc       0x70 C:/Program Files/TeliumSDK/SDK11.16.8.02/SDKTPLUS/HW_TETRA/gnu_473/lib/Platform/libwrapper_tplus.lib(TM_InitContexteGraphique.o)
                0x000211d8                TM_InitContexteGraphique
 .text          0x0002122c       0x50 C:/Program Files/TeliumSDK/SDK11.16.8.02/SDKTPLUS/HW_TETRA/gnu_473/lib/Platform/libwrapper_tplus.lib(extensttrois9.o)
                0x0002122c                Telium_Vfprintf
 .text          0x0002127c       0x7c C:/Program Files/TeliumSDK/SDK11.16.8.02/SDKTPLUS/HW_TETRA/gnu_473/lib/Platform/libwrapper_tplus.lib(toolstp1.o)
                0x0002127c                GetProcAddressTools
                0x0002129c                toolslib_open
                0x000212e0                toolslib_close
 .text          0x000212f8       0x70 C:/Program Files/TeliumSDK/SDK11.16.8.02/SDKTPLUS/HW_TETRA/gnu_473/lib/Platform/libwrapper_tplus.lib(wrappertp1.o)
                0x000212f8                GetProcAddressWrapper
                0x00021318                wrapperlib_open
                0x00021350                wrapperlib_close
 .text          0x00021368       0x24 C:/Program Files/TeliumSDK/SDK11.16.8.02/SDKTPLUS/HW_TETRA/gnu_473/lib/Platform\libSec.a(SEC_ComputeMAC.o)
                0x00021372                SEC_ComputeMAC
 .text          0x0002138c       0x24 C:/Program Files/TeliumSDK/SDK11.16.8.02/SDKTPLUS/HW_TETRA/gnu_473/lib/Platform\libSec.a(SEC_GetConfig.o)
                0x00021396                SEC_GetConfig
 .text          0x000213b0       0x24 C:/Program Files/TeliumSDK/SDK11.16.8.02/SDKTPLUS/HW_TETRA/gnu_473/lib/Platform\libSec.a(SEC_Iso9564.o)
                0x000213ba                SEC_Iso9564
 .text          0x000213d4       0x24 C:/Program Files/TeliumSDK/SDK11.16.8.02/SDKTPLUS/HW_TETRA/gnu_473/lib/Platform\libSec.a(SEC_isSecretArea.o)
                0x000213de                SEC_isSecretArea
 .text          0x000213f8       0x24 C:/Program Files/TeliumSDK/SDK11.16.8.02/SDKTPLUS/HW_TETRA/gnu_473/lib/Platform\libSec.a(SEC_KeyVerify.o)
                0x00021402                SEC_KeyVerify
 .text          0x0002141c       0x24 C:/Program Files/TeliumSDK/SDK11.16.8.02/SDKTPLUS/HW_TETRA/gnu_473/lib/Platform\libSec.a(SEC_listSecureId.o)
                0x00021426                SEC_listSecureId
 .text          0x00021440       0x24 C:/Program Files/TeliumSDK/SDK11.16.8.02/SDKTPLUS/HW_TETRA/gnu_473/lib/Platform\libSec.a(SEC_listTLVKeys.o)
                0x0002144a                SEC_listTLVKeys
 .text          0x00021464       0x24 C:/Program Files/TeliumSDK/SDK11.16.8.02/SDKTPLUS/HW_TETRA/gnu_473/lib/Platform\libSec.a(SEC_LoadKey.o)
                0x0002146e                SEC_LoadKey
 .text          0x00021488       0x24 C:/Program Files/TeliumSDK/SDK11.16.8.02/SDKTPLUS/HW_TETRA/gnu_473/lib/Platform\libSec.a(SEC_PinEntry.o)
                0x00021492                SEC_PinEntry
 .text          0x000214ac       0x24 C:/Program Files/TeliumSDK/SDK11.16.8.02/SDKTPLUS/HW_TETRA/gnu_473/lib/Platform\libSec.a(SEC_PinEntryInit.o)
                0x000214b6                SEC_PinEntryInit
 .text          0x000214d0       0x24 C:/Program Files/TeliumSDK/SDK11.16.8.02/SDKTPLUS/HW_TETRA/gnu_473/lib/Platform\libSec.a(SEC_SetConfig.o)
                0x000214da                SEC_SetConfig
 .text          0x000214f4       0x50 C:/Program Files/TeliumSDK/SDK11.16.8.02/SDKTPLUS/HW_TETRA/gnu_473/lib/Platform\libSec.a(Telium3.o)
                0x000214f4                SEClib_Version
                0x000214fc                SEClib_Open
                0x00021528                SEClib_Close
                0x00021540                LIBSEC_IsPresent
 .text          0x00021544       0x10 C:/Program Files/TeliumSDK/SDK11.16.8.02/SDKTPLUS/HW_TETRA/gnu_473/lib/Platform\libSec.a(LIBSECV2_asm_link.o)
                0x00021544                LIBSECV2_InitFuncAndBranch
 .text          0x00021554       0x98 C:/Program Files/TeliumSDK/SDK11.16.8.02/SDKTPLUS/HW_TETRA/gnu_473/lib/Platform\libSec.a(LIBSECV2_link.o)
                0x00021554                LIBSECV2_GetProcAddressWithoutExit
                0x000215b4                LIBSECV2_GetProcAddress
                0x000215dc                LIBSECV2_IsPresent
 .text          0x000215ec       0x24 C:/Program Files/TeliumSDK/SDK11.16.8.02/SDKTPLUS/HW_TETRA/gnu_473/lib/Platform\libGRAPHICLIB.a(GL_Button_Create.o)
                0x000215f8                GL_Button_Create
 .text          0x00021610       0x24 C:/Program Files/TeliumSDK/SDK11.16.8.02/SDKTPLUS/HW_TETRA/gnu_473/lib/Platform\libGRAPHICLIB.a(GL_Dialog_Amount.o)
                0x0002161c                GL_Dialog_Amount
 .text          0x00021634       0x24 C:/Program Files/TeliumSDK/SDK11.16.8.02/SDKTPLUS/HW_TETRA/gnu_473/lib/Platform\libGRAPHICLIB.a(GL_Dialog_Choice.o)
                0x00021640                GL_Dialog_Choice
 .text          0x00021658       0x24 C:/Program Files/TeliumSDK/SDK11.16.8.02/SDKTPLUS/HW_TETRA/gnu_473/lib/Platform\libGRAPHICLIB.a(GL_Dialog_Menu.o)
                0x00021664                GL_Dialog_Menu
 .text          0x0002167c       0x24 C:/Program Files/TeliumSDK/SDK11.16.8.02/SDKTPLUS/HW_TETRA/gnu_473/lib/Platform\libGRAPHICLIB.a(GL_Dialog_Message.o)
                0x00021688                GL_Dialog_Message
 .text          0x000216a0       0x24 C:/Program Files/TeliumSDK/SDK11.16.8.02/SDKTPLUS/HW_TETRA/gnu_473/lib/Platform\libGRAPHICLIB.a(GL_Dialog_Password.o)
                0x000216ac                GL_Dialog_Password
 .text          0x000216c4       0x24 C:/Program Files/TeliumSDK/SDK11.16.8.02/SDKTPLUS/HW_TETRA/gnu_473/lib/Platform\libGRAPHICLIB.a(GL_Dialog_Progress.o)
                0x000216d0                GL_Dialog_Progress
 .text          0x000216e8       0x24 C:/Program Files/TeliumSDK/SDK11.16.8.02/SDKTPLUS/HW_TETRA/gnu_473/lib/Platform\libGRAPHICLIB.a(GL_Dialog_Text.o)
                0x000216f4                GL_Dialog_Text
 .text          0x0002170c       0x24 C:/Program Files/TeliumSDK/SDK11.16.8.02/SDKTPLUS/HW_TETRA/gnu_473/lib/Platform\libGRAPHICLIB.a(GL_Dialog_VirtualKeyboard.o)
                0x00021718                GL_Dialog_VirtualKeyboard
 .text          0x00021730       0x24 C:/Program Files/TeliumSDK/SDK11.16.8.02/SDKTPLUS/HW_TETRA/gnu_473/lib/Platform\libGRAPHICLIB.a(GL_Document_Create.o)
                0x0002173c                GL_Document_Create
 .text          0x00021754       0x24 C:/Program Files/TeliumSDK/SDK11.16.8.02/SDKTPLUS/HW_TETRA/gnu_473/lib/Platform\libGRAPHICLIB.a(GL_Document_Print.o)
                0x00021760                GL_Document_Print
 .text          0x00021778       0x24 C:/Program Files/TeliumSDK/SDK11.16.8.02/SDKTPLUS/HW_TETRA/gnu_473/lib/Platform\libGRAPHICLIB.a(GL_Drawing_Clear.o)
                0x00021784                GL_Drawing_Clear
 .text          0x0002179c       0x24 C:/Program Files/TeliumSDK/SDK11.16.8.02/SDKTPLUS/HW_TETRA/gnu_473/lib/Platform\libGRAPHICLIB.a(GL_Drawing_Create.o)
                0x000217a8                GL_Drawing_Create
 .text          0x000217c0       0x24 C:/Program Files/TeliumSDK/SDK11.16.8.02/SDKTPLUS/HW_TETRA/gnu_473/lib/Platform\libGRAPHICLIB.a(GL_Drawing_DrawEllipse.o)
                0x000217cc                GL_Drawing_DrawEllipse
 .text          0x000217e4       0x24 C:/Program Files/TeliumSDK/SDK11.16.8.02/SDKTPLUS/HW_TETRA/gnu_473/lib/Platform\libGRAPHICLIB.a(GL_Drawing_DrawLine.o)
                0x000217f0                GL_Drawing_DrawLine
 .text          0x00021808       0x24 C:/Program Files/TeliumSDK/SDK11.16.8.02/SDKTPLUS/HW_TETRA/gnu_473/lib/Platform\libGRAPHICLIB.a(GL_Drawing_DrawRect.o)
                0x00021814                GL_Drawing_DrawRect
 .text          0x0002182c       0x24 C:/Program Files/TeliumSDK/SDK11.16.8.02/SDKTPLUS/HW_TETRA/gnu_473/lib/Platform\libGRAPHICLIB.a(GL_Drawing_DrawText.o)
                0x00021838                GL_Drawing_DrawText
 .text          0x00021850       0x24 C:/Program Files/TeliumSDK/SDK11.16.8.02/SDKTPLUS/HW_TETRA/gnu_473/lib/Platform\libGRAPHICLIB.a(GL_Drawing_SetBrush.o)
                0x0002185c                GL_Drawing_SetBrush
 .text          0x00021874       0x24 C:/Program Files/TeliumSDK/SDK11.16.8.02/SDKTPLUS/HW_TETRA/gnu_473/lib/Platform\libGRAPHICLIB.a(GL_Drawing_SetFont.o)
                0x00021880                GL_Drawing_SetFont
 .text          0x00021898       0x24 C:/Program Files/TeliumSDK/SDK11.16.8.02/SDKTPLUS/HW_TETRA/gnu_473/lib/Platform\libGRAPHICLIB.a(GL_Drawing_SetPen.o)
                0x000218a4                GL_Drawing_SetPen
 .text          0x000218bc       0x24 C:/Program Files/TeliumSDK/SDK11.16.8.02/SDKTPLUS/HW_TETRA/gnu_473/lib/Platform\libGRAPHICLIB.a(GL_GraphicLib_BindSingleKey.o)
                0x000218c8                GL_GraphicLib_BindSingleKey
 .text          0x000218e0       0x80 C:/Program Files/TeliumSDK/SDK11.16.8.02/SDKTPLUS/HW_TETRA/gnu_473/lib/Platform\libGRAPHICLIB.a(GL_GraphicLib_Create.o)
                0x000218e0                GL_GraphicLib_Create
                0x00021940                GL_GraphicLib_Create_Init
 .text          0x00021960       0x24 C:/Program Files/TeliumSDK/SDK11.16.8.02/SDKTPLUS/HW_TETRA/gnu_473/lib/Platform\libGRAPHICLIB.a(GL_GraphicLib_IsTouchPresent.o)
                0x0002196c                GL_GraphicLib_IsTouchPresent
 .text          0x00021984       0x24 C:/Program Files/TeliumSDK/SDK11.16.8.02/SDKTPLUS/HW_TETRA/gnu_473/lib/Platform\libGRAPHICLIB.a(GL_GraphicLib_SetCharset.o)
                0x00021990                GL_GraphicLib_SetCharset
 .text          0x000219a8       0x24 C:/Program Files/TeliumSDK/SDK11.16.8.02/SDKTPLUS/HW_TETRA/gnu_473/lib/Platform\libGRAPHICLIB.a(GL_GraphicLib_UnbindKey.o)
                0x000219b4                GL_GraphicLib_UnbindKey
 .text          0x000219cc       0x24 C:/Program Files/TeliumSDK/SDK11.16.8.02/SDKTPLUS/HW_TETRA/gnu_473/lib/Platform\libGRAPHICLIB.a(GL_Label_Create.o)
                0x000219d8                GL_Label_Create
 .text          0x000219f0       0x24 C:/Program Files/TeliumSDK/SDK11.16.8.02/SDKTPLUS/HW_TETRA/gnu_473/lib/Platform\libGRAPHICLIB.a(GL_Layout_Create.o)
                0x000219fc                GL_Layout_Create
 .text          0x00021a14       0x24 C:/Program Files/TeliumSDK/SDK11.16.8.02/SDKTPLUS/HW_TETRA/gnu_473/lib/Platform\libGRAPHICLIB.a(GL_Message_GetKey.o)
                0x00021a20                GL_Message_GetKey
 .text          0x00021a38       0x24 C:/Program Files/TeliumSDK/SDK11.16.8.02/SDKTPLUS/HW_TETRA/gnu_473/lib/Platform\libGRAPHICLIB.a(GL_Message_GetWidget.o)
                0x00021a44                GL_Message_GetWidget
 .text          0x00021a5c       0x24 C:/Program Files/TeliumSDK/SDK11.16.8.02/SDKTPLUS/HW_TETRA/gnu_473/lib/Platform\libGRAPHICLIB.a(GL_Message_SetResult.o)
                0x00021a68                GL_Message_SetResult
 .text          0x00021a80       0x24 C:/Program Files/TeliumSDK/SDK11.16.8.02/SDKTPLUS/HW_TETRA/gnu_473/lib/Platform\libGRAPHICLIB.a(GL_Message_SetUserData.o)
                0x00021a8c                GL_Message_SetUserData
 .text          0x00021aa4       0x24 C:/Program Files/TeliumSDK/SDK11.16.8.02/SDKTPLUS/HW_TETRA/gnu_473/lib/Platform\libGRAPHICLIB.a(GL_Picture_Create.o)
                0x00021ab0                GL_Picture_Create
 .text          0x00021ac8       0x24 C:/Program Files/TeliumSDK/SDK11.16.8.02/SDKTPLUS/HW_TETRA/gnu_473/lib/Platform\libGRAPHICLIB.a(GL_Print_Create.o)
                0x00021ad4                GL_Print_Create
 .text          0x00021aec       0x24 C:/Program Files/TeliumSDK/SDK11.16.8.02/SDKTPLUS/HW_TETRA/gnu_473/lib/Platform\libGRAPHICLIB.a(GL_Timer_Create.o)
                0x00021af8                GL_Timer_Create
 .text          0x00021b10       0x24 C:/Program Files/TeliumSDK/SDK11.16.8.02/SDKTPLUS/HW_TETRA/gnu_473/lib/Platform\libGRAPHICLIB.a(GL_Timer_SetInterval.o)
                0x00021b1c                GL_Timer_SetInterval
 .text          0x00021b34       0x24 C:/Program Files/TeliumSDK/SDK11.16.8.02/SDKTPLUS/HW_TETRA/gnu_473/lib/Platform\libGRAPHICLIB.a(GL_Timer_Stop.o)
                0x00021b40                GL_Timer_Stop
 .text          0x00021b58       0x24 C:/Program Files/TeliumSDK/SDK11.16.8.02/SDKTPLUS/HW_TETRA/gnu_473/lib/Platform\libGRAPHICLIB.a(GL_Widget_Destroy.o)
                0x00021b64                GL_Widget_Destroy
 .text          0x00021b7c       0x24 C:/Program Files/TeliumSDK/SDK11.16.8.02/SDKTPLUS/HW_TETRA/gnu_473/lib/Platform\libGRAPHICLIB.a(GL_Widget_GetUserData.o)
                0x00021b88                GL_Widget_GetUserData
 .text          0x00021ba0       0x24 C:/Program Files/TeliumSDK/SDK11.16.8.02/SDKTPLUS/HW_TETRA/gnu_473/lib/Platform\libGRAPHICLIB.a(GL_Widget_RegisterCallback.o)
                0x00021bac                GL_Widget_RegisterCallback
 .text          0x00021bc4       0x24 C:/Program Files/TeliumSDK/SDK11.16.8.02/SDKTPLUS/HW_TETRA/gnu_473/lib/Platform\libGRAPHICLIB.a(GL_Widget_SearchId.o)
                0x00021bd0                GL_Widget_SearchId
 .text          0x00021be8       0x24 C:/Program Files/TeliumSDK/SDK11.16.8.02/SDKTPLUS/HW_TETRA/gnu_473/lib/Platform\libGRAPHICLIB.a(GL_Widget_SetBackAlign.o)
                0x00021bf4                GL_Widget_SetBackAlign
 .text          0x00021c0c       0x24 C:/Program Files/TeliumSDK/SDK11.16.8.02/SDKTPLUS/HW_TETRA/gnu_473/lib/Platform\libGRAPHICLIB.a(GL_Widget_SetBackColor.o)
                0x00021c18                GL_Widget_SetBackColor
 .text          0x00021c30       0x24 C:/Program Files/TeliumSDK/SDK11.16.8.02/SDKTPLUS/HW_TETRA/gnu_473/lib/Platform\libGRAPHICLIB.a(GL_Widget_SetBorders.o)
                0x00021c3c                GL_Widget_SetBorders
 .text          0x00021c54       0x24 C:/Program Files/TeliumSDK/SDK11.16.8.02/SDKTPLUS/HW_TETRA/gnu_473/lib/Platform\libGRAPHICLIB.a(GL_Widget_SetExpand.o)
                0x00021c60                GL_Widget_SetExpand
 .text          0x00021c78       0x24 C:/Program Files/TeliumSDK/SDK11.16.8.02/SDKTPLUS/HW_TETRA/gnu_473/lib/Platform\libGRAPHICLIB.a(GL_Widget_SetFocusable.o)
                0x00021c84                GL_Widget_SetFocusable
 .text          0x00021c9c       0x24 C:/Program Files/TeliumSDK/SDK11.16.8.02/SDKTPLUS/HW_TETRA/gnu_473/lib/Platform\libGRAPHICLIB.a(GL_Widget_SetFontName.o)
                0x00021ca8                GL_Widget_SetFontName
 .text          0x00021cc0       0x24 C:/Program Files/TeliumSDK/SDK11.16.8.02/SDKTPLUS/HW_TETRA/gnu_473/lib/Platform\libGRAPHICLIB.a(GL_Widget_SetFontScale.o)
                0x00021ccc                GL_Widget_SetFontScale
 .text          0x00021ce4       0x24 C:/Program Files/TeliumSDK/SDK11.16.8.02/SDKTPLUS/HW_TETRA/gnu_473/lib/Platform\libGRAPHICLIB.a(GL_Widget_SetFontStyle.o)
                0x00021cf0                GL_Widget_SetFontStyle
 .text          0x00021d08       0x24 C:/Program Files/TeliumSDK/SDK11.16.8.02/SDKTPLUS/HW_TETRA/gnu_473/lib/Platform\libGRAPHICLIB.a(GL_Widget_SetForeColor.o)
                0x00021d14                GL_Widget_SetForeColor
 .text          0x00021d2c       0x24 C:/Program Files/TeliumSDK/SDK11.16.8.02/SDKTPLUS/HW_TETRA/gnu_473/lib/Platform\libGRAPHICLIB.a(GL_Widget_SetGrow.o)
                0x00021d38                GL_Widget_SetGrow
 .text          0x00021d50       0x24 C:/Program Files/TeliumSDK/SDK11.16.8.02/SDKTPLUS/HW_TETRA/gnu_473/lib/Platform\libGRAPHICLIB.a(GL_Widget_SetId.o)
                0x00021d5c                GL_Widget_SetId
 .text          0x00021d74       0x24 C:/Program Files/TeliumSDK/SDK11.16.8.02/SDKTPLUS/HW_TETRA/gnu_473/lib/Platform\libGRAPHICLIB.a(GL_Widget_SetItem.o)
                0x00021d80                GL_Widget_SetItem
 .text          0x00021d98       0x24 C:/Program Files/TeliumSDK/SDK11.16.8.02/SDKTPLUS/HW_TETRA/gnu_473/lib/Platform\libGRAPHICLIB.a(GL_Widget_SetMargins.o)
                0x00021da4                GL_Widget_SetMargins
 .text          0x00021dbc       0x24 C:/Program Files/TeliumSDK/SDK11.16.8.02/SDKTPLUS/HW_TETRA/gnu_473/lib/Platform\libGRAPHICLIB.a(GL_Widget_SetMinSize.o)
                0x00021dc8                GL_Widget_SetMinSize
 .text          0x00021de0       0x24 C:/Program Files/TeliumSDK/SDK11.16.8.02/SDKTPLUS/HW_TETRA/gnu_473/lib/Platform\libGRAPHICLIB.a(GL_Widget_SetShortcut.o)
                0x00021dec                GL_Widget_SetShortcut
 .text          0x00021e04       0x24 C:/Program Files/TeliumSDK/SDK11.16.8.02/SDKTPLUS/HW_TETRA/gnu_473/lib/Platform\libGRAPHICLIB.a(GL_Widget_SetShrink.o)
                0x00021e10                GL_Widget_SetShrink
 .text          0x00021e28       0x24 C:/Program Files/TeliumSDK/SDK11.16.8.02/SDKTPLUS/HW_TETRA/gnu_473/lib/Platform\libGRAPHICLIB.a(GL_Widget_SetSize.o)
                0x00021e34                GL_Widget_SetSize
 .text          0x00021e4c       0x24 C:/Program Files/TeliumSDK/SDK11.16.8.02/SDKTPLUS/HW_TETRA/gnu_473/lib/Platform\libGRAPHICLIB.a(GL_Widget_SetSource.o)
                0x00021e58                GL_Widget_SetSource
 .text          0x00021e70       0x24 C:/Program Files/TeliumSDK/SDK11.16.8.02/SDKTPLUS/HW_TETRA/gnu_473/lib/Platform\libGRAPHICLIB.a(GL_Widget_SetText.o)
                0x00021e7c                GL_Widget_SetText
 .text          0x00021e94       0x24 C:/Program Files/TeliumSDK/SDK11.16.8.02/SDKTPLUS/HW_TETRA/gnu_473/lib/Platform\libGRAPHICLIB.a(GL_Widget_SetTextAlign.o)
                0x00021ea0                GL_Widget_SetTextAlign
 .text          0x00021eb8       0x24 C:/Program Files/TeliumSDK/SDK11.16.8.02/SDKTPLUS/HW_TETRA/gnu_473/lib/Platform\libGRAPHICLIB.a(GL_Widget_SetTextPaddings.o)
                0x00021ec4                GL_Widget_SetTextPaddings
 .text          0x00021edc       0x24 C:/Program Files/TeliumSDK/SDK11.16.8.02/SDKTPLUS/HW_TETRA/gnu_473/lib/Platform\libGRAPHICLIB.a(GL_Widget_SetTransformation.o)
                0x00021ee8                GL_Widget_SetTransformation
 .text          0x00021f00       0x24 C:/Program Files/TeliumSDK/SDK11.16.8.02/SDKTPLUS/HW_TETRA/gnu_473/lib/Platform\libGRAPHICLIB.a(GL_Widget_SetVisible.o)
                0x00021f0c                GL_Widget_SetVisible
 .text          0x00021f24       0x24 C:/Program Files/TeliumSDK/SDK11.16.8.02/SDKTPLUS/HW_TETRA/gnu_473/lib/Platform\libGRAPHICLIB.a(GL_Widget_SetWrap.o)
                0x00021f30                GL_Widget_SetWrap
 .text          0x00021f48       0x24 C:/Program Files/TeliumSDK/SDK11.16.8.02/SDKTPLUS/HW_TETRA/gnu_473/lib/Platform\libGRAPHICLIB.a(GL_Widget_UnregisterCallback.o)
                0x00021f54                GL_Widget_UnregisterCallback
 .text          0x00021f6c       0x24 C:/Program Files/TeliumSDK/SDK11.16.8.02/SDKTPLUS/HW_TETRA/gnu_473/lib/Platform\libGRAPHICLIB.a(GL_Window_Create.o)
                0x00021f78                GL_Window_Create
 .text          0x00021f90       0x24 C:/Program Files/TeliumSDK/SDK11.16.8.02/SDKTPLUS/HW_TETRA/gnu_473/lib/Platform\libGRAPHICLIB.a(GL_Window_Dispatch.o)
                0x00021f9c                GL_Window_Dispatch
 .text          0x00021fb4       0x24 C:/Program Files/TeliumSDK/SDK11.16.8.02/SDKTPLUS/HW_TETRA/gnu_473/lib/Platform\libGRAPHICLIB.a(GL_Window_GetResult.o)
                0x00021fc0                GL_Window_GetResult
 .text          0x00021fd8       0x24 C:/Program Files/TeliumSDK/SDK11.16.8.02/SDKTPLUS/HW_TETRA/gnu_473/lib/Platform\libGRAPHICLIB.a(GL_Window_MainLoop.o)
                0x00021fe4                GL_Window_MainLoop
 .text          0x00021ffc       0x8c C:/Program Files/TeliumSDK/SDK11.16.8.02/SDKTPLUS/HW_TETRA/gnu_473/lib/Platform\libGRAPHICLIB.a(GL_link.o)
                0x00021ffc                GL_GetProcAddressWithoutExit
                0x0002205c                GL_GetProcAddress
                0x00022078                GL_IsPresent
 .text          0x00022088       0x2c C:/Program Files/TeliumSDK/SDK11.16.8.02/SDKTPLUS/HW_TETRA/gnu_473/lib/Platform\libGRAPHICLIB.a(gl_asm_link.o)
                0x00022088                GL_InitFuncAndBranch
                0x00022098                GL_Swi_ObjectLoad
                0x000220a6                GL_Swi_DllLink
 .text          0x000220b4       0x20 C:/Program Files/TeliumSDK/SDK11.16.8.02/SDKTPLUS/HW_TETRA/gnu_473/lib/Platform\libOSLAYER.a(OSL_Dll_Close.o)
                0x000220be                OSL_Dll_Close
 .text          0x000220d4       0x20 C:/Program Files/TeliumSDK/SDK11.16.8.02/SDKTPLUS/HW_TETRA/gnu_473/lib/Platform\libOSLAYER.a(OSL_Dll_GetSymbolByName.o)
                0x000220de                OSL_Dll_GetSymbolByName
 .text          0x000220f4       0x20 C:/Program Files/TeliumSDK/SDK11.16.8.02/SDKTPLUS/HW_TETRA/gnu_473/lib/Platform\libOSLAYER.a(OSL_Dll_IsPresent.o)
                0x000220fe                OSL_Dll_IsPresent
 .text          0x00022114       0x20 C:/Program Files/TeliumSDK/SDK11.16.8.02/SDKTPLUS/HW_TETRA/gnu_473/lib/Platform\libOSLAYER.a(OSL_Dll_Open.o)
                0x0002211e                OSL_Dll_Open
 .text          0x00022134       0x20 C:/Program Files/TeliumSDK/SDK11.16.8.02/SDKTPLUS/HW_TETRA/gnu_473/lib/Platform\libOSLAYER.a(OSL_Dll_OpenByAppliType.o)
                0x0002213e                OSL_Dll_OpenByAppliType
 .text          0x00022154       0x20 C:/Program Files/TeliumSDK/SDK11.16.8.02/SDKTPLUS/HW_TETRA/gnu_473/lib/Platform\libOSLAYER.a(OSL_TimeStp_ElapsedMs.o)
                0x0002215e                OSL_TimeStp_ElapsedMs
 .text          0x00022174       0x20 C:/Program Files/TeliumSDK/SDK11.16.8.02/SDKTPLUS/HW_TETRA/gnu_473/lib/Platform\libOSLAYER.a(OSL_TimeStp_Now.o)
                0x0002217e                OSL_TimeStp_Now
 .text          0x00022194       0xa4 C:/Program Files/TeliumSDK/SDK11.16.8.02/SDKTPLUS/HW_TETRA/gnu_473/lib/Platform\libgtl.a(GTL_StdTimer.o)
                0x00022194                GTL_StdTimer_GetCurrent
                0x000221c0                GTL_StdTimer_GetElapsed
                0x000221ec                GTL_StdTimer_GetRemaining
 .text          0x00022238       0x68 E:/IngeDev_8.18.0.5/toolchains/gnuArm47v7a-4/arm-islero-linux-gnueabi/sysroot/usr/lib/libc_nonshared.a(elf-init.oS)
                0x00022238                __libc_csu_init
                0x0002229c                __libc_csu_fini
 .text          0x000222a0      0x20c E:/IngeDev_8.18.0.5/toolchains/gnuArm47v7a-4/lib/gcc/arm-islero-linux-gnueabi/4.7.3\libgcc.a(_udivsi3.o)
                0x000222a0                __aeabi_uidiv
                0x000222a0                __udivsi3
                0x0002248c                __aeabi_uidivmod
 .text          0x000224ac       0x10 E:/IngeDev_8.18.0.5/toolchains/gnuArm47v7a-4/lib/gcc/arm-islero-linux-gnueabi/4.7.3\libgcc.a(_dvmd_lnx.o)
                0x000224ac                __aeabi_ldiv0
                0x000224ac                __aeabi_idiv0
 .text          0x000224bc       0x60 C:/Program Files/TeliumSDK/SDK11.16.8.02/SDKTPLUS/HW_TETRA/gnu_473/lib/Platform/libwrapper_tplus.lib(TMT_Retrieve_Clock.o)
                0x000224d0                TMT_Retrieve_Clock
 .text          0x0002251c        0x0 E:/IngeDev_8.18.0.5/toolchains/gnuArm47v7a-4/lib/gcc/arm-islero-linux-gnueabi/4.7.3/crtend.o
 .text          0x0002251c        0x0 E:/IngeDev_8.18.0.5/toolchains/gnuArm47v7a-4/arm-islero-linux-gnueabi/sysroot/usr/lib/crtn.o
 .text          0x0002251c        0x0 C:/Program Files/TeliumSDK/SDK11.16.8.02/SDKTPLUS/HW_TETRA/gnu_473/startfiles/stapp_legacyexitpoint.o
 *(.gnu.warning)
 *(.glue_7t)
 .glue_7t       0x00000000        0x0 linker stubs
 *(.glue_7)
 .glue_7        0x00000000        0x0 linker stubs
 *(.vfp11_veneer)
 .vfp11_veneer  0x00000000        0x0 linker stubs
 *(.v4_bx)
 .v4_bx         0x00000000        0x0 linker stubs

.fini           0x0002251c        0x8
 *(.fini)
 .fini          0x0002251c        0x4 E:/IngeDev_8.18.0.5/toolchains/gnuArm47v7a-4/arm-islero-linux-gnueabi/sysroot/usr/lib/crti.o
                0x0002251c                _fini
 .fini          0x00022520        0x4 E:/IngeDev_8.18.0.5/toolchains/gnuArm47v7a-4/arm-islero-linux-gnueabi/sysroot/usr/lib/crtn.o
                0x00022524                PROVIDE (__etext, .)
                0x00022524                PROVIDE (_etext, .)
                0x00022524                PROVIDE (etext, .)

.rodata         0x00022524     0x402c
 *(.rodata .rodata.* .gnu.linkonce.r.*)
 .rodata.cst4   0x00022524        0x4 E:/IngeDev_8.18.0.5/toolchains/gnuArm47v7a-4/arm-islero-linux-gnueabi/sysroot/usr/lib/crt1.o
                0x00022524                _IO_stdin_used
 .rodata        0x00022528      0x340 Obj/GNU_ARM_DEBUG_TETRA/Entry.o
 .rodata        0x00022868      0x134 Obj/GNU_ARM_DEBUG_TETRA/Menu.o
 .rodata        0x0002299c      0x784 Obj/GNU_ARM_DEBUG_TETRA/ComGPRS.o
 .rodata        0x00023120       0x84 Obj/GNU_ARM_DEBUG_TETRA/Goal.o
 .rodata        0x000231a4      0x1bc Obj/GNU_ARM_DEBUG_TETRA/Mapapp.o
 .rodata        0x00023360      0xb44 Obj/GNU_ARM_DEBUG_TETRA/FMG.o
 .rodata        0x00023ea4      0x7c0 Obj/GNU_ARM_DEBUG_TETRA/Utility.o
 .rodata        0x00024664      0x258 Obj/GNU_ARM_DEBUG_TETRA/Timer.o
 .rodata        0x000248bc       0x24 Obj/GNU_ARM_DEBUG_TETRA/transaction.o
 .rodata        0x000248e0      0x38c Obj/GNU_ARM_DEBUG_TETRA/globals.o
 .rodata        0x00024c6c      0x718 Obj/GNU_ARM_DEBUG_TETRA/magnetic.o
 .rodata        0x00025384      0xeb4 Obj/GNU_ARM_DEBUG_TETRA/schemes.o
                0x00025b38                zRootKeyPlainText
                0x00025b4c                zIso9564PinKey
                0x00025b60                zMacKey
 .rodata        0x00026238       0x28 Obj/GNU_ARM_DEBUG_TETRA/amount.o
 .rodata        0x00026260       0x6c C:/Users/bkirii/Desktop/c/base_test_14/TRAINAPP/lib/FMG_TPlus.a(VGE_FMG.o)
 .rodata        0x000262cc       0x44 C:/Users/bkirii/Desktop/c/base_test_14/TRAINAPP/lib/FMG_TPlus.a(md5.o)
 .rodata.str1.1
                0x00026310       0x40 C:/Program Files/TeliumSDK/SDK11.16.8.02/SDKTPLUS/HW_TETRA/gnu_473/lib/Platform/ExtraGPRS.lib(LIBGPRS_link.o)
 .rodata.str1.1
                0x00026350       0x46 C:/Program Files/TeliumSDK/SDK11.16.8.02/SDKTPLUS/HW_TETRA/gnu_473/lib/Platform/liblinklayer.lib(LINKLAYER_link.o)
 .rodata.str1.1
                0x00026396       0x52 C:/Program Files/TeliumSDK/SDK11.16.8.02/SDKTPLUS/HW_TETRA/gnu_473/lib/Platform/TlvTree.lib(TLV_TREE_DLL_link.o)
 .rodata.str1.1
                0x000263e8        0x8 C:/Program Files/TeliumSDK/SDK11.16.8.02/SDKTPLUS/HW_TETRA/gnu_473/lib/Platform/libwrapper_tplus.lib(extenstp1.o)
 .rodata.str1.1
                0x00000000        0x8 C:/Program Files/TeliumSDK/SDK11.16.8.02/SDKTPLUS/HW_TETRA/gnu_473/lib/Platform/libwrapper_tplus.lib(libgrtp1.o)
 .rodata.str1.1
                0x00000000        0x8 C:/Program Files/TeliumSDK/SDK11.16.8.02/SDKTPLUS/HW_TETRA/gnu_473/lib/Platform/libwrapper_tplus.lib(paramtp1.o)
 .rodata.str1.1
                0x00000000        0x8 C:/Program Files/TeliumSDK/SDK11.16.8.02/SDKTPLUS/HW_TETRA/gnu_473/lib/Platform/libwrapper_tplus.lib(pinpadtp1.o)
 .rodata.str1.1
                0x000263f0       0x10 C:/Program Files/TeliumSDK/SDK11.16.8.02/SDKTPLUS/HW_TETRA/gnu_473/lib/Platform/libwrapper_tplus.lib(extensttrois9.o)
 .rodata.str1.1
                0x00000000        0x8 C:/Program Files/TeliumSDK/SDK11.16.8.02/SDKTPLUS/HW_TETRA/gnu_473/lib/Platform/libwrapper_tplus.lib(toolstp1.o)
 .rodata.str1.1
                0x00026400        0x9 C:/Program Files/TeliumSDK/SDK11.16.8.02/SDKTPLUS/HW_TETRA/gnu_473/lib/Platform\libSec.a(Telium3.o)
 .rodata.str1.1
                0x00026409       0x3a C:/Program Files/TeliumSDK/SDK11.16.8.02/SDKTPLUS/HW_TETRA/gnu_473/lib/Platform\libSec.a(LIBSECV2_link.o)
                                 0x43 (size before relaxing)
 .rodata.str1.1
                0x00026443       0x6a C:/Program Files/TeliumSDK/SDK11.16.8.02/SDKTPLUS/HW_TETRA/gnu_473/lib/Platform\libGRAPHICLIB.a(GL_link.o)
 *fill*         0x000264ad        0x3 00
 .rodata        0x000264b0       0x18 C:/Program Files/TeliumSDK/SDK11.16.8.02/SDKTPLUS/HW_TETRA/gnu_473/startfiles/stapp_legacyexitpoint.o
 .rodata.str1.4
                0x000264c8       0x88 C:/Program Files/TeliumSDK/SDK11.16.8.02/SDKTPLUS/HW_TETRA/gnu_473/startfiles/stapp_legacyexitpoint.o
                                 0x86 (size before relaxing)

.rodata1
 *(.rodata1)

.ARM.extab      0x00026550        0x0
 *(.ARM.extab* .gnu.linkonce.armextab.*)
 .ARM.extab     0x00026550        0x0 E:/IngeDev_8.18.0.5/toolchains/gnuArm47v7a-4/arm-islero-linux-gnueabi/sysroot/usr/lib/crt1.o
                0x00026550                PROVIDE (__exidx_start, .)

.ARM.exidx      0x00026550        0x8
 *(.ARM.exidx* .gnu.linkonce.armexidx.*)
 .ARM.exidx     0x00026550        0x8 E:/IngeDev_8.18.0.5/toolchains/gnuArm47v7a-4/arm-islero-linux-gnueabi/sysroot/usr/lib/crt1.o
                0x00026558                PROVIDE (__exidx_end, .)

.eh_frame_hdr
 *(.eh_frame_hdr)

.eh_frame       0x00026558        0x4
 *(.eh_frame)
 .eh_frame      0x00026558        0x4 E:/IngeDev_8.18.0.5/toolchains/gnuArm47v7a-4/lib/gcc/arm-islero-linux-gnueabi/4.7.3/crtend.o

.gcc_except_table
 *(.gcc_except_table .gcc_except_table.*)
                0x0002655c                . = (ALIGN (0x8000) - ((0x8000 - .) & 0x7fff))
                0x0002f000                . = DATA_SEGMENT_ALIGN (0x8000, 0x1000)

.eh_frame
 *(.eh_frame)

.gcc_except_table
 *(.gcc_except_table .gcc_except_table.*)

.tdata
 *(.tdata .tdata.* .gnu.linkonce.td.*)

.tbss
 *(.tbss .tbss.* .gnu.linkonce.tb.*)
 *(.tcommon)

.preinit_array  0x0002f000        0x0
                0x0002f000                PROVIDE (__preinit_array_start, .)
 *(.preinit_array)
                0x0002f000                PROVIDE (__preinit_array_end, .)

.init_array     0x0002f000        0x8
                0x0002f000                PROVIDE (__init_array_start, .)
 *(SORT(.init_array.*))
 .init_array.00101
                0x0002f000        0x4 C:/Program Files/TeliumSDK/SDK11.16.8.02/SDKTPLUS/HW_TETRA/gnu_473/startfiles/startup_tplusentry.o
 *(.init_array)
 .init_array    0x0002f004        0x4 E:/IngeDev_8.18.0.5/toolchains/gnuArm47v7a-4/lib/gcc/arm-islero-linux-gnueabi/4.7.3/crtbegin.o
                0x0002f008                PROVIDE (__init_array_end, .)

.fini_array     0x0002f008        0xc
                0x0002f008                PROVIDE (__fini_array_start, .)
 *(SORT(.fini_array.*))
 .fini_array.00101
                0x0002f008        0x4 C:/Program Files/TeliumSDK/SDK11.16.8.02/SDKTPLUS/HW_TETRA/gnu_473/startfiles/stapp_legacyexitpoint.o
 .fini_array.00201
                0x0002f00c        0x4 C:/Program Files/TeliumSDK/SDK11.16.8.02/SDKTPLUS/HW_TETRA/gnu_473/startfiles/stapp_legacyexitpoint.o
 *(.fini_array)
 .fini_array    0x0002f010        0x4 E:/IngeDev_8.18.0.5/toolchains/gnuArm47v7a-4/lib/gcc/arm-islero-linux-gnueabi/4.7.3/crtbegin.o
                0x0002f014                PROVIDE (__fini_array_end, .)

.ctors
 *crtbegin.o(.ctors)
 *crtbegin?.o(.ctors)
 *(EXCLUDE_FILE(*crtend?.o *crtend.o) .ctors)
 *(SORT(.ctors.*))
 *(.ctors)

.dtors
 *crtbegin.o(.dtors)
 *crtbegin?.o(.dtors)
 *(EXCLUDE_FILE(*crtend?.o *crtend.o) .dtors)
 *(SORT(.dtors.*))
 *(.dtors)

.jcr            0x0002f014        0x4
 *(.jcr)
 .jcr           0x0002f014        0x0 E:/IngeDev_8.18.0.5/toolchains/gnuArm47v7a-4/lib/gcc/arm-islero-linux-gnueabi/4.7.3/crtbegin.o
 .jcr           0x0002f014        0x4 E:/IngeDev_8.18.0.5/toolchains/gnuArm47v7a-4/lib/gcc/arm-islero-linux-gnueabi/4.7.3/crtend.o

.data.rel.ro
 *(.data.rel.ro.local* .gnu.linkonce.d.rel.ro.local.*)
 *(.data.rel.ro* .gnu.linkonce.d.rel.ro.*)

.dynamic        0x0002f018      0x100
 *(.dynamic)
 .dynamic       0x0002f018      0x100 E:/IngeDev_8.18.0.5/toolchains/gnuArm47v7a-4/arm-islero-linux-gnueabi/sysroot/usr/lib/crti.o
                0x0002f018                _DYNAMIC
                0x0002f118                . = DATA_SEGMENT_RELRO_END (., 0x0)

.got            0x0002f118      0x110
 *(.got.plt)
 .got.plt       0x0002f118       0xa4 E:/IngeDev_8.18.0.5/toolchains/gnuArm47v7a-4/arm-islero-linux-gnueabi/sysroot/usr/lib/crti.o
                0x0002f118                _GLOBAL_OFFSET_TABLE_
 *(.igot.plt)
 *(.got)
 .got           0x0002f1bc       0x6c E:/IngeDev_8.18.0.5/toolchains/gnuArm47v7a-4/arm-islero-linux-gnueabi/sysroot/usr/lib/crti.o
 *(.igot)

.data           0x0002f230      0xcb0
                0x0002f230                PROVIDE (__data_start, .)
 *(.data .data.* .gnu.linkonce.d.*)
 .data          0x0002f230        0x0 E:/IngeDev_8.18.0.5/toolchains/gnuArm47v7a-4/arm-islero-linux-gnueabi/sysroot/usr/lib/crti.o
 .data          0x0002f230        0x4 E:/IngeDev_8.18.0.5/toolchains/gnuArm47v7a-4/arm-islero-linux-gnueabi/sysroot/usr/lib/crt1.o
                0x0002f230                __data_start
                0x0002f230                data_start
 .data          0x0002f234        0x4 E:/IngeDev_8.18.0.5/toolchains/gnuArm47v7a-4/lib/gcc/arm-islero-linux-gnueabi/4.7.3/crtbegin.o
                0x0002f234                __dso_handle
 .data          0x0002f238        0x0 C:/Program Files/TeliumSDK/SDK11.16.8.02/SDKTPLUS/HW_TETRA/gnu_473/startfiles/startup_tplusentry.o
 .data          0x0002f238        0x0 Obj/GNU_ARM_DEBUG_TETRA/Main.o
 .data          0x0002f238      0x108 Obj/GNU_ARM_DEBUG_TETRA/Entry.o
 .data          0x0002f340        0x0 Obj/GNU_ARM_DEBUG_TETRA/Menu.o
 .data          0x0002f340        0xc Obj/GNU_ARM_DEBUG_TETRA/ComGPRS.o
 .data          0x0002f34c        0x0 Obj/GNU_ARM_DEBUG_TETRA/Goal.o
 .data          0x0002f34c        0x0 Obj/GNU_ARM_DEBUG_TETRA/Mapapp.o
 .data          0x0002f34c        0x0 Obj/GNU_ARM_DEBUG_TETRA/FMG.o
 .data          0x0002f34c       0x14 Obj/GNU_ARM_DEBUG_TETRA/Utility.o
 .data          0x0002f360        0x0 Obj/GNU_ARM_DEBUG_TETRA/Timer.o
 .data          0x0002f360      0x400 Obj/GNU_ARM_DEBUG_TETRA/iso8583.o
 .data          0x0002f760        0x0 Obj/GNU_ARM_DEBUG_TETRA/transaction.o
 .data          0x0002f760        0x0 Obj/GNU_ARM_DEBUG_TETRA/globals.o
 .data          0x0002f760        0x0 Obj/GNU_ARM_DEBUG_TETRA/magnetic.o
 .data          0x0002f760        0xc Obj/GNU_ARM_DEBUG_TETRA/schemes.o
 .data          0x0002f76c        0x0 Obj/GNU_ARM_DEBUG_TETRA/amount.o
 .data          0x0002f76c        0x0 C:/Users/bkirii/Desktop/c/base_test_14/TRAINAPP/lib/FMG_TPlus.a(VGE_FMG.o)
 .data.rel.local
                0x0002f76c        0xc C:/Users/bkirii/Desktop/c/base_test_14/TRAINAPP/lib/FMG_TPlus.a(VGE_FMG.o)
                0x0002f76c                g_FileType
 .data          0x0002f778        0x0 C:/Users/bkirii/Desktop/c/base_test_14/TRAINAPP/lib/FMG_TPlus.a(md5.o)
 *fill*         0x0002f778        0x8 00
 .data          0x0002f780       0x10 C:/Program Files/TeliumSDK/SDK11.16.8.02/SDKTPLUS/HW_TETRA/gnu_473/lib/Platform/ExtraGPRS.lib(gprs_GetInformation.o)
 .data          0x0002f790       0x10 C:/Program Files/TeliumSDK/SDK11.16.8.02/SDKTPLUS/HW_TETRA/gnu_473/lib/Platform/ExtraGPRS.lib(gprs_SetPinModeFree.o)
 .data          0x0002f7a0       0x10 C:/Program Files/TeliumSDK/SDK11.16.8.02/SDKTPLUS/HW_TETRA/gnu_473/lib/Platform/ExtraGPRS.lib(gprs_SubmitPuk.o)
 .data          0x0002f7b0        0x0 C:/Program Files/TeliumSDK/SDK11.16.8.02/SDKTPLUS/HW_TETRA/gnu_473/lib/Platform/ExtraGPRS.lib(LIBGPRS_asm_link.o)
 .data          0x0002f7b0        0x0 C:/Program Files/TeliumSDK/SDK11.16.8.02/SDKTPLUS/HW_TETRA/gnu_473/lib/Platform/ExtraGPRS.lib(LIBGPRS_link.o)
 .data          0x0002f7b0       0x10 C:/Program Files/TeliumSDK/SDK11.16.8.02/SDKTPLUS/HW_TETRA/gnu_473/lib/Platform/liblinklayer.lib(LL_ClearReceiveBuffer.o)
 .data          0x0002f7c0       0x10 C:/Program Files/TeliumSDK/SDK11.16.8.02/SDKTPLUS/HW_TETRA/gnu_473/lib/Platform/liblinklayer.lib(LL_ClearSendBuffer.o)
 .data          0x0002f7d0       0x10 C:/Program Files/TeliumSDK/SDK11.16.8.02/SDKTPLUS/HW_TETRA/gnu_473/lib/Platform/liblinklayer.lib(LL_Configure.o)
 .data          0x0002f7e0       0x10 C:/Program Files/TeliumSDK/SDK11.16.8.02/SDKTPLUS/HW_TETRA/gnu_473/lib/Platform/liblinklayer.lib(LL_Connect.o)
 .data          0x0002f7f0       0x10 C:/Program Files/TeliumSDK/SDK11.16.8.02/SDKTPLUS/HW_TETRA/gnu_473/lib/Platform/liblinklayer.lib(LL_Disconnect.o)
 .data          0x0002f800       0x10 C:/Program Files/TeliumSDK/SDK11.16.8.02/SDKTPLUS/HW_TETRA/gnu_473/lib/Platform/liblinklayer.lib(LL_GetLastError.o)
 .data          0x0002f810       0x10 C:/Program Files/TeliumSDK/SDK11.16.8.02/SDKTPLUS/HW_TETRA/gnu_473/lib/Platform/liblinklayer.lib(LL_GPRS_Connect.o)
 .data          0x0002f820       0x10 C:/Program Files/TeliumSDK/SDK11.16.8.02/SDKTPLUS/HW_TETRA/gnu_473/lib/Platform/liblinklayer.lib(LL_GPRS_Start.o)
 .data          0x0002f830       0x10 C:/Program Files/TeliumSDK/SDK11.16.8.02/SDKTPLUS/HW_TETRA/gnu_473/lib/Platform/liblinklayer.lib(LL_GSM_Start.o)
 .data          0x0002f840       0x10 C:/Program Files/TeliumSDK/SDK11.16.8.02/SDKTPLUS/HW_TETRA/gnu_473/lib/Platform/liblinklayer.lib(LL_Network_GetStatus.o)
 .data          0x0002f850       0x10 C:/Program Files/TeliumSDK/SDK11.16.8.02/SDKTPLUS/HW_TETRA/gnu_473/lib/Platform/liblinklayer.lib(LL_Receive.o)
 .data          0x0002f860       0x10 C:/Program Files/TeliumSDK/SDK11.16.8.02/SDKTPLUS/HW_TETRA/gnu_473/lib/Platform/liblinklayer.lib(LL_Send.o)
 .data          0x0002f870        0x0 C:/Program Files/TeliumSDK/SDK11.16.8.02/SDKTPLUS/HW_TETRA/gnu_473/lib/Platform/liblinklayer.lib(LINKLAYER_asm_link.o)
 .data          0x0002f870        0x0 C:/Program Files/TeliumSDK/SDK11.16.8.02/SDKTPLUS/HW_TETRA/gnu_473/lib/Platform/liblinklayer.lib(LINKLAYER_link.o)
 .data          0x0002f870       0x10 C:/Program Files/TeliumSDK/SDK11.16.8.02/SDKTPLUS/HW_TETRA/gnu_473/lib/Platform/TlvTree.lib(TlvTree_AddChild.o)
 .data          0x0002f880       0x10 C:/Program Files/TeliumSDK/SDK11.16.8.02/SDKTPLUS/HW_TETRA/gnu_473/lib/Platform/TlvTree.lib(TlvTree_AddChildInteger.o)
 .data          0x0002f890       0x10 C:/Program Files/TeliumSDK/SDK11.16.8.02/SDKTPLUS/HW_TETRA/gnu_473/lib/Platform/TlvTree.lib(TlvTree_AddChildString.o)
 .data          0x0002f8a0       0x10 C:/Program Files/TeliumSDK/SDK11.16.8.02/SDKTPLUS/HW_TETRA/gnu_473/lib/Platform/TlvTree.lib(TlvTree_New.o)
 .data          0x0002f8b0       0x10 C:/Program Files/TeliumSDK/SDK11.16.8.02/SDKTPLUS/HW_TETRA/gnu_473/lib/Platform/TlvTree.lib(TlvTree_Release.o)
 .data          0x0002f8c0        0x0 C:/Program Files/TeliumSDK/SDK11.16.8.02/SDKTPLUS/HW_TETRA/gnu_473/lib/Platform/TlvTree.lib(TLV_TREE_DLL_asm_link.o)
 .data          0x0002f8c0        0x0 C:/Program Files/TeliumSDK/SDK11.16.8.02/SDKTPLUS/HW_TETRA/gnu_473/lib/Platform/TlvTree.lib(TLV_TREE_DLL_link.o)
 .data          0x0002f8c0        0x4 C:/Program Files/TeliumSDK/SDK11.16.8.02/SDKTPLUS/HW_TETRA/gnu_473/lib/Platform/libwrapper_tplus.lib(DLLExist.o)
 .data          0x0002f8c4        0x4 C:/Program Files/TeliumSDK/SDK11.16.8.02/SDKTPLUS/HW_TETRA/gnu_473/lib/Platform/libwrapper_tplus.lib(d_tolong.o)
 .data          0x0002f8c8        0x4 C:/Program Files/TeliumSDK/SDK11.16.8.02/SDKTPLUS/HW_TETRA/gnu_473/lib/Platform/libwrapper_tplus.lib(stdcam0.o)
 .data          0x0002f8cc        0x0 C:/Program Files/TeliumSDK/SDK11.16.8.02/SDKTPLUS/HW_TETRA/gnu_473/lib/Platform/libwrapper_tplus.lib(extenstp1.o)
 .data          0x0002f8cc        0x4 C:/Program Files/TeliumSDK/SDK11.16.8.02/SDKTPLUS/HW_TETRA/gnu_473/lib/Platform/libwrapper_tplus.lib(Telium_Fclose.o)
 .data          0x0002f8d0        0x4 C:/Program Files/TeliumSDK/SDK11.16.8.02/SDKTPLUS/HW_TETRA/gnu_473/lib/Platform/libwrapper_tplus.lib(Telium_Fopen.o)
 .data          0x0002f8d4        0x4 C:/Program Files/TeliumSDK/SDK11.16.8.02/SDKTPLUS/HW_TETRA/gnu_473/lib/Platform/libwrapper_tplus.lib(Telium_Getc.o)
 .data          0x0002f8d8        0x4 C:/Program Files/TeliumSDK/SDK11.16.8.02/SDKTPLUS/HW_TETRA/gnu_473/lib/Platform/libwrapper_tplus.lib(Telium_Is_iso1.o)
 .data          0x0002f8dc        0x4 C:/Program Files/TeliumSDK/SDK11.16.8.02/SDKTPLUS/HW_TETRA/gnu_473/lib/Platform/libwrapper_tplus.lib(Telium_Is_iso2.o)
 .data          0x0002f8e0        0x4 C:/Program Files/TeliumSDK/SDK11.16.8.02/SDKTPLUS/HW_TETRA/gnu_473/lib/Platform/libwrapper_tplus.lib(Telium_Is_iso3.o)
 .data          0x0002f8e4        0x4 C:/Program Files/TeliumSDK/SDK11.16.8.02/SDKTPLUS/HW_TETRA/gnu_473/lib/Platform/libwrapper_tplus.lib(Telium_Reset_buf.o)
 .data          0x0002f8e8        0x4 C:/Program Files/TeliumSDK/SDK11.16.8.02/SDKTPLUS/HW_TETRA/gnu_473/lib/Platform/libwrapper_tplus.lib(Telium_Status.o)
 .data          0x0002f8ec        0x4 C:/Program Files/TeliumSDK/SDK11.16.8.02/SDKTPLUS/HW_TETRA/gnu_473/lib/Platform/libwrapper_tplus.lib(Telium_Stdin.o)
 .data          0x0002f8f0        0x4 C:/Program Files/TeliumSDK/SDK11.16.8.02/SDKTPLUS/HW_TETRA/gnu_473/lib/Platform/libwrapper_tplus.lib(Telium_Stdout.o)
 .data          0x0002f8f4        0x4 C:/Program Files/TeliumSDK/SDK11.16.8.02/SDKTPLUS/HW_TETRA/gnu_473/lib/Platform/libwrapper_tplus.lib(Telium_Stdperif.o)
 .data          0x0002f8f8        0x4 C:/Program Files/TeliumSDK/SDK11.16.8.02/SDKTPLUS/HW_TETRA/gnu_473/lib/Platform/libwrapper_tplus.lib(Telium_Ttestall.o)
 .data          0x0002f8fc        0x4 C:/Program Files/TeliumSDK/SDK11.16.8.02/SDKTPLUS/HW_TETRA/gnu_473/lib/Platform/libwrapper_tplus.lib(buzzer.o)
 .data          0x0002f900        0x4 C:/Program Files/TeliumSDK/SDK11.16.8.02/SDKTPLUS/HW_TETRA/gnu_473/lib/Platform/libwrapper_tplus.lib(DrawExtendedString.o)
 .data          0x0002f904        0x4 C:/Program Files/TeliumSDK/SDK11.16.8.02/SDKTPLUS/HW_TETRA/gnu_473/lib/Platform/libwrapper_tplus.lib(InitContexteGraphique.o)
 .data          0x0002f908        0x4 C:/Program Files/TeliumSDK/SDK11.16.8.02/SDKTPLUS/HW_TETRA/gnu_473/lib/Platform/libwrapper_tplus.lib(PaintGraphics.o)
 .data          0x0002f90c        0x4 C:/Program Files/TeliumSDK/SDK11.16.8.02/SDKTPLUS/HW_TETRA/gnu_473/lib/Platform/libwrapper_tplus.lib(_DrawExtendedString.o)
 .data          0x0002f910        0x0 C:/Program Files/TeliumSDK/SDK11.16.8.02/SDKTPLUS/HW_TETRA/gnu_473/lib/Platform/libwrapper_tplus.lib(libgrtp1.o)
 .data          0x0002f910        0x4 C:/Program Files/TeliumSDK/SDK11.16.8.02/SDKTPLUS/HW_TETRA/gnu_473/lib/Platform/libwrapper_tplus.lib(PSQ_Est_pinpad.o)
 .data          0x0002f914        0x4 C:/Program Files/TeliumSDK/SDK11.16.8.02/SDKTPLUS/HW_TETRA/gnu_473/lib/Platform/libwrapper_tplus.lib(PSQ_donner_type_pinpad.o)
 .data          0x0002f918        0x0 C:/Program Files/TeliumSDK/SDK11.16.8.02/SDKTPLUS/HW_TETRA/gnu_473/lib/Platform/libwrapper_tplus.lib(paramtp1.o)
 .data          0x0002f918        0x4 C:/Program Files/TeliumSDK/SDK11.16.8.02/SDKTPLUS/HW_TETRA/gnu_473/lib/Platform/libwrapper_tplus.lib(IsPPSConnected.o)
 .data          0x0002f91c        0x4 C:/Program Files/TeliumSDK/SDK11.16.8.02/SDKTPLUS/HW_TETRA/gnu_473/lib/Platform/libwrapper_tplus.lib(PPS_SendTerminalRefRequestCommand.o)
 .data          0x0002f920        0x4 C:/Program Files/TeliumSDK/SDK11.16.8.02/SDKTPLUS/HW_TETRA/gnu_473/lib/Platform/libwrapper_tplus.lib(PPS_firstline.o)
 .data          0x0002f924        0x4 C:/Program Files/TeliumSDK/SDK11.16.8.02/SDKTPLUS/HW_TETRA/gnu_473/lib/Platform/libwrapper_tplus.lib(PPS_newline.o)
 .data          0x0002f928        0x0 C:/Program Files/TeliumSDK/SDK11.16.8.02/SDKTPLUS/HW_TETRA/gnu_473/lib/Platform/libwrapper_tplus.lib(pinpadtp1.o)
 .data          0x0002f928        0x4 C:/Program Files/TeliumSDK/SDK11.16.8.02/SDKTPLUS/HW_TETRA/gnu_473/lib/Platform/libwrapper_tplus.lib(PPS_Display.o)
 .data          0x0002f92c        0x4 C:/Program Files/TeliumSDK/SDK11.16.8.02/SDKTPLUS/HW_TETRA/gnu_473/lib/Platform/libwrapper_tplus.lib(Telium_Read_date.o)
 .data          0x0002f930        0x4 C:/Program Files/TeliumSDK/SDK11.16.8.02/SDKTPLUS/HW_TETRA/gnu_473/lib/Platform/libwrapper_tplus.lib(BoosterType.o)
 .data          0x0002f934        0x4 C:/Program Files/TeliumSDK/SDK11.16.8.02/SDKTPLUS/HW_TETRA/gnu_473/lib/Platform/libwrapper_tplus.lib(IsColorDisplay.o)
 .data          0x0002f938        0x4 C:/Program Files/TeliumSDK/SDK11.16.8.02/SDKTPLUS/HW_TETRA/gnu_473/lib/Platform/libwrapper_tplus.lib(IsISO1.o)
 .data          0x0002f93c        0x4 C:/Program Files/TeliumSDK/SDK11.16.8.02/SDKTPLUS/HW_TETRA/gnu_473/lib/Platform/libwrapper_tplus.lib(IsISO2.o)
 .data          0x0002f940        0x4 C:/Program Files/TeliumSDK/SDK11.16.8.02/SDKTPLUS/HW_TETRA/gnu_473/lib/Platform/libwrapper_tplus.lib(IsISO3.o)
 .data          0x0002f944        0x4 C:/Program Files/TeliumSDK/SDK11.16.8.02/SDKTPLUS/HW_TETRA/gnu_473/lib/Platform/libwrapper_tplus.lib(IsPrinter.o)
 .data          0x0002f948        0x4 C:/Program Files/TeliumSDK/SDK11.16.8.02/SDKTPLUS/HW_TETRA/gnu_473/lib/Platform/libwrapper_tplus.lib(Telium_ServiceRegister.o)
 .data          0x0002f94c        0x0 C:/Program Files/TeliumSDK/SDK11.16.8.02/SDKTPLUS/HW_TETRA/gnu_473/lib/Platform/libwrapper_tplus.lib(Telium_Pprintf.o)
 .data          0x0002f94c        0x0 C:/Program Files/TeliumSDK/SDK11.16.8.02/SDKTPLUS/HW_TETRA/gnu_473/lib/Platform/libwrapper_tplus.lib(Telium_Printf.o)
 .data          0x0002f94c        0x0 C:/Program Files/TeliumSDK/SDK11.16.8.02/SDKTPLUS/HW_TETRA/gnu_473/lib/Platform/libwrapper_tplus.lib(Telium_Stdprt.o)
 .data          0x0002f94c        0x0 C:/Program Files/TeliumSDK/SDK11.16.8.02/SDKTPLUS/HW_TETRA/gnu_473/lib/Platform/libwrapper_tplus.lib(Telium_Sprintf.o)
 .data          0x0002f94c        0x4 C:/Program Files/TeliumSDK/SDK11.16.8.02/SDKTPLUS/HW_TETRA/gnu_473/lib/Platform/libwrapper_tplus.lib(ApplicationGetCurrent.o)
 .data          0x0002f950        0x4 C:/Program Files/TeliumSDK/SDK11.16.8.02/SDKTPLUS/HW_TETRA/gnu_473/lib/Platform/libwrapper_tplus.lib(FS_close.o)
 .data          0x0002f954        0x4 C:/Program Files/TeliumSDK/SDK11.16.8.02/SDKTPLUS/HW_TETRA/gnu_473/lib/Platform/libwrapper_tplus.lib(FS_dskcreate.o)
 .data          0x0002f958        0x4 C:/Program Files/TeliumSDK/SDK11.16.8.02/SDKTPLUS/HW_TETRA/gnu_473/lib/Platform/libwrapper_tplus.lib(FS_exist.o)
 .data          0x0002f95c        0x4 C:/Program Files/TeliumSDK/SDK11.16.8.02/SDKTPLUS/HW_TETRA/gnu_473/lib/Platform/libwrapper_tplus.lib(FS_length.o)
 .data          0x0002f960        0x4 C:/Program Files/TeliumSDK/SDK11.16.8.02/SDKTPLUS/HW_TETRA/gnu_473/lib/Platform/libwrapper_tplus.lib(FS_mount.o)
 .data          0x0002f964        0x4 C:/Program Files/TeliumSDK/SDK11.16.8.02/SDKTPLUS/HW_TETRA/gnu_473/lib/Platform/libwrapper_tplus.lib(FS_open.o)
 .data          0x0002f968        0x4 C:/Program Files/TeliumSDK/SDK11.16.8.02/SDKTPLUS/HW_TETRA/gnu_473/lib/Platform/libwrapper_tplus.lib(FS_read.o)
 .data          0x0002f96c        0x4 C:/Program Files/TeliumSDK/SDK11.16.8.02/SDKTPLUS/HW_TETRA/gnu_473/lib/Platform/libwrapper_tplus.lib(FS_rename.o)
 .data          0x0002f970        0x4 C:/Program Files/TeliumSDK/SDK11.16.8.02/SDKTPLUS/HW_TETRA/gnu_473/lib/Platform/libwrapper_tplus.lib(FS_seek.o)
 .data          0x0002f974        0x4 C:/Program Files/TeliumSDK/SDK11.16.8.02/SDKTPLUS/HW_TETRA/gnu_473/lib/Platform/libwrapper_tplus.lib(FS_unlink.o)
 .data          0x0002f978        0x4 C:/Program Files/TeliumSDK/SDK11.16.8.02/SDKTPLUS/HW_TETRA/gnu_473/lib/Platform/libwrapper_tplus.lib(FS_unmount.o)
 .data          0x0002f97c        0x4 C:/Program Files/TeliumSDK/SDK11.16.8.02/SDKTPLUS/HW_TETRA/gnu_473/lib/Platform/libwrapper_tplus.lib(FS_write.o)
 .data          0x0002f980        0x4 C:/Program Files/TeliumSDK/SDK11.16.8.02/SDKTPLUS/HW_TETRA/gnu_473/lib/Platform/libwrapper_tplus.lib(ObjectGetDescriptor.o)
 .data          0x0002f984        0x4 C:/Program Files/TeliumSDK/SDK11.16.8.02/SDKTPLUS/HW_TETRA/gnu_473/lib/Platform/libwrapper_tplus.lib(ObjectGetInfo.o)
 .data          0x0002f988        0x4 C:/Program Files/TeliumSDK/SDK11.16.8.02/SDKTPLUS/HW_TETRA/gnu_473/lib/Platform/libwrapper_tplus.lib(PageAlloc.o)
 .data          0x0002f98c        0x4 C:/Program Files/TeliumSDK/SDK11.16.8.02/SDKTPLUS/HW_TETRA/gnu_473/lib/Platform/libwrapper_tplus.lib(PageFree.o)
 .data          0x0002f990        0x4 C:/Program Files/TeliumSDK/SDK11.16.8.02/SDKTPLUS/HW_TETRA/gnu_473/lib/Platform/libwrapper_tplus.lib(first_init.o)
 .data          0x0002f994        0x4 C:/Program Files/TeliumSDK/SDK11.16.8.02/SDKTPLUS/HW_TETRA/gnu_473/lib/Platform/libwrapper_tplus.lib(raz_init.o)
 .data          0x0002f998        0x4 C:/Program Files/TeliumSDK/SDK11.16.8.02/SDKTPLUS/HW_TETRA/gnu_473/lib/Platform/libwrapper_tplus.lib(DisplayFooter.o)
 .data          0x0002f99c        0x4 C:/Program Files/TeliumSDK/SDK11.16.8.02/SDKTPLUS/HW_TETRA/gnu_473/lib/Platform/libwrapper_tplus.lib(DisplayHeader.o)
 .data          0x0002f9a0        0x4 C:/Program Files/TeliumSDK/SDK11.16.8.02/SDKTPLUS/HW_TETRA/gnu_473/lib/Platform/libwrapper_tplus.lib(DisplayLeds.o)
 .data          0x0002f9a4        0x4 C:/Program Files/TeliumSDK/SDK11.16.8.02/SDKTPLUS/HW_TETRA/gnu_473/lib/Platform/libwrapper_tplus.lib(IsFooter.o)
 .data          0x0002f9a8        0x4 C:/Program Files/TeliumSDK/SDK11.16.8.02/SDKTPLUS/HW_TETRA/gnu_473/lib/Platform/libwrapper_tplus.lib(IsHeader.o)
 .data          0x0002f9ac        0x4 C:/Program Files/TeliumSDK/SDK11.16.8.02/SDKTPLUS/HW_TETRA/gnu_473/lib/Platform/libwrapper_tplus.lib(Telium_Exit.o)
 .data          0x0002f9b0        0x4 C:/Program Files/TeliumSDK/SDK11.16.8.02/SDKTPLUS/HW_TETRA/gnu_473/lib/Platform/libwrapper_tplus.lib(upload_diagnostic_txt.o)
 .data          0x0002f9b4        0x0 C:/Program Files/TeliumSDK/SDK11.16.8.02/SDKTPLUS/HW_TETRA/gnu_473/lib/Platform/libwrapper_tplus.lib(emulationtp1.o)
 .data          0x0002f9b4        0x4 C:/Program Files/TeliumSDK/SDK11.16.8.02/SDKTPLUS/HW_TETRA/gnu_473/lib/Platform/libwrapper_tplus.lib(TM_InitContexteGraphique.o)
 .data          0x0002f9b8        0x0 C:/Program Files/TeliumSDK/SDK11.16.8.02/SDKTPLUS/HW_TETRA/gnu_473/lib/Platform/libwrapper_tplus.lib(extensttrois9.o)
 .data          0x0002f9b8        0x0 C:/Program Files/TeliumSDK/SDK11.16.8.02/SDKTPLUS/HW_TETRA/gnu_473/lib/Platform/libwrapper_tplus.lib(toolstp1.o)
 .data          0x0002f9b8        0x0 C:/Program Files/TeliumSDK/SDK11.16.8.02/SDKTPLUS/HW_TETRA/gnu_473/lib/Platform/libwrapper_tplus.lib(wrappertp1.o)
 *fill*         0x0002f9b8        0x8 00
 .data          0x0002f9c0       0x10 C:/Program Files/TeliumSDK/SDK11.16.8.02/SDKTPLUS/HW_TETRA/gnu_473/lib/Platform\libSec.a(SEC_ComputeMAC.o)
 .data          0x0002f9d0       0x10 C:/Program Files/TeliumSDK/SDK11.16.8.02/SDKTPLUS/HW_TETRA/gnu_473/lib/Platform\libSec.a(SEC_GetConfig.o)
 .data          0x0002f9e0       0x10 C:/Program Files/TeliumSDK/SDK11.16.8.02/SDKTPLUS/HW_TETRA/gnu_473/lib/Platform\libSec.a(SEC_Iso9564.o)
 .data          0x0002f9f0       0x10 C:/Program Files/TeliumSDK/SDK11.16.8.02/SDKTPLUS/HW_TETRA/gnu_473/lib/Platform\libSec.a(SEC_isSecretArea.o)
 .data          0x0002fa00       0x10 C:/Program Files/TeliumSDK/SDK11.16.8.02/SDKTPLUS/HW_TETRA/gnu_473/lib/Platform\libSec.a(SEC_KeyVerify.o)
 .data          0x0002fa10       0x10 C:/Program Files/TeliumSDK/SDK11.16.8.02/SDKTPLUS/HW_TETRA/gnu_473/lib/Platform\libSec.a(SEC_listSecureId.o)
 .data          0x0002fa20       0x10 C:/Program Files/TeliumSDK/SDK11.16.8.02/SDKTPLUS/HW_TETRA/gnu_473/lib/Platform\libSec.a(SEC_listTLVKeys.o)
 .data          0x0002fa30       0x10 C:/Program Files/TeliumSDK/SDK11.16.8.02/SDKTPLUS/HW_TETRA/gnu_473/lib/Platform\libSec.a(SEC_LoadKey.o)
 .data          0x0002fa40       0x10 C:/Program Files/TeliumSDK/SDK11.16.8.02/SDKTPLUS/HW_TETRA/gnu_473/lib/Platform\libSec.a(SEC_PinEntry.o)
 .data          0x0002fa50       0x10 C:/Program Files/TeliumSDK/SDK11.16.8.02/SDKTPLUS/HW_TETRA/gnu_473/lib/Platform\libSec.a(SEC_PinEntryInit.o)
 .data          0x0002fa60       0x10 C:/Program Files/TeliumSDK/SDK11.16.8.02/SDKTPLUS/HW_TETRA/gnu_473/lib/Platform\libSec.a(SEC_SetConfig.o)
 .data          0x0002fa70        0x0 C:/Program Files/TeliumSDK/SDK11.16.8.02/SDKTPLUS/HW_TETRA/gnu_473/lib/Platform\libSec.a(Telium3.o)
 .data          0x0002fa70        0x0 C:/Program Files/TeliumSDK/SDK11.16.8.02/SDKTPLUS/HW_TETRA/gnu_473/lib/Platform\libSec.a(LIBSECV2_asm_link.o)
 .data          0x0002fa70        0x0 C:/Program Files/TeliumSDK/SDK11.16.8.02/SDKTPLUS/HW_TETRA/gnu_473/lib/Platform\libSec.a(LIBSECV2_link.o)
 .data          0x0002fa70       0x10 C:/Program Files/TeliumSDK/SDK11.16.8.02/SDKTPLUS/HW_TETRA/gnu_473/lib/Platform\libGRAPHICLIB.a(GL_Button_Create.o)
 .data          0x0002fa80       0x10 C:/Program Files/TeliumSDK/SDK11.16.8.02/SDKTPLUS/HW_TETRA/gnu_473/lib/Platform\libGRAPHICLIB.a(GL_Dialog_Amount.o)
 .data          0x0002fa90       0x10 C:/Program Files/TeliumSDK/SDK11.16.8.02/SDKTPLUS/HW_TETRA/gnu_473/lib/Platform\libGRAPHICLIB.a(GL_Dialog_Choice.o)
 .data          0x0002faa0       0x10 C:/Program Files/TeliumSDK/SDK11.16.8.02/SDKTPLUS/HW_TETRA/gnu_473/lib/Platform\libGRAPHICLIB.a(GL_Dialog_Menu.o)
 .data          0x0002fab0       0x10 C:/Program Files/TeliumSDK/SDK11.16.8.02/SDKTPLUS/HW_TETRA/gnu_473/lib/Platform\libGRAPHICLIB.a(GL_Dialog_Message.o)
 .data          0x0002fac0       0x10 C:/Program Files/TeliumSDK/SDK11.16.8.02/SDKTPLUS/HW_TETRA/gnu_473/lib/Platform\libGRAPHICLIB.a(GL_Dialog_Password.o)
 .data          0x0002fad0       0x10 C:/Program Files/TeliumSDK/SDK11.16.8.02/SDKTPLUS/HW_TETRA/gnu_473/lib/Platform\libGRAPHICLIB.a(GL_Dialog_Progress.o)
 .data          0x0002fae0       0x10 C:/Program Files/TeliumSDK/SDK11.16.8.02/SDKTPLUS/HW_TETRA/gnu_473/lib/Platform\libGRAPHICLIB.a(GL_Dialog_Text.o)
 .data          0x0002faf0       0x10 C:/Program Files/TeliumSDK/SDK11.16.8.02/SDKTPLUS/HW_TETRA/gnu_473/lib/Platform\libGRAPHICLIB.a(GL_Dialog_VirtualKeyboard.o)
 .data          0x0002fb00       0x10 C:/Program Files/TeliumSDK/SDK11.16.8.02/SDKTPLUS/HW_TETRA/gnu_473/lib/Platform\libGRAPHICLIB.a(GL_Document_Create.o)
 .data          0x0002fb10       0x10 C:/Program Files/TeliumSDK/SDK11.16.8.02/SDKTPLUS/HW_TETRA/gnu_473/lib/Platform\libGRAPHICLIB.a(GL_Document_Print.o)
 .data          0x0002fb20       0x10 C:/Program Files/TeliumSDK/SDK11.16.8.02/SDKTPLUS/HW_TETRA/gnu_473/lib/Platform\libGRAPHICLIB.a(GL_Drawing_Clear.o)
 .data          0x0002fb30       0x10 C:/Program Files/TeliumSDK/SDK11.16.8.02/SDKTPLUS/HW_TETRA/gnu_473/lib/Platform\libGRAPHICLIB.a(GL_Drawing_Create.o)
 .data          0x0002fb40       0x10 C:/Program Files/TeliumSDK/SDK11.16.8.02/SDKTPLUS/HW_TETRA/gnu_473/lib/Platform\libGRAPHICLIB.a(GL_Drawing_DrawEllipse.o)
 .data          0x0002fb50       0x10 C:/Program Files/TeliumSDK/SDK11.16.8.02/SDKTPLUS/HW_TETRA/gnu_473/lib/Platform\libGRAPHICLIB.a(GL_Drawing_DrawLine.o)
 .data          0x0002fb60       0x10 C:/Program Files/TeliumSDK/SDK11.16.8.02/SDKTPLUS/HW_TETRA/gnu_473/lib/Platform\libGRAPHICLIB.a(GL_Drawing_DrawRect.o)
 .data          0x0002fb70       0x10 C:/Program Files/TeliumSDK/SDK11.16.8.02/SDKTPLUS/HW_TETRA/gnu_473/lib/Platform\libGRAPHICLIB.a(GL_Drawing_DrawText.o)
 .data          0x0002fb80       0x10 C:/Program Files/TeliumSDK/SDK11.16.8.02/SDKTPLUS/HW_TETRA/gnu_473/lib/Platform\libGRAPHICLIB.a(GL_Drawing_SetBrush.o)
 .data          0x0002fb90       0x10 C:/Program Files/TeliumSDK/SDK11.16.8.02/SDKTPLUS/HW_TETRA/gnu_473/lib/Platform\libGRAPHICLIB.a(GL_Drawing_SetFont.o)
 .data          0x0002fba0       0x10 C:/Program Files/TeliumSDK/SDK11.16.8.02/SDKTPLUS/HW_TETRA/gnu_473/lib/Platform\libGRAPHICLIB.a(GL_Drawing_SetPen.o)
 .data          0x0002fbb0       0x10 C:/Program Files/TeliumSDK/SDK11.16.8.02/SDKTPLUS/HW_TETRA/gnu_473/lib/Platform\libGRAPHICLIB.a(GL_GraphicLib_BindSingleKey.o)
 .data          0x0002fbc0        0x0 C:/Program Files/TeliumSDK/SDK11.16.8.02/SDKTPLUS/HW_TETRA/gnu_473/lib/Platform\libGRAPHICLIB.a(GL_GraphicLib_Create.o)
 .data.rel      0x0002fbc0        0x4 C:/Program Files/TeliumSDK/SDK11.16.8.02/SDKTPLUS/HW_TETRA/gnu_473/lib/Platform\libGRAPHICLIB.a(GL_GraphicLib_Create.o)
 *fill*         0x0002fbc4        0xc 00
 .data          0x0002fbd0       0x10 C:/Program Files/TeliumSDK/SDK11.16.8.02/SDKTPLUS/HW_TETRA/gnu_473/lib/Platform\libGRAPHICLIB.a(GL_GraphicLib_IsTouchPresent.o)
 .data          0x0002fbe0       0x10 C:/Program Files/TeliumSDK/SDK11.16.8.02/SDKTPLUS/HW_TETRA/gnu_473/lib/Platform\libGRAPHICLIB.a(GL_GraphicLib_SetCharset.o)
 .data          0x0002fbf0       0x10 C:/Program Files/TeliumSDK/SDK11.16.8.02/SDKTPLUS/HW_TETRA/gnu_473/lib/Platform\libGRAPHICLIB.a(GL_GraphicLib_UnbindKey.o)
 .data          0x0002fc00       0x10 C:/Program Files/TeliumSDK/SDK11.16.8.02/SDKTPLUS/HW_TETRA/gnu_473/lib/Platform\libGRAPHICLIB.a(GL_Label_Create.o)
 .data          0x0002fc10       0x10 C:/Program Files/TeliumSDK/SDK11.16.8.02/SDKTPLUS/HW_TETRA/gnu_473/lib/Platform\libGRAPHICLIB.a(GL_Layout_Create.o)
 .data          0x0002fc20       0x10 C:/Program Files/TeliumSDK/SDK11.16.8.02/SDKTPLUS/HW_TETRA/gnu_473/lib/Platform\libGRAPHICLIB.a(GL_Message_GetKey.o)
 .data          0x0002fc30       0x10 C:/Program Files/TeliumSDK/SDK11.16.8.02/SDKTPLUS/HW_TETRA/gnu_473/lib/Platform\libGRAPHICLIB.a(GL_Message_GetWidget.o)
 .data          0x0002fc40       0x10 C:/Program Files/TeliumSDK/SDK11.16.8.02/SDKTPLUS/HW_TETRA/gnu_473/lib/Platform\libGRAPHICLIB.a(GL_Message_SetResult.o)
 .data          0x0002fc50       0x10 C:/Program Files/TeliumSDK/SDK11.16.8.02/SDKTPLUS/HW_TETRA/gnu_473/lib/Platform\libGRAPHICLIB.a(GL_Message_SetUserData.o)
 .data          0x0002fc60       0x10 C:/Program Files/TeliumSDK/SDK11.16.8.02/SDKTPLUS/HW_TETRA/gnu_473/lib/Platform\libGRAPHICLIB.a(GL_Picture_Create.o)
 .data          0x0002fc70       0x10 C:/Program Files/TeliumSDK/SDK11.16.8.02/SDKTPLUS/HW_TETRA/gnu_473/lib/Platform\libGRAPHICLIB.a(GL_Print_Create.o)
 .data          0x0002fc80       0x10 C:/Program Files/TeliumSDK/SDK11.16.8.02/SDKTPLUS/HW_TETRA/gnu_473/lib/Platform\libGRAPHICLIB.a(GL_Timer_Create.o)
 .data          0x0002fc90       0x10 C:/Program Files/TeliumSDK/SDK11.16.8.02/SDKTPLUS/HW_TETRA/gnu_473/lib/Platform\libGRAPHICLIB.a(GL_Timer_SetInterval.o)
 .data          0x0002fca0       0x10 C:/Program Files/TeliumSDK/SDK11.16.8.02/SDKTPLUS/HW_TETRA/gnu_473/lib/Platform\libGRAPHICLIB.a(GL_Timer_Stop.o)
 .data          0x0002fcb0       0x10 C:/Program Files/TeliumSDK/SDK11.16.8.02/SDKTPLUS/HW_TETRA/gnu_473/lib/Platform\libGRAPHICLIB.a(GL_Widget_Destroy.o)
 .data          0x0002fcc0       0x10 C:/Program Files/TeliumSDK/SDK11.16.8.02/SDKTPLUS/HW_TETRA/gnu_473/lib/Platform\libGRAPHICLIB.a(GL_Widget_GetUserData.o)
 .data          0x0002fcd0       0x10 C:/Program Files/TeliumSDK/SDK11.16.8.02/SDKTPLUS/HW_TETRA/gnu_473/lib/Platform\libGRAPHICLIB.a(GL_Widget_RegisterCallback.o)
 .data          0x0002fce0       0x10 C:/Program Files/TeliumSDK/SDK11.16.8.02/SDKTPLUS/HW_TETRA/gnu_473/lib/Platform\libGRAPHICLIB.a(GL_Widget_SearchId.o)
 .data          0x0002fcf0       0x10 C:/Program Files/TeliumSDK/SDK11.16.8.02/SDKTPLUS/HW_TETRA/gnu_473/lib/Platform\libGRAPHICLIB.a(GL_Widget_SetBackAlign.o)
 .data          0x0002fd00       0x10 C:/Program Files/TeliumSDK/SDK11.16.8.02/SDKTPLUS/HW_TETRA/gnu_473/lib/Platform\libGRAPHICLIB.a(GL_Widget_SetBackColor.o)
 .data          0x0002fd10       0x10 C:/Program Files/TeliumSDK/SDK11.16.8.02/SDKTPLUS/HW_TETRA/gnu_473/lib/Platform\libGRAPHICLIB.a(GL_Widget_SetBorders.o)
 .data          0x0002fd20       0x10 C:/Program Files/TeliumSDK/SDK11.16.8.02/SDKTPLUS/HW_TETRA/gnu_473/lib/Platform\libGRAPHICLIB.a(GL_Widget_SetExpand.o)
 .data          0x0002fd30       0x10 C:/Program Files/TeliumSDK/SDK11.16.8.02/SDKTPLUS/HW_TETRA/gnu_473/lib/Platform\libGRAPHICLIB.a(GL_Widget_SetFocusable.o)
 .data          0x0002fd40       0x10 C:/Program Files/TeliumSDK/SDK11.16.8.02/SDKTPLUS/HW_TETRA/gnu_473/lib/Platform\libGRAPHICLIB.a(GL_Widget_SetFontName.o)
 .data          0x0002fd50       0x10 C:/Program Files/TeliumSDK/SDK11.16.8.02/SDKTPLUS/HW_TETRA/gnu_473/lib/Platform\libGRAPHICLIB.a(GL_Widget_SetFontScale.o)
 .data          0x0002fd60       0x10 C:/Program Files/TeliumSDK/SDK11.16.8.02/SDKTPLUS/HW_TETRA/gnu_473/lib/Platform\libGRAPHICLIB.a(GL_Widget_SetFontStyle.o)
 .data          0x0002fd70       0x10 C:/Program Files/TeliumSDK/SDK11.16.8.02/SDKTPLUS/HW_TETRA/gnu_473/lib/Platform\libGRAPHICLIB.a(GL_Widget_SetForeColor.o)
 .data          0x0002fd80       0x10 C:/Program Files/TeliumSDK/SDK11.16.8.02/SDKTPLUS/HW_TETRA/gnu_473/lib/Platform\libGRAPHICLIB.a(GL_Widget_SetGrow.o)
 .data          0x0002fd90       0x10 C:/Program Files/TeliumSDK/SDK11.16.8.02/SDKTPLUS/HW_TETRA/gnu_473/lib/Platform\libGRAPHICLIB.a(GL_Widget_SetId.o)
 .data          0x0002fda0       0x10 C:/Program Files/TeliumSDK/SDK11.16.8.02/SDKTPLUS/HW_TETRA/gnu_473/lib/Platform\libGRAPHICLIB.a(GL_Widget_SetItem.o)
 .data          0x0002fdb0       0x10 C:/Program Files/TeliumSDK/SDK11.16.8.02/SDKTPLUS/HW_TETRA/gnu_473/lib/Platform\libGRAPHICLIB.a(GL_Widget_SetMargins.o)
 .data          0x0002fdc0       0x10 C:/Program Files/TeliumSDK/SDK11.16.8.02/SDKTPLUS/HW_TETRA/gnu_473/lib/Platform\libGRAPHICLIB.a(GL_Widget_SetMinSize.o)
 .data          0x0002fdd0       0x10 C:/Program Files/TeliumSDK/SDK11.16.8.02/SDKTPLUS/HW_TETRA/gnu_473/lib/Platform\libGRAPHICLIB.a(GL_Widget_SetShortcut.o)
 .data          0x0002fde0       0x10 C:/Program Files/TeliumSDK/SDK11.16.8.02/SDKTPLUS/HW_TETRA/gnu_473/lib/Platform\libGRAPHICLIB.a(GL_Widget_SetShrink.o)
 .data          0x0002fdf0       0x10 C:/Program Files/TeliumSDK/SDK11.16.8.02/SDKTPLUS/HW_TETRA/gnu_473/lib/Platform\libGRAPHICLIB.a(GL_Widget_SetSize.o)
 .data          0x0002fe00       0x10 C:/Program Files/TeliumSDK/SDK11.16.8.02/SDKTPLUS/HW_TETRA/gnu_473/lib/Platform\libGRAPHICLIB.a(GL_Widget_SetSource.o)
 .data          0x0002fe10       0x10 C:/Program Files/TeliumSDK/SDK11.16.8.02/SDKTPLUS/HW_TETRA/gnu_473/lib/Platform\libGRAPHICLIB.a(GL_Widget_SetText.o)
 .data          0x0002fe20       0x10 C:/Program Files/TeliumSDK/SDK11.16.8.02/SDKTPLUS/HW_TETRA/gnu_473/lib/Platform\libGRAPHICLIB.a(GL_Widget_SetTextAlign.o)
 .data          0x0002fe30       0x10 C:/Program Files/TeliumSDK/SDK11.16.8.02/SDKTPLUS/HW_TETRA/gnu_473/lib/Platform\libGRAPHICLIB.a(GL_Widget_SetTextPaddings.o)
 .data          0x0002fe40       0x10 C:/Program Files/TeliumSDK/SDK11.16.8.02/SDKTPLUS/HW_TETRA/gnu_473/lib/Platform\libGRAPHICLIB.a(GL_Widget_SetTransformation.o)
 .data          0x0002fe50       0x10 C:/Program Files/TeliumSDK/SDK11.16.8.02/SDKTPLUS/HW_TETRA/gnu_473/lib/Platform\libGRAPHICLIB.a(GL_Widget_SetVisible.o)
 .data          0x0002fe60       0x10 C:/Program Files/TeliumSDK/SDK11.16.8.02/SDKTPLUS/HW_TETRA/gnu_473/lib/Platform\libGRAPHICLIB.a(GL_Widget_SetWrap.o)
 .data          0x0002fe70       0x10 C:/Program Files/TeliumSDK/SDK11.16.8.02/SDKTPLUS/HW_TETRA/gnu_473/lib/Platform\libGRAPHICLIB.a(GL_Widget_UnregisterCallback.o)
 .data          0x0002fe80       0x10 C:/Program Files/TeliumSDK/SDK11.16.8.02/SDKTPLUS/HW_TETRA/gnu_473/lib/Platform\libGRAPHICLIB.a(GL_Window_Create.o)
 .data          0x0002fe90       0x10 C:/Program Files/TeliumSDK/SDK11.16.8.02/SDKTPLUS/HW_TETRA/gnu_473/lib/Platform\libGRAPHICLIB.a(GL_Window_Dispatch.o)
 .data          0x0002fea0       0x10 C:/Program Files/TeliumSDK/SDK11.16.8.02/SDKTPLUS/HW_TETRA/gnu_473/lib/Platform\libGRAPHICLIB.a(GL_Window_GetResult.o)
 .data          0x0002feb0       0x10 C:/Program Files/TeliumSDK/SDK11.16.8.02/SDKTPLUS/HW_TETRA/gnu_473/lib/Platform\libGRAPHICLIB.a(GL_Window_MainLoop.o)
 .data          0x0002fec0        0x0 C:/Program Files/TeliumSDK/SDK11.16.8.02/SDKTPLUS/HW_TETRA/gnu_473/lib/Platform\libGRAPHICLIB.a(GL_link.o)
 .data          0x0002fec0        0x0 C:/Program Files/TeliumSDK/SDK11.16.8.02/SDKTPLUS/HW_TETRA/gnu_473/lib/Platform\libGRAPHICLIB.a(gl_asm_link.o)
 .data          0x0002fec0        0x4 C:/Program Files/TeliumSDK/SDK11.16.8.02/SDKTPLUS/HW_TETRA/gnu_473/lib/Platform\libOSLAYER.a(OSL_Dll_Close.o)
 .data          0x0002fec4        0x4 C:/Program Files/TeliumSDK/SDK11.16.8.02/SDKTPLUS/HW_TETRA/gnu_473/lib/Platform\libOSLAYER.a(OSL_Dll_GetSymbolByName.o)
 .data          0x0002fec8        0x4 C:/Program Files/TeliumSDK/SDK11.16.8.02/SDKTPLUS/HW_TETRA/gnu_473/lib/Platform\libOSLAYER.a(OSL_Dll_IsPresent.o)
 .data          0x0002fecc        0x4 C:/Program Files/TeliumSDK/SDK11.16.8.02/SDKTPLUS/HW_TETRA/gnu_473/lib/Platform\libOSLAYER.a(OSL_Dll_Open.o)
 .data          0x0002fed0        0x4 C:/Program Files/TeliumSDK/SDK11.16.8.02/SDKTPLUS/HW_TETRA/gnu_473/lib/Platform\libOSLAYER.a(OSL_Dll_OpenByAppliType.o)
 .data          0x0002fed4        0x4 C:/Program Files/TeliumSDK/SDK11.16.8.02/SDKTPLUS/HW_TETRA/gnu_473/lib/Platform\libOSLAYER.a(OSL_TimeStp_ElapsedMs.o)
 .data          0x0002fed8        0x4 C:/Program Files/TeliumSDK/SDK11.16.8.02/SDKTPLUS/HW_TETRA/gnu_473/lib/Platform\libOSLAYER.a(OSL_TimeStp_Now.o)
 .data          0x0002fedc        0x0 C:/Program Files/TeliumSDK/SDK11.16.8.02/SDKTPLUS/HW_TETRA/gnu_473/lib/Platform\libgtl.a(GTL_StdTimer.o)
 .data          0x0002fedc        0x0 E:/IngeDev_8.18.0.5/toolchains/gnuArm47v7a-4/arm-islero-linux-gnueabi/sysroot/usr/lib/libc_nonshared.a(elf-init.oS)
 .data          0x0002fedc        0x0 E:/IngeDev_8.18.0.5/toolchains/gnuArm47v7a-4/lib/gcc/arm-islero-linux-gnueabi/4.7.3\libgcc.a(_udivsi3.o)
 .data          0x0002fedc        0x0 E:/IngeDev_8.18.0.5/toolchains/gnuArm47v7a-4/lib/gcc/arm-islero-linux-gnueabi/4.7.3\libgcc.a(_dvmd_lnx.o)
 .data          0x0002fedc        0x4 C:/Program Files/TeliumSDK/SDK11.16.8.02/SDKTPLUS/HW_TETRA/gnu_473/lib/Platform/libwrapper_tplus.lib(TMT_Retrieve_Clock.o)
 .data          0x0002fee0        0x0 E:/IngeDev_8.18.0.5/toolchains/gnuArm47v7a-4/lib/gcc/arm-islero-linux-gnueabi/4.7.3/crtend.o
 .data          0x0002fee0        0x0 E:/IngeDev_8.18.0.5/toolchains/gnuArm47v7a-4/arm-islero-linux-gnueabi/sysroot/usr/lib/crtn.o
 .data          0x0002fee0        0x0 C:/Program Files/TeliumSDK/SDK11.16.8.02/SDKTPLUS/HW_TETRA/gnu_473/startfiles/stapp_legacyexitpoint.o

.tm_clone_table
                0x0002fee0        0x0
 .tm_clone_table
                0x0002fee0        0x0 E:/IngeDev_8.18.0.5/toolchains/gnuArm47v7a-4/lib/gcc/arm-islero-linux-gnueabi/4.7.3/crtbegin.o
 .tm_clone_table
                0x0002fee0        0x0 E:/IngeDev_8.18.0.5/toolchains/gnuArm47v7a-4/lib/gcc/arm-islero-linux-gnueabi/4.7.3/crtend.o

.data1
 *(.data1)
                0x0002fee0                _edata = .
                0x0002fee0                PROVIDE (edata, .)
                0x0002fee0                __bss_start = .
                0x0002fee0                __bss_start__ = .

.bss            0x0002fee0    0x14114
 *(.dynbss)
 .dynbss        0x0002fee0        0x4 E:/IngeDev_8.18.0.5/toolchains/gnuArm47v7a-4/arm-islero-linux-gnueabi/sysroot/usr/lib/crti.o
                0x0002fee0                __stack_chk_guard@@GLIBC_2.4
 *(.bss .bss.* .gnu.linkonce.b.*)
 .bss           0x0002fee4        0x0 E:/IngeDev_8.18.0.5/toolchains/gnuArm47v7a-4/arm-islero-linux-gnueabi/sysroot/usr/lib/crti.o
 .bss           0x0002fee4        0x0 E:/IngeDev_8.18.0.5/toolchains/gnuArm47v7a-4/arm-islero-linux-gnueabi/sysroot/usr/lib/crt1.o
 .bss           0x0002fee4        0x1 E:/IngeDev_8.18.0.5/toolchains/gnuArm47v7a-4/lib/gcc/arm-islero-linux-gnueabi/4.7.3/crtbegin.o
 .bss           0x0002fee5        0x0 C:/Program Files/TeliumSDK/SDK11.16.8.02/SDKTPLUS/HW_TETRA/gnu_473/startfiles/startup_tplusentry.o
 .bss           0x0002fee5        0x0 Obj/GNU_ARM_DEBUG_TETRA/Main.o
 *fill*         0x0002fee5        0x3 00
 .bss           0x0002fee8       0x58 Obj/GNU_ARM_DEBUG_TETRA/Entry.o
                0x0002fee8                gGoalGraphicLibInstance
 .bss           0x0002ff40       0x10 Obj/GNU_ARM_DEBUG_TETRA/Menu.o
                0x0002ff40                hTsc
                0x0002ff44                hPrn
 .bss           0x0002ff50        0x0 Obj/GNU_ARM_DEBUG_TETRA/ComGPRS.o
 .bss           0x0002ff50        0x0 Obj/GNU_ARM_DEBUG_TETRA/Goal.o
 .bss           0x0002ff50        0x0 Obj/GNU_ARM_DEBUG_TETRA/Mapapp.o
 .bss           0x0002ff50       0x2c Obj/GNU_ARM_DEBUG_TETRA/FMG.o
 .bss           0x0002ff7c       0x10 Obj/GNU_ARM_DEBUG_TETRA/Utility.o
 *fill*         0x0002ff8c        0x4 00
 .bss           0x0002ff90       0x20 Obj/GNU_ARM_DEBUG_TETRA/Timer.o
 .bss           0x0002ffb0        0x0 Obj/GNU_ARM_DEBUG_TETRA/iso8583.o
 .bss           0x0002ffb0        0x8 Obj/GNU_ARM_DEBUG_TETRA/transaction.o
 .bss           0x0002ffb8       0x28 Obj/GNU_ARM_DEBUG_TETRA/globals.o
 .bss           0x0002ffe0        0x0 Obj/GNU_ARM_DEBUG_TETRA/magnetic.o
 .bss           0x0002ffe0        0x0 Obj/GNU_ARM_DEBUG_TETRA/schemes.o
 .bss           0x0002ffe0        0x0 Obj/GNU_ARM_DEBUG_TETRA/amount.o
 .bss           0x0002ffe0       0x14 C:/Users/bkirii/Desktop/c/base_test_14/TRAINAPP/lib/FMG_TPlus.a(VGE_FMG.o)
 .bss           0x0002fff4        0x0 C:/Users/bkirii/Desktop/c/base_test_14/TRAINAPP/lib/FMG_TPlus.a(md5.o)
 .bss           0x0002fff4        0x0 C:/Program Files/TeliumSDK/SDK11.16.8.02/SDKTPLUS/HW_TETRA/gnu_473/lib/Platform/ExtraGPRS.lib(gprs_GetInformation.o)
 .bss           0x0002fff4        0x0 C:/Program Files/TeliumSDK/SDK11.16.8.02/SDKTPLUS/HW_TETRA/gnu_473/lib/Platform/ExtraGPRS.lib(gprs_SetPinModeFree.o)
 .bss           0x0002fff4        0x0 C:/Program Files/TeliumSDK/SDK11.16.8.02/SDKTPLUS/HW_TETRA/gnu_473/lib/Platform/ExtraGPRS.lib(gprs_SubmitPuk.o)
 .bss           0x0002fff4        0x0 C:/Program Files/TeliumSDK/SDK11.16.8.02/SDKTPLUS/HW_TETRA/gnu_473/lib/Platform/ExtraGPRS.lib(LIBGPRS_asm_link.o)
 .bss           0x0002fff4        0x8 C:/Program Files/TeliumSDK/SDK11.16.8.02/SDKTPLUS/HW_TETRA/gnu_473/lib/Platform/ExtraGPRS.lib(LIBGPRS_link.o)
 .bss           0x0002fffc        0x0 C:/Program Files/TeliumSDK/SDK11.16.8.02/SDKTPLUS/HW_TETRA/gnu_473/lib/Platform/liblinklayer.lib(LL_ClearReceiveBuffer.o)
 .bss           0x0002fffc        0x0 C:/Program Files/TeliumSDK/SDK11.16.8.02/SDKTPLUS/HW_TETRA/gnu_473/lib/Platform/liblinklayer.lib(LL_ClearSendBuffer.o)
 .bss           0x0002fffc        0x0 C:/Program Files/TeliumSDK/SDK11.16.8.02/SDKTPLUS/HW_TETRA/gnu_473/lib/Platform/liblinklayer.lib(LL_Configure.o)
 .bss           0x0002fffc        0x0 C:/Program Files/TeliumSDK/SDK11.16.8.02/SDKTPLUS/HW_TETRA/gnu_473/lib/Platform/liblinklayer.lib(LL_Connect.o)
 .bss           0x0002fffc        0x0 C:/Program Files/TeliumSDK/SDK11.16.8.02/SDKTPLUS/HW_TETRA/gnu_473/lib/Platform/liblinklayer.lib(LL_Disconnect.o)
 .bss           0x0002fffc        0x0 C:/Program Files/TeliumSDK/SDK11.16.8.02/SDKTPLUS/HW_TETRA/gnu_473/lib/Platform/liblinklayer.lib(LL_GetLastError.o)
 .bss           0x0002fffc        0x0 C:/Program Files/TeliumSDK/SDK11.16.8.02/SDKTPLUS/HW_TETRA/gnu_473/lib/Platform/liblinklayer.lib(LL_GPRS_Connect.o)
 .bss           0x0002fffc        0x0 C:/Program Files/TeliumSDK/SDK11.16.8.02/SDKTPLUS/HW_TETRA/gnu_473/lib/Platform/liblinklayer.lib(LL_GPRS_Start.o)
 .bss           0x0002fffc        0x0 C:/Program Files/TeliumSDK/SDK11.16.8.02/SDKTPLUS/HW_TETRA/gnu_473/lib/Platform/liblinklayer.lib(LL_GSM_Start.o)
 .bss           0x0002fffc        0x0 C:/Program Files/TeliumSDK/SDK11.16.8.02/SDKTPLUS/HW_TETRA/gnu_473/lib/Platform/liblinklayer.lib(LL_Network_GetStatus.o)
 .bss           0x0002fffc        0x0 C:/Program Files/TeliumSDK/SDK11.16.8.02/SDKTPLUS/HW_TETRA/gnu_473/lib/Platform/liblinklayer.lib(LL_Receive.o)
 .bss           0x0002fffc        0x0 C:/Program Files/TeliumSDK/SDK11.16.8.02/SDKTPLUS/HW_TETRA/gnu_473/lib/Platform/liblinklayer.lib(LL_Send.o)
 .bss           0x0002fffc        0x0 C:/Program Files/TeliumSDK/SDK11.16.8.02/SDKTPLUS/HW_TETRA/gnu_473/lib/Platform/liblinklayer.lib(LINKLAYER_asm_link.o)
 .bss           0x0002fffc        0x8 C:/Program Files/TeliumSDK/SDK11.16.8.02/SDKTPLUS/HW_TETRA/gnu_473/lib/Platform/liblinklayer.lib(LINKLAYER_link.o)
 .bss           0x00030004        0x0 C:/Program Files/TeliumSDK/SDK11.16.8.02/SDKTPLUS/HW_TETRA/gnu_473/lib/Platform/TlvTree.lib(TlvTree_AddChild.o)
 .bss           0x00030004        0x0 C:/Program Files/TeliumSDK/SDK11.16.8.02/SDKTPLUS/HW_TETRA/gnu_473/lib/Platform/TlvTree.lib(TlvTree_AddChildInteger.o)
 .bss           0x00030004        0x0 C:/Program Files/TeliumSDK/SDK11.16.8.02/SDKTPLUS/HW_TETRA/gnu_473/lib/Platform/TlvTree.lib(TlvTree_AddChildString.o)
 .bss           0x00030004        0x0 C:/Program Files/TeliumSDK/SDK11.16.8.02/SDKTPLUS/HW_TETRA/gnu_473/lib/Platform/TlvTree.lib(TlvTree_New.o)
 .bss           0x00030004        0x0 C:/Program Files/TeliumSDK/SDK11.16.8.02/SDKTPLUS/HW_TETRA/gnu_473/lib/Platform/TlvTree.lib(TlvTree_Release.o)
 .bss           0x00030004        0x0 C:/Program Files/TeliumSDK/SDK11.16.8.02/SDKTPLUS/HW_TETRA/gnu_473/lib/Platform/TlvTree.lib(TLV_TREE_DLL_asm_link.o)
 .bss           0x00030004        0x8 C:/Program Files/TeliumSDK/SDK11.16.8.02/SDKTPLUS/HW_TETRA/gnu_473/lib/Platform/TlvTree.lib(TLV_TREE_DLL_link.o)
 .bss           0x0003000c        0x0 C:/Program Files/TeliumSDK/SDK11.16.8.02/SDKTPLUS/HW_TETRA/gnu_473/lib/Platform/libwrapper_tplus.lib(DLLExist.o)
 .bss           0x0003000c        0x0 C:/Program Files/TeliumSDK/SDK11.16.8.02/SDKTPLUS/HW_TETRA/gnu_473/lib/Platform/libwrapper_tplus.lib(d_tolong.o)
 .bss           0x0003000c        0x0 C:/Program Files/TeliumSDK/SDK11.16.8.02/SDKTPLUS/HW_TETRA/gnu_473/lib/Platform/libwrapper_tplus.lib(stdcam0.o)
 .bss           0x0003000c        0x8 C:/Program Files/TeliumSDK/SDK11.16.8.02/SDKTPLUS/HW_TETRA/gnu_473/lib/Platform/libwrapper_tplus.lib(extenstp1.o)
                0x0003000c                extens_Dll
                0x00030010                DllGetProcAddress3
 .bss           0x00030014        0x0 C:/Program Files/TeliumSDK/SDK11.16.8.02/SDKTPLUS/HW_TETRA/gnu_473/lib/Platform/libwrapper_tplus.lib(Telium_Fclose.o)
 .bss           0x00030014        0x0 C:/Program Files/TeliumSDK/SDK11.16.8.02/SDKTPLUS/HW_TETRA/gnu_473/lib/Platform/libwrapper_tplus.lib(Telium_Fopen.o)
 .bss           0x00030014        0x0 C:/Program Files/TeliumSDK/SDK11.16.8.02/SDKTPLUS/HW_TETRA/gnu_473/lib/Platform/libwrapper_tplus.lib(Telium_Getc.o)
 .bss           0x00030014        0x0 C:/Program Files/TeliumSDK/SDK11.16.8.02/SDKTPLUS/HW_TETRA/gnu_473/lib/Platform/libwrapper_tplus.lib(Telium_Is_iso1.o)
 .bss           0x00030014        0x0 C:/Program Files/TeliumSDK/SDK11.16.8.02/SDKTPLUS/HW_TETRA/gnu_473/lib/Platform/libwrapper_tplus.lib(Telium_Is_iso2.o)
 .bss           0x00030014        0x0 C:/Program Files/TeliumSDK/SDK11.16.8.02/SDKTPLUS/HW_TETRA/gnu_473/lib/Platform/libwrapper_tplus.lib(Telium_Is_iso3.o)
 .bss           0x00030014        0x0 C:/Program Files/TeliumSDK/SDK11.16.8.02/SDKTPLUS/HW_TETRA/gnu_473/lib/Platform/libwrapper_tplus.lib(Telium_Reset_buf.o)
 .bss           0x00030014        0x0 C:/Program Files/TeliumSDK/SDK11.16.8.02/SDKTPLUS/HW_TETRA/gnu_473/lib/Platform/libwrapper_tplus.lib(Telium_Status.o)
 .bss           0x00030014        0x0 C:/Program Files/TeliumSDK/SDK11.16.8.02/SDKTPLUS/HW_TETRA/gnu_473/lib/Platform/libwrapper_tplus.lib(Telium_Stdin.o)
 .bss           0x00030014        0x0 C:/Program Files/TeliumSDK/SDK11.16.8.02/SDKTPLUS/HW_TETRA/gnu_473/lib/Platform/libwrapper_tplus.lib(Telium_Stdout.o)
 .bss           0x00030014        0x0 C:/Program Files/TeliumSDK/SDK11.16.8.02/SDKTPLUS/HW_TETRA/gnu_473/lib/Platform/libwrapper_tplus.lib(Telium_Stdperif.o)
 .bss           0x00030014        0x0 C:/Program Files/TeliumSDK/SDK11.16.8.02/SDKTPLUS/HW_TETRA/gnu_473/lib/Platform/libwrapper_tplus.lib(Telium_Ttestall.o)
 .bss           0x00030014        0x0 C:/Program Files/TeliumSDK/SDK11.16.8.02/SDKTPLUS/HW_TETRA/gnu_473/lib/Platform/libwrapper_tplus.lib(buzzer.o)
 .bss           0x00030014        0x0 C:/Program Files/TeliumSDK/SDK11.16.8.02/SDKTPLUS/HW_TETRA/gnu_473/lib/Platform/libwrapper_tplus.lib(DrawExtendedString.o)
 .bss           0x00030014        0x0 C:/Program Files/TeliumSDK/SDK11.16.8.02/SDKTPLUS/HW_TETRA/gnu_473/lib/Platform/libwrapper_tplus.lib(InitContexteGraphique.o)
 .bss           0x00030014        0x0 C:/Program Files/TeliumSDK/SDK11.16.8.02/SDKTPLUS/HW_TETRA/gnu_473/lib/Platform/libwrapper_tplus.lib(PaintGraphics.o)
 .bss           0x00030014        0x0 C:/Program Files/TeliumSDK/SDK11.16.8.02/SDKTPLUS/HW_TETRA/gnu_473/lib/Platform/libwrapper_tplus.lib(_DrawExtendedString.o)
 .bss           0x00030014        0x8 C:/Program Files/TeliumSDK/SDK11.16.8.02/SDKTPLUS/HW_TETRA/gnu_473/lib/Platform/libwrapper_tplus.lib(libgrtp1.o)
                0x00030014                libgr_Dll
                0x00030018                DllGetProcAddress6
 .bss           0x0003001c        0x0 C:/Program Files/TeliumSDK/SDK11.16.8.02/SDKTPLUS/HW_TETRA/gnu_473/lib/Platform/libwrapper_tplus.lib(PSQ_Est_pinpad.o)
 .bss           0x0003001c        0x0 C:/Program Files/TeliumSDK/SDK11.16.8.02/SDKTPLUS/HW_TETRA/gnu_473/lib/Platform/libwrapper_tplus.lib(PSQ_donner_type_pinpad.o)
 .bss           0x0003001c        0x8 C:/Program Files/TeliumSDK/SDK11.16.8.02/SDKTPLUS/HW_TETRA/gnu_473/lib/Platform/libwrapper_tplus.lib(paramtp1.o)
                0x0003001c                param_Dll
                0x00030020                DllGetProcAddress7
 .bss           0x00030024        0x0 C:/Program Files/TeliumSDK/SDK11.16.8.02/SDKTPLUS/HW_TETRA/gnu_473/lib/Platform/libwrapper_tplus.lib(IsPPSConnected.o)
 .bss           0x00030024        0x0 C:/Program Files/TeliumSDK/SDK11.16.8.02/SDKTPLUS/HW_TETRA/gnu_473/lib/Platform/libwrapper_tplus.lib(PPS_SendTerminalRefRequestCommand.o)
 .bss           0x00030024        0x0 C:/Program Files/TeliumSDK/SDK11.16.8.02/SDKTPLUS/HW_TETRA/gnu_473/lib/Platform/libwrapper_tplus.lib(PPS_firstline.o)
 .bss           0x00030024        0x0 C:/Program Files/TeliumSDK/SDK11.16.8.02/SDKTPLUS/HW_TETRA/gnu_473/lib/Platform/libwrapper_tplus.lib(PPS_newline.o)
 .bss           0x00030024        0x8 C:/Program Files/TeliumSDK/SDK11.16.8.02/SDKTPLUS/HW_TETRA/gnu_473/lib/Platform/libwrapper_tplus.lib(pinpadtp1.o)
                0x00030024                pinpadDll
                0x00030028                DllGetProcAddress9
 .bss           0x0003002c        0x0 C:/Program Files/TeliumSDK/SDK11.16.8.02/SDKTPLUS/HW_TETRA/gnu_473/lib/Platform/libwrapper_tplus.lib(PPS_Display.o)
 .bss           0x0003002c        0x0 C:/Program Files/TeliumSDK/SDK11.16.8.02/SDKTPLUS/HW_TETRA/gnu_473/lib/Platform/libwrapper_tplus.lib(Telium_Read_date.o)
 .bss           0x0003002c        0x0 C:/Program Files/TeliumSDK/SDK11.16.8.02/SDKTPLUS/HW_TETRA/gnu_473/lib/Platform/libwrapper_tplus.lib(BoosterType.o)
 .bss           0x0003002c        0x0 C:/Program Files/TeliumSDK/SDK11.16.8.02/SDKTPLUS/HW_TETRA/gnu_473/lib/Platform/libwrapper_tplus.lib(IsColorDisplay.o)
 .bss           0x0003002c        0x0 C:/Program Files/TeliumSDK/SDK11.16.8.02/SDKTPLUS/HW_TETRA/gnu_473/lib/Platform/libwrapper_tplus.lib(IsISO1.o)
 .bss           0x0003002c        0x0 C:/Program Files/TeliumSDK/SDK11.16.8.02/SDKTPLUS/HW_TETRA/gnu_473/lib/Platform/libwrapper_tplus.lib(IsISO2.o)
 .bss           0x0003002c        0x0 C:/Program Files/TeliumSDK/SDK11.16.8.02/SDKTPLUS/HW_TETRA/gnu_473/lib/Platform/libwrapper_tplus.lib(IsISO3.o)
 .bss           0x0003002c        0x0 C:/Program Files/TeliumSDK/SDK11.16.8.02/SDKTPLUS/HW_TETRA/gnu_473/lib/Platform/libwrapper_tplus.lib(IsPrinter.o)
 .bss           0x0003002c        0x0 C:/Program Files/TeliumSDK/SDK11.16.8.02/SDKTPLUS/HW_TETRA/gnu_473/lib/Platform/libwrapper_tplus.lib(Telium_ServiceRegister.o)
 .bss           0x0003002c        0x0 C:/Program Files/TeliumSDK/SDK11.16.8.02/SDKTPLUS/HW_TETRA/gnu_473/lib/Platform/libwrapper_tplus.lib(Telium_Pprintf.o)
 .bss           0x0003002c        0x0 C:/Program Files/TeliumSDK/SDK11.16.8.02/SDKTPLUS/HW_TETRA/gnu_473/lib/Platform/libwrapper_tplus.lib(Telium_Printf.o)
 .bss           0x0003002c        0x0 C:/Program Files/TeliumSDK/SDK11.16.8.02/SDKTPLUS/HW_TETRA/gnu_473/lib/Platform/libwrapper_tplus.lib(Telium_Stdprt.o)
 .bss           0x0003002c        0x0 C:/Program Files/TeliumSDK/SDK11.16.8.02/SDKTPLUS/HW_TETRA/gnu_473/lib/Platform/libwrapper_tplus.lib(Telium_Sprintf.o)
 .bss           0x0003002c        0x0 C:/Program Files/TeliumSDK/SDK11.16.8.02/SDKTPLUS/HW_TETRA/gnu_473/lib/Platform/libwrapper_tplus.lib(ApplicationGetCurrent.o)
 .bss           0x0003002c        0x0 C:/Program Files/TeliumSDK/SDK11.16.8.02/SDKTPLUS/HW_TETRA/gnu_473/lib/Platform/libwrapper_tplus.lib(FS_close.o)
 .bss           0x0003002c        0x0 C:/Program Files/TeliumSDK/SDK11.16.8.02/SDKTPLUS/HW_TETRA/gnu_473/lib/Platform/libwrapper_tplus.lib(FS_dskcreate.o)
 .bss           0x0003002c        0x0 C:/Program Files/TeliumSDK/SDK11.16.8.02/SDKTPLUS/HW_TETRA/gnu_473/lib/Platform/libwrapper_tplus.lib(FS_exist.o)
 .bss           0x0003002c        0x0 C:/Program Files/TeliumSDK/SDK11.16.8.02/SDKTPLUS/HW_TETRA/gnu_473/lib/Platform/libwrapper_tplus.lib(FS_length.o)
 .bss           0x0003002c        0x0 C:/Program Files/TeliumSDK/SDK11.16.8.02/SDKTPLUS/HW_TETRA/gnu_473/lib/Platform/libwrapper_tplus.lib(FS_mount.o)
 .bss           0x0003002c        0x0 C:/Program Files/TeliumSDK/SDK11.16.8.02/SDKTPLUS/HW_TETRA/gnu_473/lib/Platform/libwrapper_tplus.lib(FS_open.o)
 .bss           0x0003002c        0x0 C:/Program Files/TeliumSDK/SDK11.16.8.02/SDKTPLUS/HW_TETRA/gnu_473/lib/Platform/libwrapper_tplus.lib(FS_read.o)
 .bss           0x0003002c        0x0 C:/Program Files/TeliumSDK/SDK11.16.8.02/SDKTPLUS/HW_TETRA/gnu_473/lib/Platform/libwrapper_tplus.lib(FS_rename.o)
 .bss           0x0003002c        0x0 C:/Program Files/TeliumSDK/SDK11.16.8.02/SDKTPLUS/HW_TETRA/gnu_473/lib/Platform/libwrapper_tplus.lib(FS_seek.o)
 .bss           0x0003002c        0x0 C:/Program Files/TeliumSDK/SDK11.16.8.02/SDKTPLUS/HW_TETRA/gnu_473/lib/Platform/libwrapper_tplus.lib(FS_unlink.o)
 .bss           0x0003002c        0x0 C:/Program Files/TeliumSDK/SDK11.16.8.02/SDKTPLUS/HW_TETRA/gnu_473/lib/Platform/libwrapper_tplus.lib(FS_unmount.o)
 .bss           0x0003002c        0x0 C:/Program Files/TeliumSDK/SDK11.16.8.02/SDKTPLUS/HW_TETRA/gnu_473/lib/Platform/libwrapper_tplus.lib(FS_write.o)
 .bss           0x0003002c        0x0 C:/Program Files/TeliumSDK/SDK11.16.8.02/SDKTPLUS/HW_TETRA/gnu_473/lib/Platform/libwrapper_tplus.lib(ObjectGetDescriptor.o)
 .bss           0x0003002c        0x0 C:/Program Files/TeliumSDK/SDK11.16.8.02/SDKTPLUS/HW_TETRA/gnu_473/lib/Platform/libwrapper_tplus.lib(ObjectGetInfo.o)
 .bss           0x0003002c        0x0 C:/Program Files/TeliumSDK/SDK11.16.8.02/SDKTPLUS/HW_TETRA/gnu_473/lib/Platform/libwrapper_tplus.lib(PageAlloc.o)
 .bss           0x0003002c        0x0 C:/Program Files/TeliumSDK/SDK11.16.8.02/SDKTPLUS/HW_TETRA/gnu_473/lib/Platform/libwrapper_tplus.lib(PageFree.o)
 .bss           0x0003002c        0x0 C:/Program Files/TeliumSDK/SDK11.16.8.02/SDKTPLUS/HW_TETRA/gnu_473/lib/Platform/libwrapper_tplus.lib(first_init.o)
 .bss           0x0003002c        0x0 C:/Program Files/TeliumSDK/SDK11.16.8.02/SDKTPLUS/HW_TETRA/gnu_473/lib/Platform/libwrapper_tplus.lib(raz_init.o)
 .bss           0x0003002c        0x0 C:/Program Files/TeliumSDK/SDK11.16.8.02/SDKTPLUS/HW_TETRA/gnu_473/lib/Platform/libwrapper_tplus.lib(DisplayFooter.o)
 .bss           0x0003002c        0x0 C:/Program Files/TeliumSDK/SDK11.16.8.02/SDKTPLUS/HW_TETRA/gnu_473/lib/Platform/libwrapper_tplus.lib(DisplayHeader.o)
 .bss           0x0003002c        0x0 C:/Program Files/TeliumSDK/SDK11.16.8.02/SDKTPLUS/HW_TETRA/gnu_473/lib/Platform/libwrapper_tplus.lib(DisplayLeds.o)
 .bss           0x0003002c        0x0 C:/Program Files/TeliumSDK/SDK11.16.8.02/SDKTPLUS/HW_TETRA/gnu_473/lib/Platform/libwrapper_tplus.lib(IsFooter.o)
 .bss           0x0003002c        0x0 C:/Program Files/TeliumSDK/SDK11.16.8.02/SDKTPLUS/HW_TETRA/gnu_473/lib/Platform/libwrapper_tplus.lib(IsHeader.o)
 .bss           0x0003002c        0x0 C:/Program Files/TeliumSDK/SDK11.16.8.02/SDKTPLUS/HW_TETRA/gnu_473/lib/Platform/libwrapper_tplus.lib(Telium_Exit.o)
 .bss           0x0003002c        0x0 C:/Program Files/TeliumSDK/SDK11.16.8.02/SDKTPLUS/HW_TETRA/gnu_473/lib/Platform/libwrapper_tplus.lib(upload_diagnostic_txt.o)
 .bss           0x0003002c        0x8 C:/Program Files/TeliumSDK/SDK11.16.8.02/SDKTPLUS/HW_TETRA/gnu_473/lib/Platform/libwrapper_tplus.lib(emulationtp1.o)
                0x0003002c                emulation_Dll
                0x00030030                DllGetProcAddressEmul
 .bss           0x00030034        0x0 C:/Program Files/TeliumSDK/SDK11.16.8.02/SDKTPLUS/HW_TETRA/gnu_473/lib/Platform/libwrapper_tplus.lib(TM_InitContexteGraphique.o)
 .bss           0x00030034        0x4 C:/Program Files/TeliumSDK/SDK11.16.8.02/SDKTPLUS/HW_TETRA/gnu_473/lib/Platform/libwrapper_tplus.lib(extensttrois9.o)
 .bss           0x00030038        0x8 C:/Program Files/TeliumSDK/SDK11.16.8.02/SDKTPLUS/HW_TETRA/gnu_473/lib/Platform/libwrapper_tplus.lib(toolstp1.o)
                0x00030038                DllGetProcAddressTools
                0x0003003c                toolsDll
 .bss           0x00030040        0x8 C:/Program Files/TeliumSDK/SDK11.16.8.02/SDKTPLUS/HW_TETRA/gnu_473/lib/Platform/libwrapper_tplus.lib(wrappertp1.o)
                0x00030040                wrapper_Dll
                0x00030044                DllGetProcAddress55
 .bss           0x00030048        0x0 C:/Program Files/TeliumSDK/SDK11.16.8.02/SDKTPLUS/HW_TETRA/gnu_473/lib/Platform\libSec.a(SEC_ComputeMAC.o)
 .bss           0x00030048        0x0 C:/Program Files/TeliumSDK/SDK11.16.8.02/SDKTPLUS/HW_TETRA/gnu_473/lib/Platform\libSec.a(SEC_GetConfig.o)
 .bss           0x00030048        0x0 C:/Program Files/TeliumSDK/SDK11.16.8.02/SDKTPLUS/HW_TETRA/gnu_473/lib/Platform\libSec.a(SEC_Iso9564.o)
 .bss           0x00030048        0x0 C:/Program Files/TeliumSDK/SDK11.16.8.02/SDKTPLUS/HW_TETRA/gnu_473/lib/Platform\libSec.a(SEC_isSecretArea.o)
 .bss           0x00030048        0x0 C:/Program Files/TeliumSDK/SDK11.16.8.02/SDKTPLUS/HW_TETRA/gnu_473/lib/Platform\libSec.a(SEC_KeyVerify.o)
 .bss           0x00030048        0x0 C:/Program Files/TeliumSDK/SDK11.16.8.02/SDKTPLUS/HW_TETRA/gnu_473/lib/Platform\libSec.a(SEC_listSecureId.o)
 .bss           0x00030048        0x0 C:/Program Files/TeliumSDK/SDK11.16.8.02/SDKTPLUS/HW_TETRA/gnu_473/lib/Platform\libSec.a(SEC_listTLVKeys.o)
 .bss           0x00030048        0x0 C:/Program Files/TeliumSDK/SDK11.16.8.02/SDKTPLUS/HW_TETRA/gnu_473/lib/Platform\libSec.a(SEC_LoadKey.o)
 .bss           0x00030048        0x0 C:/Program Files/TeliumSDK/SDK11.16.8.02/SDKTPLUS/HW_TETRA/gnu_473/lib/Platform\libSec.a(SEC_PinEntry.o)
 .bss           0x00030048        0x0 C:/Program Files/TeliumSDK/SDK11.16.8.02/SDKTPLUS/HW_TETRA/gnu_473/lib/Platform\libSec.a(SEC_PinEntryInit.o)
 .bss           0x00030048        0x0 C:/Program Files/TeliumSDK/SDK11.16.8.02/SDKTPLUS/HW_TETRA/gnu_473/lib/Platform\libSec.a(SEC_SetConfig.o)
 .bss           0x00030048        0x4 C:/Program Files/TeliumSDK/SDK11.16.8.02/SDKTPLUS/HW_TETRA/gnu_473/lib/Platform\libSec.a(Telium3.o)
 .bss           0x0003004c        0x0 C:/Program Files/TeliumSDK/SDK11.16.8.02/SDKTPLUS/HW_TETRA/gnu_473/lib/Platform\libSec.a(LIBSECV2_asm_link.o)
 .bss           0x0003004c        0x8 C:/Program Files/TeliumSDK/SDK11.16.8.02/SDKTPLUS/HW_TETRA/gnu_473/lib/Platform\libSec.a(LIBSECV2_link.o)
 .bss           0x00030054        0x0 C:/Program Files/TeliumSDK/SDK11.16.8.02/SDKTPLUS/HW_TETRA/gnu_473/lib/Platform\libGRAPHICLIB.a(GL_Button_Create.o)
 .bss           0x00030054        0x0 C:/Program Files/TeliumSDK/SDK11.16.8.02/SDKTPLUS/HW_TETRA/gnu_473/lib/Platform\libGRAPHICLIB.a(GL_Dialog_Amount.o)
 .bss           0x00030054        0x0 C:/Program Files/TeliumSDK/SDK11.16.8.02/SDKTPLUS/HW_TETRA/gnu_473/lib/Platform\libGRAPHICLIB.a(GL_Dialog_Choice.o)
 .bss           0x00030054        0x0 C:/Program Files/TeliumSDK/SDK11.16.8.02/SDKTPLUS/HW_TETRA/gnu_473/lib/Platform\libGRAPHICLIB.a(GL_Dialog_Menu.o)
 .bss           0x00030054        0x0 C:/Program Files/TeliumSDK/SDK11.16.8.02/SDKTPLUS/HW_TETRA/gnu_473/lib/Platform\libGRAPHICLIB.a(GL_Dialog_Message.o)
 .bss           0x00030054        0x0 C:/Program Files/TeliumSDK/SDK11.16.8.02/SDKTPLUS/HW_TETRA/gnu_473/lib/Platform\libGRAPHICLIB.a(GL_Dialog_Password.o)
 .bss           0x00030054        0x0 C:/Program Files/TeliumSDK/SDK11.16.8.02/SDKTPLUS/HW_TETRA/gnu_473/lib/Platform\libGRAPHICLIB.a(GL_Dialog_Progress.o)
 .bss           0x00030054        0x0 C:/Program Files/TeliumSDK/SDK11.16.8.02/SDKTPLUS/HW_TETRA/gnu_473/lib/Platform\libGRAPHICLIB.a(GL_Dialog_Text.o)
 .bss           0x00030054        0x0 C:/Program Files/TeliumSDK/SDK11.16.8.02/SDKTPLUS/HW_TETRA/gnu_473/lib/Platform\libGRAPHICLIB.a(GL_Dialog_VirtualKeyboard.o)
 .bss           0x00030054        0x0 C:/Program Files/TeliumSDK/SDK11.16.8.02/SDKTPLUS/HW_TETRA/gnu_473/lib/Platform\libGRAPHICLIB.a(GL_Document_Create.o)
 .bss           0x00030054        0x0 C:/Program Files/TeliumSDK/SDK11.16.8.02/SDKTPLUS/HW_TETRA/gnu_473/lib/Platform\libGRAPHICLIB.a(GL_Document_Print.o)
 .bss           0x00030054        0x0 C:/Program Files/TeliumSDK/SDK11.16.8.02/SDKTPLUS/HW_TETRA/gnu_473/lib/Platform\libGRAPHICLIB.a(GL_Drawing_Clear.o)
 .bss           0x00030054        0x0 C:/Program Files/TeliumSDK/SDK11.16.8.02/SDKTPLUS/HW_TETRA/gnu_473/lib/Platform\libGRAPHICLIB.a(GL_Drawing_Create.o)
 .bss           0x00030054        0x0 C:/Program Files/TeliumSDK/SDK11.16.8.02/SDKTPLUS/HW_TETRA/gnu_473/lib/Platform\libGRAPHICLIB.a(GL_Drawing_DrawEllipse.o)
 .bss           0x00030054        0x0 C:/Program Files/TeliumSDK/SDK11.16.8.02/SDKTPLUS/HW_TETRA/gnu_473/lib/Platform\libGRAPHICLIB.a(GL_Drawing_DrawLine.o)
 .bss           0x00030054        0x0 C:/Program Files/TeliumSDK/SDK11.16.8.02/SDKTPLUS/HW_TETRA/gnu_473/lib/Platform\libGRAPHICLIB.a(GL_Drawing_DrawRect.o)
 .bss           0x00030054        0x0 C:/Program Files/TeliumSDK/SDK11.16.8.02/SDKTPLUS/HW_TETRA/gnu_473/lib/Platform\libGRAPHICLIB.a(GL_Drawing_DrawText.o)
 .bss           0x00030054        0x0 C:/Program Files/TeliumSDK/SDK11.16.8.02/SDKTPLUS/HW_TETRA/gnu_473/lib/Platform\libGRAPHICLIB.a(GL_Drawing_SetBrush.o)
 .bss           0x00030054        0x0 C:/Program Files/TeliumSDK/SDK11.16.8.02/SDKTPLUS/HW_TETRA/gnu_473/lib/Platform\libGRAPHICLIB.a(GL_Drawing_SetFont.o)
 .bss           0x00030054        0x0 C:/Program Files/TeliumSDK/SDK11.16.8.02/SDKTPLUS/HW_TETRA/gnu_473/lib/Platform\libGRAPHICLIB.a(GL_Drawing_SetPen.o)
 .bss           0x00030054        0x0 C:/Program Files/TeliumSDK/SDK11.16.8.02/SDKTPLUS/HW_TETRA/gnu_473/lib/Platform\libGRAPHICLIB.a(GL_GraphicLib_BindSingleKey.o)
 .bss           0x00030054        0x4 C:/Program Files/TeliumSDK/SDK11.16.8.02/SDKTPLUS/HW_TETRA/gnu_473/lib/Platform\libGRAPHICLIB.a(GL_GraphicLib_Create.o)
 .bss           0x00030058        0x0 C:/Program Files/TeliumSDK/SDK11.16.8.02/SDKTPLUS/HW_TETRA/gnu_473/lib/Platform\libGRAPHICLIB.a(GL_GraphicLib_IsTouchPresent.o)
 .bss           0x00030058        0x0 C:/Program Files/TeliumSDK/SDK11.16.8.02/SDKTPLUS/HW_TETRA/gnu_473/lib/Platform\libGRAPHICLIB.a(GL_GraphicLib_SetCharset.o)
 .bss           0x00030058        0x0 C:/Program Files/TeliumSDK/SDK11.16.8.02/SDKTPLUS/HW_TETRA/gnu_473/lib/Platform\libGRAPHICLIB.a(GL_GraphicLib_UnbindKey.o)
 .bss           0x00030058        0x0 C:/Program Files/TeliumSDK/SDK11.16.8.02/SDKTPLUS/HW_TETRA/gnu_473/lib/Platform\libGRAPHICLIB.a(GL_Label_Create.o)
 .bss           0x00030058        0x0 C:/Program Files/TeliumSDK/SDK11.16.8.02/SDKTPLUS/HW_TETRA/gnu_473/lib/Platform\libGRAPHICLIB.a(GL_Layout_Create.o)
 .bss           0x00030058        0x0 C:/Program Files/TeliumSDK/SDK11.16.8.02/SDKTPLUS/HW_TETRA/gnu_473/lib/Platform\libGRAPHICLIB.a(GL_Message_GetKey.o)
 .bss           0x00030058        0x0 C:/Program Files/TeliumSDK/SDK11.16.8.02/SDKTPLUS/HW_TETRA/gnu_473/lib/Platform\libGRAPHICLIB.a(GL_Message_GetWidget.o)
 .bss           0x00030058        0x0 C:/Program Files/TeliumSDK/SDK11.16.8.02/SDKTPLUS/HW_TETRA/gnu_473/lib/Platform\libGRAPHICLIB.a(GL_Message_SetResult.o)
 .bss           0x00030058        0x0 C:/Program Files/TeliumSDK/SDK11.16.8.02/SDKTPLUS/HW_TETRA/gnu_473/lib/Platform\libGRAPHICLIB.a(GL_Message_SetUserData.o)
 .bss           0x00030058        0x0 C:/Program Files/TeliumSDK/SDK11.16.8.02/SDKTPLUS/HW_TETRA/gnu_473/lib/Platform\libGRAPHICLIB.a(GL_Picture_Create.o)
 .bss           0x00030058        0x0 C:/Program Files/TeliumSDK/SDK11.16.8.02/SDKTPLUS/HW_TETRA/gnu_473/lib/Platform\libGRAPHICLIB.a(GL_Print_Create.o)
 .bss           0x00030058        0x0 C:/Program Files/TeliumSDK/SDK11.16.8.02/SDKTPLUS/HW_TETRA/gnu_473/lib/Platform\libGRAPHICLIB.a(GL_Timer_Create.o)
 .bss           0x00030058        0x0 C:/Program Files/TeliumSDK/SDK11.16.8.02/SDKTPLUS/HW_TETRA/gnu_473/lib/Platform\libGRAPHICLIB.a(GL_Timer_SetInterval.o)
 .bss           0x00030058        0x0 C:/Program Files/TeliumSDK/SDK11.16.8.02/SDKTPLUS/HW_TETRA/gnu_473/lib/Platform\libGRAPHICLIB.a(GL_Timer_Stop.o)
 .bss           0x00030058        0x0 C:/Program Files/TeliumSDK/SDK11.16.8.02/SDKTPLUS/HW_TETRA/gnu_473/lib/Platform\libGRAPHICLIB.a(GL_Widget_Destroy.o)
 .bss           0x00030058        0x0 C:/Program Files/TeliumSDK/SDK11.16.8.02/SDKTPLUS/HW_TETRA/gnu_473/lib/Platform\libGRAPHICLIB.a(GL_Widget_GetUserData.o)
 .bss           0x00030058        0x0 C:/Program Files/TeliumSDK/SDK11.16.8.02/SDKTPLUS/HW_TETRA/gnu_473/lib/Platform\libGRAPHICLIB.a(GL_Widget_RegisterCallback.o)
 .bss           0x00030058        0x0 C:/Program Files/TeliumSDK/SDK11.16.8.02/SDKTPLUS/HW_TETRA/gnu_473/lib/Platform\libGRAPHICLIB.a(GL_Widget_SearchId.o)
 .bss           0x00030058        0x0 C:/Program Files/TeliumSDK/SDK11.16.8.02/SDKTPLUS/HW_TETRA/gnu_473/lib/Platform\libGRAPHICLIB.a(GL_Widget_SetBackAlign.o)
 .bss           0x00030058        0x0 C:/Program Files/TeliumSDK/SDK11.16.8.02/SDKTPLUS/HW_TETRA/gnu_473/lib/Platform\libGRAPHICLIB.a(GL_Widget_SetBackColor.o)
 .bss           0x00030058        0x0 C:/Program Files/TeliumSDK/SDK11.16.8.02/SDKTPLUS/HW_TETRA/gnu_473/lib/Platform\libGRAPHICLIB.a(GL_Widget_SetBorders.o)
 .bss           0x00030058        0x0 C:/Program Files/TeliumSDK/SDK11.16.8.02/SDKTPLUS/HW_TETRA/gnu_473/lib/Platform\libGRAPHICLIB.a(GL_Widget_SetExpand.o)
 .bss           0x00030058        0x0 C:/Program Files/TeliumSDK/SDK11.16.8.02/SDKTPLUS/HW_TETRA/gnu_473/lib/Platform\libGRAPHICLIB.a(GL_Widget_SetFocusable.o)
 .bss           0x00030058        0x0 C:/Program Files/TeliumSDK/SDK11.16.8.02/SDKTPLUS/HW_TETRA/gnu_473/lib/Platform\libGRAPHICLIB.a(GL_Widget_SetFontName.o)
 .bss           0x00030058        0x0 C:/Program Files/TeliumSDK/SDK11.16.8.02/SDKTPLUS/HW_TETRA/gnu_473/lib/Platform\libGRAPHICLIB.a(GL_Widget_SetFontScale.o)
 .bss           0x00030058        0x0 C:/Program Files/TeliumSDK/SDK11.16.8.02/SDKTPLUS/HW_TETRA/gnu_473/lib/Platform\libGRAPHICLIB.a(GL_Widget_SetFontStyle.o)
 .bss           0x00030058        0x0 C:/Program Files/TeliumSDK/SDK11.16.8.02/SDKTPLUS/HW_TETRA/gnu_473/lib/Platform\libGRAPHICLIB.a(GL_Widget_SetForeColor.o)
 .bss           0x00030058        0x0 C:/Program Files/TeliumSDK/SDK11.16.8.02/SDKTPLUS/HW_TETRA/gnu_473/lib/Platform\libGRAPHICLIB.a(GL_Widget_SetGrow.o)
 .bss           0x00030058        0x0 C:/Program Files/TeliumSDK/SDK11.16.8.02/SDKTPLUS/HW_TETRA/gnu_473/lib/Platform\libGRAPHICLIB.a(GL_Widget_SetId.o)
 .bss           0x00030058        0x0 C:/Program Files/TeliumSDK/SDK11.16.8.02/SDKTPLUS/HW_TETRA/gnu_473/lib/Platform\libGRAPHICLIB.a(GL_Widget_SetItem.o)
 .bss           0x00030058        0x0 C:/Program Files/TeliumSDK/SDK11.16.8.02/SDKTPLUS/HW_TETRA/gnu_473/lib/Platform\libGRAPHICLIB.a(GL_Widget_SetMargins.o)
 .bss           0x00030058        0x0 C:/Program Files/TeliumSDK/SDK11.16.8.02/SDKTPLUS/HW_TETRA/gnu_473/lib/Platform\libGRAPHICLIB.a(GL_Widget_SetMinSize.o)
 .bss           0x00030058        0x0 C:/Program Files/TeliumSDK/SDK11.16.8.02/SDKTPLUS/HW_TETRA/gnu_473/lib/Platform\libGRAPHICLIB.a(GL_Widget_SetShortcut.o)
 .bss           0x00030058        0x0 C:/Program Files/TeliumSDK/SDK11.16.8.02/SDKTPLUS/HW_TETRA/gnu_473/lib/Platform\libGRAPHICLIB.a(GL_Widget_SetShrink.o)
 .bss           0x00030058        0x0 C:/Program Files/TeliumSDK/SDK11.16.8.02/SDKTPLUS/HW_TETRA/gnu_473/lib/Platform\libGRAPHICLIB.a(GL_Widget_SetSize.o)
 .bss           0x00030058        0x0 C:/Program Files/TeliumSDK/SDK11.16.8.02/SDKTPLUS/HW_TETRA/gnu_473/lib/Platform\libGRAPHICLIB.a(GL_Widget_SetSource.o)
 .bss           0x00030058        0x0 C:/Program Files/TeliumSDK/SDK11.16.8.02/SDKTPLUS/HW_TETRA/gnu_473/lib/Platform\libGRAPHICLIB.a(GL_Widget_SetText.o)
 .bss           0x00030058        0x0 C:/Program Files/TeliumSDK/SDK11.16.8.02/SDKTPLUS/HW_TETRA/gnu_473/lib/Platform\libGRAPHICLIB.a(GL_Widget_SetTextAlign.o)
 .bss           0x00030058        0x0 C:/Program Files/TeliumSDK/SDK11.16.8.02/SDKTPLUS/HW_TETRA/gnu_473/lib/Platform\libGRAPHICLIB.a(GL_Widget_SetTextPaddings.o)
 .bss           0x00030058        0x0 C:/Program Files/TeliumSDK/SDK11.16.8.02/SDKTPLUS/HW_TETRA/gnu_473/lib/Platform\libGRAPHICLIB.a(GL_Widget_SetTransformation.o)
 .bss           0x00030058        0x0 C:/Program Files/TeliumSDK/SDK11.16.8.02/SDKTPLUS/HW_TETRA/gnu_473/lib/Platform\libGRAPHICLIB.a(GL_Widget_SetVisible.o)
 .bss           0x00030058        0x0 C:/Program Files/TeliumSDK/SDK11.16.8.02/SDKTPLUS/HW_TETRA/gnu_473/lib/Platform\libGRAPHICLIB.a(GL_Widget_SetWrap.o)
 .bss           0x00030058        0x0 C:/Program Files/TeliumSDK/SDK11.16.8.02/SDKTPLUS/HW_TETRA/gnu_473/lib/Platform\libGRAPHICLIB.a(GL_Widget_UnregisterCallback.o)
 .bss           0x00030058        0x0 C:/Program Files/TeliumSDK/SDK11.16.8.02/SDKTPLUS/HW_TETRA/gnu_473/lib/Platform\libGRAPHICLIB.a(GL_Window_Create.o)
 .bss           0x00030058        0x0 C:/Program Files/TeliumSDK/SDK11.16.8.02/SDKTPLUS/HW_TETRA/gnu_473/lib/Platform\libGRAPHICLIB.a(GL_Window_Dispatch.o)
 .bss           0x00030058        0x0 C:/Program Files/TeliumSDK/SDK11.16.8.02/SDKTPLUS/HW_TETRA/gnu_473/lib/Platform\libGRAPHICLIB.a(GL_Window_GetResult.o)
 .bss           0x00030058        0x0 C:/Program Files/TeliumSDK/SDK11.16.8.02/SDKTPLUS/HW_TETRA/gnu_473/lib/Platform\libGRAPHICLIB.a(GL_Window_MainLoop.o)
 .bss           0x00030058        0x8 C:/Program Files/TeliumSDK/SDK11.16.8.02/SDKTPLUS/HW_TETRA/gnu_473/lib/Platform\libGRAPHICLIB.a(GL_link.o)
 .bss           0x00030060        0x0 C:/Program Files/TeliumSDK/SDK11.16.8.02/SDKTPLUS/HW_TETRA/gnu_473/lib/Platform\libGRAPHICLIB.a(gl_asm_link.o)
 .bss           0x00030060        0x0 C:/Program Files/TeliumSDK/SDK11.16.8.02/SDKTPLUS/HW_TETRA/gnu_473/lib/Platform\libOSLAYER.a(OSL_Dll_Close.o)
 .bss           0x00030060        0x0 C:/Program Files/TeliumSDK/SDK11.16.8.02/SDKTPLUS/HW_TETRA/gnu_473/lib/Platform\libOSLAYER.a(OSL_Dll_GetSymbolByName.o)
 .bss           0x00030060        0x0 C:/Program Files/TeliumSDK/SDK11.16.8.02/SDKTPLUS/HW_TETRA/gnu_473/lib/Platform\libOSLAYER.a(OSL_Dll_IsPresent.o)
 .bss           0x00030060        0x0 C:/Program Files/TeliumSDK/SDK11.16.8.02/SDKTPLUS/HW_TETRA/gnu_473/lib/Platform\libOSLAYER.a(OSL_Dll_Open.o)
 .bss           0x00030060        0x0 C:/Program Files/TeliumSDK/SDK11.16.8.02/SDKTPLUS/HW_TETRA/gnu_473/lib/Platform\libOSLAYER.a(OSL_Dll_OpenByAppliType.o)
 .bss           0x00030060        0x0 C:/Program Files/TeliumSDK/SDK11.16.8.02/SDKTPLUS/HW_TETRA/gnu_473/lib/Platform\libOSLAYER.a(OSL_TimeStp_ElapsedMs.o)
 .bss           0x00030060        0x0 C:/Program Files/TeliumSDK/SDK11.16.8.02/SDKTPLUS/HW_TETRA/gnu_473/lib/Platform\libOSLAYER.a(OSL_TimeStp_Now.o)
 .bss           0x00030060        0x0 C:/Program Files/TeliumSDK/SDK11.16.8.02/SDKTPLUS/HW_TETRA/gnu_473/lib/Platform\libgtl.a(GTL_StdTimer.o)
 .bss           0x00030060        0x0 E:/IngeDev_8.18.0.5/toolchains/gnuArm47v7a-4/arm-islero-linux-gnueabi/sysroot/usr/lib/libc_nonshared.a(elf-init.oS)
 .bss           0x00030060        0x0 E:/IngeDev_8.18.0.5/toolchains/gnuArm47v7a-4/lib/gcc/arm-islero-linux-gnueabi/4.7.3\libgcc.a(_udivsi3.o)
 .bss           0x00030060        0x0 E:/IngeDev_8.18.0.5/toolchains/gnuArm47v7a-4/lib/gcc/arm-islero-linux-gnueabi/4.7.3\libgcc.a(_dvmd_lnx.o)
 .bss           0x00030060        0x0 C:/Program Files/TeliumSDK/SDK11.16.8.02/SDKTPLUS/HW_TETRA/gnu_473/lib/Platform/libwrapper_tplus.lib(TMT_Retrieve_Clock.o)
 .bss           0x00030060        0x0 E:/IngeDev_8.18.0.5/toolchains/gnuArm47v7a-4/lib/gcc/arm-islero-linux-gnueabi/4.7.3/crtend.o
 .bss           0x00030060        0x0 E:/IngeDev_8.18.0.5/toolchains/gnuArm47v7a-4/arm-islero-linux-gnueabi/sysroot/usr/lib/crtn.o
 .bss           0x00030060        0x0 C:/Program Files/TeliumSDK/SDK11.16.8.02/SDKTPLUS/HW_TETRA/gnu_473/startfiles/stapp_legacyexitpoint.o
 *(COMMON)
 COMMON         0x00030060        0xc Obj/GNU_ARM_DEBUG_TETRA/Menu.o
                0x00030060                sSavedStatusHeader
                0x00030064                sSavedStatusLeds
                0x00030068                sSavedStatusFooter
 COMMON         0x0003006c    0x12e50 Obj/GNU_ARM_DEBUG_TETRA/Mapapp.o
                0x0003006c                isoField095
                0x00030454                isoField017
                0x0003045c                isoField050
                0x00030464                isoField121
                0x0003084c                isoField067
                0x00030c34                isoField020
                0x00030c38                isoField028
                0x00030c44                isoField116
                0x0003102c                BillerPayerName
                0x00031414                isoField072
                0x000317fc                isoField035
                0x00031860                isoField105
                0x00031c48                isoField089
                0x00032030                isoField046
                0x00032094                isoField081
                0x0003247c                isoField003
                0x00032484                isoField059
                0x000324e8                isoField010
                0x000324f4                isoField051
                0x000324fc                isoField096
                0x000328e4                isoField018
                0x000328ec                isoField128
                0x00032cd4                isoField120
                0x000330bc                isoField115
                0x000334a4                isoField068
                0x0003388c                isoField029
                0x00033898                isoField060
                0x000338fc                isoField021
                0x00033900                isoField073
                0x00033ce8                isoField036
                0x00033d4c                isoField104
                0x00034134                isoField004
                0x00034144                isoDrCr
                0x00034148                isoField047
                0x00034530                isoField082
                0x00034918                isoField052
                0x0003492c                isoField097
                0x00034d14                isoField011
                0x00034d1c                isoField019
                0x00034d20                isoField127
                0x00035108                isoField114
                0x000354f0                isoField022
                0x000354f8                isoField069
                0x000358e0                isoField061
                0x00035944                isoField074
                0x00035d2c                isoField103
                0x00036114                isoField037
                0x00036130                isoField048
                0x00036518                isoField083
                0x00036900                isoField040
                0x00036908                isoField005
                0x00036918                isoField053
                0x0003692c                isoField098
                0x00036d14                isoField012
                0x00036d1c                isoField090
                0x00037104                isoField126
                0x000374ec                isoField113
                0x000378d4                isoField062
                0x000380d8                isoField023
                0x000380e0                isoField075
                0x000384c8                BillerServiceName
                0x000388b0                isoField030
                0x000388bc                isoField038
                0x000388cc                isoField102
                0x00038cb4                isoField049
                0x00038cc4                isoField084
                0x000390ac                isoField041
                0x000390b8                isoField006
                0x000390bc                isoField054
                0x000394a4                isoField099
                0x0003988c                isoField013
                0x00039894                isoField091
                0x00039c7c                isoField125
                0x0003a064                isoMnuItm
                0x0003a078                isoField063
                0x0003a460                isoField024
                0x0003a468                isoField112
                0x0003a850                isoField076
                0x0003ac38                orgMnuItm
                0x0003ac3c                isoField031
                0x0003ac48                isoField101
                0x0003b030                isoField039
                0x0003b038                isoField109
                0x0003b420                isoField085
                0x0003b808                isoField042
                0x0003b828                isoField007
                0x0003b838                isoField124
                0x0003bc20                isoField055
                0x0003be24                isoField092
                0x0003c20c                LoggedInUser
                0x0003c5f4                isoField014
                0x0003c5fc                isoField064
                0x0003c608                isoField025
                0x0003c60c                isoField119
                0x0003c9f4                isoField111
                0x0003cddc                isoField077
                0x0003d1c4                isoField100
                0x0003d5ac                isoField032
                0x0003d610                isoField086
                0x0003d9f8                isoField108
                0x0003dde0                isoField043
                0x0003de34                isoField000
                0x0003de3c                isoField008
                0x0003de48                isoField123
                0x0003e230                isoField015
                0x0003e238                isoField056
                0x0003e29c                isoField093
                0x0003e684                isoField065
                0x0003ea6c                isoField026
                0x0003ea70                isoField110
                0x0003ee58                isoField118
                0x0003f240                hostGateway
                0x0003f244                invoiceNo
                0x0003f24c                isoField033
                0x0003f258                isoField078
                0x0003f640                isoField070
                0x0003fa28                isoField107
                0x0003fe10                isoField087
                0x000401f8                isoField044
                0x00040204                isoField001
                0x00040268                isoField009
                0x00040274                billerReceipt
                0x0004065c                isoField122
                0x00040a44                isoField057
                0x00040aa8                isoField094
                0x00040e90                isoField016
                0x00040e98                isoField066
                0x00041280                isoField027
                0x00041284                isoField117
                0x0004166c                isoField079
                0x00041a54                isoField071
                0x00041e3c                isoField034
                0x00041e48                isoField106
                0x00042230                isoField088
                0x00042618                billerRef
                0x00042a00                isoField045
                0x00042a0c                isoField002
                0x00042a70                isoField080
                0x00042e58                isoField058
 COMMON         0x00042ebc        0x4 Obj/GNU_ARM_DEBUG_TETRA/globals.o
                0x00042ebc                beg
 COMMON         0x00042ec0     0x1134 C:/Users/bkirii/Desktop/c/base_test_14/TRAINAPP/lib/FMG_TPlus.a(VGE_FMG.o)
                0x00042ec0                g_sFileManagement
                0x00043ff4                . = ALIGN ((. != 0x0)?0x4:0x1)
                0x00043ff4                _bss_end__ = .
                0x00043ff4                __bss_end__ = .
                0x00043ff4                . = ALIGN (0x4)
                0x00043ff4                . = ALIGN (0x4)
                0x00043ff4                __end__ = .
                0x00043ff4                _end = .
                0x00043ff4                PROVIDE (end, .)
                0x00043ff4                . = DATA_SEGMENT_END (.)

.stab
 *(.stab)

.stabstr
 *(.stabstr)

.stab.excl
 *(.stab.excl)

.stab.exclstr
 *(.stab.exclstr)

.stab.index
 *(.stab.index)

.stab.indexstr
 *(.stab.indexstr)

.comment        0x00000000       0x86
 *(.comment)
 .comment       0x00000000       0x37 E:/IngeDev_8.18.0.5/toolchains/gnuArm47v7a-4/arm-islero-linux-gnueabi/sysroot/usr/lib/crti.o
                                 0x38 (size before relaxing)
 .comment       0x00000000       0x38 E:/IngeDev_8.18.0.5/toolchains/gnuArm47v7a-4/arm-islero-linux-gnueabi/sysroot/usr/lib/crt1.o
 .comment       0x00000000       0x38 E:/IngeDev_8.18.0.5/toolchains/gnuArm47v7a-4/lib/gcc/arm-islero-linux-gnueabi/4.7.3/crtbegin.o
 .comment       0x00000037       0x4f C:/Program Files/TeliumSDK/SDK11.16.8.02/SDKTPLUS/HW_TETRA/gnu_473/startfiles/startup_tplusentry.o
                                 0x50 (size before relaxing)
 .comment       0x00000000       0x38 Obj/GNU_ARM_DEBUG_TETRA/Main.o
 .comment       0x00000000       0x38 Obj/GNU_ARM_DEBUG_TETRA/Entry.o
 .comment       0x00000000       0x38 Obj/GNU_ARM_DEBUG_TETRA/Menu.o
 .comment       0x00000000       0x38 Obj/GNU_ARM_DEBUG_TETRA/ComGPRS.o
 .comment       0x00000000       0x38 Obj/GNU_ARM_DEBUG_TETRA/Goal.o
 .comment       0x00000000       0x38 Obj/GNU_ARM_DEBUG_TETRA/Mapapp.o
 .comment       0x00000000       0x38 Obj/GNU_ARM_DEBUG_TETRA/FMG.o
 .comment       0x00000000       0x38 Obj/GNU_ARM_DEBUG_TETRA/Utility.o
 .comment       0x00000000       0x38 Obj/GNU_ARM_DEBUG_TETRA/Timer.o
 .comment       0x00000000       0x38 Obj/GNU_ARM_DEBUG_TETRA/iso8583.o
 .comment       0x00000000       0x38 Obj/GNU_ARM_DEBUG_TETRA/transaction.o
 .comment       0x00000000       0x38 Obj/GNU_ARM_DEBUG_TETRA/globals.o
 .comment       0x00000000       0x38 Obj/GNU_ARM_DEBUG_TETRA/magnetic.o
 .comment       0x00000000       0x38 Obj/GNU_ARM_DEBUG_TETRA/schemes.o
 .comment       0x00000000       0x38 Obj/GNU_ARM_DEBUG_TETRA/amount.o
 .comment       0x00000000       0x38 C:/Users/bkirii/Desktop/c/base_test_14/TRAINAPP/lib/FMG_TPlus.a(VGE_FMG.o)
 .comment       0x00000000       0x38 C:/Users/bkirii/Desktop/c/base_test_14/TRAINAPP/lib/FMG_TPlus.a(md5.o)
 .comment       0x00000000       0x38 C:/Program Files/TeliumSDK/SDK11.16.8.02/SDKTPLUS/HW_TETRA/gnu_473/lib/Platform/ExtraGPRS.lib(LIBGPRS_link.o)
 .comment       0x00000000       0x38 C:/Program Files/TeliumSDK/SDK11.16.8.02/SDKTPLUS/HW_TETRA/gnu_473/lib/Platform/liblinklayer.lib(LINKLAYER_link.o)
 .comment       0x00000000       0x38 C:/Program Files/TeliumSDK/SDK11.16.8.02/SDKTPLUS/HW_TETRA/gnu_473/lib/Platform/TlvTree.lib(TLV_TREE_DLL_link.o)
 .comment       0x00000000       0x38 C:/Program Files/TeliumSDK/SDK11.16.8.02/SDKTPLUS/HW_TETRA/gnu_473/lib/Platform/libwrapper_tplus.lib(extenstp1.o)
 .comment       0x00000000       0x38 C:/Program Files/TeliumSDK/SDK11.16.8.02/SDKTPLUS/HW_TETRA/gnu_473/lib/Platform/libwrapper_tplus.lib(libgrtp1.o)
 .comment       0x00000000       0x38 C:/Program Files/TeliumSDK/SDK11.16.8.02/SDKTPLUS/HW_TETRA/gnu_473/lib/Platform/libwrapper_tplus.lib(paramtp1.o)
 .comment       0x00000000       0x38 C:/Program Files/TeliumSDK/SDK11.16.8.02/SDKTPLUS/HW_TETRA/gnu_473/lib/Platform/libwrapper_tplus.lib(pinpadtp1.o)
 .comment       0x00000000       0x38 C:/Program Files/TeliumSDK/SDK11.16.8.02/SDKTPLUS/HW_TETRA/gnu_473/lib/Platform/libwrapper_tplus.lib(Telium_Pprintf.o)
 .comment       0x00000000       0x38 C:/Program Files/TeliumSDK/SDK11.16.8.02/SDKTPLUS/HW_TETRA/gnu_473/lib/Platform/libwrapper_tplus.lib(Telium_Printf.o)
 .comment       0x00000000       0x38 C:/Program Files/TeliumSDK/SDK11.16.8.02/SDKTPLUS/HW_TETRA/gnu_473/lib/Platform/libwrapper_tplus.lib(Telium_Sprintf.o)
 .comment       0x00000000       0x38 C:/Program Files/TeliumSDK/SDK11.16.8.02/SDKTPLUS/HW_TETRA/gnu_473/lib/Platform/libwrapper_tplus.lib(emulationtp1.o)
 .comment       0x00000000       0x38 C:/Program Files/TeliumSDK/SDK11.16.8.02/SDKTPLUS/HW_TETRA/gnu_473/lib/Platform/libwrapper_tplus.lib(extensttrois9.o)
 .comment       0x00000000       0x38 C:/Program Files/TeliumSDK/SDK11.16.8.02/SDKTPLUS/HW_TETRA/gnu_473/lib/Platform/libwrapper_tplus.lib(toolstp1.o)
 .comment       0x00000000       0x38 C:/Program Files/TeliumSDK/SDK11.16.8.02/SDKTPLUS/HW_TETRA/gnu_473/lib/Platform/libwrapper_tplus.lib(wrappertp1.o)
 .comment       0x00000000       0x38 C:/Program Files/TeliumSDK/SDK11.16.8.02/SDKTPLUS/HW_TETRA/gnu_473/lib/Platform\libSec.a(Telium3.o)
 .comment       0x00000000       0x38 C:/Program Files/TeliumSDK/SDK11.16.8.02/SDKTPLUS/HW_TETRA/gnu_473/lib/Platform\libSec.a(LIBSECV2_link.o)
 .comment       0x00000000       0x38 C:/Program Files/TeliumSDK/SDK11.16.8.02/SDKTPLUS/HW_TETRA/gnu_473/lib/Platform\libGRAPHICLIB.a(GL_GraphicLib_Create.o)
 .comment       0x00000000       0x38 C:/Program Files/TeliumSDK/SDK11.16.8.02/SDKTPLUS/HW_TETRA/gnu_473/lib/Platform\libGRAPHICLIB.a(GL_link.o)
 .comment       0x00000000       0x38 C:/Program Files/TeliumSDK/SDK11.16.8.02/SDKTPLUS/HW_TETRA/gnu_473/lib/Platform\libgtl.a(GTL_StdTimer.o)
 .comment       0x00000000       0x38 E:/IngeDev_8.18.0.5/toolchains/gnuArm47v7a-4/arm-islero-linux-gnueabi/sysroot/usr/lib/libc_nonshared.a(elf-init.oS)
 .comment       0x00000000       0x38 E:/IngeDev_8.18.0.5/toolchains/gnuArm47v7a-4/lib/gcc/arm-islero-linux-gnueabi/4.7.3/crtend.o
 .comment       0x00000000       0x38 E:/IngeDev_8.18.0.5/toolchains/gnuArm47v7a-4/arm-islero-linux-gnueabi/sysroot/usr/lib/crtn.o
 .comment       0x00000000       0x50 C:/Program Files/TeliumSDK/SDK11.16.8.02/SDKTPLUS/HW_TETRA/gnu_473/startfiles/stapp_legacyexitpoint.o

.ARM.attributes
                0x00000000       0x41
 .ARM.attributes
                0x00000000       0x43 E:/IngeDev_8.18.0.5/toolchains/gnuArm47v7a-4/arm-islero-linux-gnueabi/sysroot/usr/lib/crti.o
 .ARM.attributes
                0x00000043       0x3d E:/IngeDev_8.18.0.5/toolchains/gnuArm47v7a-4/arm-islero-linux-gnueabi/sysroot/usr/lib/crt1.o
 .ARM.attributes
                0x00000080       0x43 E:/IngeDev_8.18.0.5/toolchains/gnuArm47v7a-4/lib/gcc/arm-islero-linux-gnueabi/4.7.3/crtbegin.o
 .ARM.attributes
                0x000000c3       0x3d C:/Program Files/TeliumSDK/SDK11.16.8.02/SDKTPLUS/HW_TETRA/gnu_473/startfiles/startup_tplusentry.o
 .ARM.attributes
                0x00000100       0x39 Obj/GNU_ARM_DEBUG_TETRA/Main.o
 .ARM.attributes
                0x00000139       0x39 Obj/GNU_ARM_DEBUG_TETRA/Entry.o
 .ARM.attributes
                0x00000172       0x39 Obj/GNU_ARM_DEBUG_TETRA/Menu.o
 .ARM.attributes
                0x000001ab       0x39 Obj/GNU_ARM_DEBUG_TETRA/ComGPRS.o
 .ARM.attributes
                0x000001e4       0x39 Obj/GNU_ARM_DEBUG_TETRA/Goal.o
 .ARM.attributes
                0x0000021d       0x39 Obj/GNU_ARM_DEBUG_TETRA/Mapapp.o
 .ARM.attributes
                0x00000256       0x39 Obj/GNU_ARM_DEBUG_TETRA/FMG.o
 .ARM.attributes
                0x0000028f       0x39 Obj/GNU_ARM_DEBUG_TETRA/Utility.o
 .ARM.attributes
                0x000002c8       0x39 Obj/GNU_ARM_DEBUG_TETRA/Timer.o
 .ARM.attributes
                0x00000301       0x39 Obj/GNU_ARM_DEBUG_TETRA/iso8583.o
 .ARM.attributes
                0x0000033a       0x39 Obj/GNU_ARM_DEBUG_TETRA/transaction.o
 .ARM.attributes
                0x00000373       0x39 Obj/GNU_ARM_DEBUG_TETRA/globals.o
 .ARM.attributes
                0x000003ac       0x39 Obj/GNU_ARM_DEBUG_TETRA/magnetic.o
 .ARM.attributes
                0x000003e5       0x39 Obj/GNU_ARM_DEBUG_TETRA/schemes.o
 .ARM.attributes
                0x0000041e       0x39 Obj/GNU_ARM_DEBUG_TETRA/amount.o
 .ARM.attributes
                0x00000457       0x39 C:/Users/bkirii/Desktop/c/base_test_14/TRAINAPP/lib/FMG_TPlus.a(VGE_FMG.o)
 .ARM.attributes
                0x00000490       0x39 C:/Users/bkirii/Desktop/c/base_test_14/TRAINAPP/lib/FMG_TPlus.a(md5.o)
 .ARM.attributes
                0x000004c9       0x29 C:/Program Files/TeliumSDK/SDK11.16.8.02/SDKTPLUS/HW_TETRA/gnu_473/lib/Platform/ExtraGPRS.lib(gprs_GetInformation.o)
 .ARM.attributes
                0x000004f2       0x29 C:/Program Files/TeliumSDK/SDK11.16.8.02/SDKTPLUS/HW_TETRA/gnu_473/lib/Platform/ExtraGPRS.lib(gprs_SetPinModeFree.o)
 .ARM.attributes
                0x0000051b       0x29 C:/Program Files/TeliumSDK/SDK11.16.8.02/SDKTPLUS/HW_TETRA/gnu_473/lib/Platform/ExtraGPRS.lib(gprs_SubmitPuk.o)
 .ARM.attributes
                0x00000544       0x29 C:/Program Files/TeliumSDK/SDK11.16.8.02/SDKTPLUS/HW_TETRA/gnu_473/lib/Platform/ExtraGPRS.lib(LIBGPRS_asm_link.o)
 .ARM.attributes
                0x0000056d       0x43 C:/Program Files/TeliumSDK/SDK11.16.8.02/SDKTPLUS/HW_TETRA/gnu_473/lib/Platform/ExtraGPRS.lib(LIBGPRS_link.o)
 .ARM.attributes
                0x000005b0       0x29 C:/Program Files/TeliumSDK/SDK11.16.8.02/SDKTPLUS/HW_TETRA/gnu_473/lib/Platform/liblinklayer.lib(LL_ClearReceiveBuffer.o)
 .ARM.attributes
                0x000005d9       0x29 C:/Program Files/TeliumSDK/SDK11.16.8.02/SDKTPLUS/HW_TETRA/gnu_473/lib/Platform/liblinklayer.lib(LL_ClearSendBuffer.o)
 .ARM.attributes
                0x00000602       0x29 C:/Program Files/TeliumSDK/SDK11.16.8.02/SDKTPLUS/HW_TETRA/gnu_473/lib/Platform/liblinklayer.lib(LL_Configure.o)
 .ARM.attributes
                0x0000062b       0x29 C:/Program Files/TeliumSDK/SDK11.16.8.02/SDKTPLUS/HW_TETRA/gnu_473/lib/Platform/liblinklayer.lib(LL_Connect.o)
 .ARM.attributes
                0x00000654       0x29 C:/Program Files/TeliumSDK/SDK11.16.8.02/SDKTPLUS/HW_TETRA/gnu_473/lib/Platform/liblinklayer.lib(LL_Disconnect.o)
 .ARM.attributes
                0x0000067d       0x29 C:/Program Files/TeliumSDK/SDK11.16.8.02/SDKTPLUS/HW_TETRA/gnu_473/lib/Platform/liblinklayer.lib(LL_GetLastError.o)
 .ARM.attributes
                0x000006a6       0x29 C:/Program Files/TeliumSDK/SDK11.16.8.02/SDKTPLUS/HW_TETRA/gnu_473/lib/Platform/liblinklayer.lib(LL_GPRS_Connect.o)
 .ARM.attributes
                0x000006cf       0x29 C:/Program Files/TeliumSDK/SDK11.16.8.02/SDKTPLUS/HW_TETRA/gnu_473/lib/Platform/liblinklayer.lib(LL_GPRS_Start.o)
 .ARM.attributes
                0x000006f8       0x29 C:/Program Files/TeliumSDK/SDK11.16.8.02/SDKTPLUS/HW_TETRA/gnu_473/lib/Platform/liblinklayer.lib(LL_GSM_Start.o)
 .ARM.attributes
                0x00000721       0x29 C:/Program Files/TeliumSDK/SDK11.16.8.02/SDKTPLUS/HW_TETRA/gnu_473/lib/Platform/liblinklayer.lib(LL_Network_GetStatus.o)
 .ARM.attributes
                0x0000074a       0x29 C:/Program Files/TeliumSDK/SDK11.16.8.02/SDKTPLUS/HW_TETRA/gnu_473/lib/Platform/liblinklayer.lib(LL_Receive.o)
 .ARM.attributes
                0x00000773       0x29 C:/Program Files/TeliumSDK/SDK11.16.8.02/SDKTPLUS/HW_TETRA/gnu_473/lib/Platform/liblinklayer.lib(LL_Send.o)
 .ARM.attributes
                0x0000079c       0x29 C:/Program Files/TeliumSDK/SDK11.16.8.02/SDKTPLUS/HW_TETRA/gnu_473/lib/Platform/liblinklayer.lib(LINKLAYER_asm_link.o)
 .ARM.attributes
                0x000007c5       0x43 C:/Program Files/TeliumSDK/SDK11.16.8.02/SDKTPLUS/HW_TETRA/gnu_473/lib/Platform/liblinklayer.lib(LINKLAYER_link.o)
 .ARM.attributes
                0x00000808       0x29 C:/Program Files/TeliumSDK/SDK11.16.8.02/SDKTPLUS/HW_TETRA/gnu_473/lib/Platform/TlvTree.lib(TlvTree_AddChild.o)
 .ARM.attributes
                0x00000831       0x29 C:/Program Files/TeliumSDK/SDK11.16.8.02/SDKTPLUS/HW_TETRA/gnu_473/lib/Platform/TlvTree.lib(TlvTree_AddChildInteger.o)
 .ARM.attributes
                0x0000085a       0x29 C:/Program Files/TeliumSDK/SDK11.16.8.02/SDKTPLUS/HW_TETRA/gnu_473/lib/Platform/TlvTree.lib(TlvTree_AddChildString.o)
 .ARM.attributes
                0x00000883       0x29 C:/Program Files/TeliumSDK/SDK11.16.8.02/SDKTPLUS/HW_TETRA/gnu_473/lib/Platform/TlvTree.lib(TlvTree_New.o)
 .ARM.attributes
                0x000008ac       0x29 C:/Program Files/TeliumSDK/SDK11.16.8.02/SDKTPLUS/HW_TETRA/gnu_473/lib/Platform/TlvTree.lib(TlvTree_Release.o)
 .ARM.attributes
                0x000008d5       0x29 C:/Program Files/TeliumSDK/SDK11.16.8.02/SDKTPLUS/HW_TETRA/gnu_473/lib/Platform/TlvTree.lib(TLV_TREE_DLL_asm_link.o)
 .ARM.attributes
                0x000008fe       0x43 C:/Program Files/TeliumSDK/SDK11.16.8.02/SDKTPLUS/HW_TETRA/gnu_473/lib/Platform/TlvTree.lib(TLV_TREE_DLL_link.o)
 .ARM.attributes
                0x00000941       0x23 C:/Program Files/TeliumSDK/SDK11.16.8.02/SDKTPLUS/HW_TETRA/gnu_473/lib/Platform/libwrapper_tplus.lib(DLLExist.o)
 .ARM.attributes
                0x00000964       0x23 C:/Program Files/TeliumSDK/SDK11.16.8.02/SDKTPLUS/HW_TETRA/gnu_473/lib/Platform/libwrapper_tplus.lib(d_tolong.o)
 .ARM.attributes
                0x00000987       0x23 C:/Program Files/TeliumSDK/SDK11.16.8.02/SDKTPLUS/HW_TETRA/gnu_473/lib/Platform/libwrapper_tplus.lib(stdcam0.o)
 .ARM.attributes
                0x000009aa       0x39 C:/Program Files/TeliumSDK/SDK11.16.8.02/SDKTPLUS/HW_TETRA/gnu_473/lib/Platform/libwrapper_tplus.lib(extenstp1.o)
 .ARM.attributes
                0x000009e3       0x23 C:/Program Files/TeliumSDK/SDK11.16.8.02/SDKTPLUS/HW_TETRA/gnu_473/lib/Platform/libwrapper_tplus.lib(Telium_Fclose.o)
 .ARM.attributes
                0x00000a06       0x23 C:/Program Files/TeliumSDK/SDK11.16.8.02/SDKTPLUS/HW_TETRA/gnu_473/lib/Platform/libwrapper_tplus.lib(Telium_Fopen.o)
 .ARM.attributes
                0x00000a29       0x23 C:/Program Files/TeliumSDK/SDK11.16.8.02/SDKTPLUS/HW_TETRA/gnu_473/lib/Platform/libwrapper_tplus.lib(Telium_Getc.o)
 .ARM.attributes
                0x00000a4c       0x23 C:/Program Files/TeliumSDK/SDK11.16.8.02/SDKTPLUS/HW_TETRA/gnu_473/lib/Platform/libwrapper_tplus.lib(Telium_Is_iso1.o)
 .ARM.attributes
                0x00000a6f       0x23 C:/Program Files/TeliumSDK/SDK11.16.8.02/SDKTPLUS/HW_TETRA/gnu_473/lib/Platform/libwrapper_tplus.lib(Telium_Is_iso2.o)
 .ARM.attributes
                0x00000a92       0x23 C:/Program Files/TeliumSDK/SDK11.16.8.02/SDKTPLUS/HW_TETRA/gnu_473/lib/Platform/libwrapper_tplus.lib(Telium_Is_iso3.o)
 .ARM.attributes
                0x00000ab5       0x23 C:/Program Files/TeliumSDK/SDK11.16.8.02/SDKTPLUS/HW_TETRA/gnu_473/lib/Platform/libwrapper_tplus.lib(Telium_Reset_buf.o)
 .ARM.attributes
                0x00000ad8       0x23 C:/Program Files/TeliumSDK/SDK11.16.8.02/SDKTPLUS/HW_TETRA/gnu_473/lib/Platform/libwrapper_tplus.lib(Telium_Status.o)
 .ARM.attributes
                0x00000afb       0x23 C:/Program Files/TeliumSDK/SDK11.16.8.02/SDKTPLUS/HW_TETRA/gnu_473/lib/Platform/libwrapper_tplus.lib(Telium_Stdin.o)
 .ARM.attributes
                0x00000b1e       0x23 C:/Program Files/TeliumSDK/SDK11.16.8.02/SDKTPLUS/HW_TETRA/gnu_473/lib/Platform/libwrapper_tplus.lib(Telium_Stdout.o)
 .ARM.attributes
                0x00000b41       0x23 C:/Program Files/TeliumSDK/SDK11.16.8.02/SDKTPLUS/HW_TETRA/gnu_473/lib/Platform/libwrapper_tplus.lib(Telium_Stdperif.o)
 .ARM.attributes
                0x00000b64       0x23 C:/Program Files/TeliumSDK/SDK11.16.8.02/SDKTPLUS/HW_TETRA/gnu_473/lib/Platform/libwrapper_tplus.lib(Telium_Ttestall.o)
 .ARM.attributes
                0x00000b87       0x23 C:/Program Files/TeliumSDK/SDK11.16.8.02/SDKTPLUS/HW_TETRA/gnu_473/lib/Platform/libwrapper_tplus.lib(buzzer.o)
 .ARM.attributes
                0x00000baa       0x23 C:/Program Files/TeliumSDK/SDK11.16.8.02/SDKTPLUS/HW_TETRA/gnu_473/lib/Platform/libwrapper_tplus.lib(DrawExtendedString.o)
 .ARM.attributes
                0x00000bcd       0x23 C:/Program Files/TeliumSDK/SDK11.16.8.02/SDKTPLUS/HW_TETRA/gnu_473/lib/Platform/libwrapper_tplus.lib(InitContexteGraphique.o)
 .ARM.attributes
                0x00000bf0       0x23 C:/Program Files/TeliumSDK/SDK11.16.8.02/SDKTPLUS/HW_TETRA/gnu_473/lib/Platform/libwrapper_tplus.lib(PaintGraphics.o)
 .ARM.attributes
                0x00000c13       0x23 C:/Program Files/TeliumSDK/SDK11.16.8.02/SDKTPLUS/HW_TETRA/gnu_473/lib/Platform/libwrapper_tplus.lib(_DrawExtendedString.o)
 .ARM.attributes
                0x00000c36       0x39 C:/Program Files/TeliumSDK/SDK11.16.8.02/SDKTPLUS/HW_TETRA/gnu_473/lib/Platform/libwrapper_tplus.lib(libgrtp1.o)
 .ARM.attributes
                0x00000c6f       0x23 C:/Program Files/TeliumSDK/SDK11.16.8.02/SDKTPLUS/HW_TETRA/gnu_473/lib/Platform/libwrapper_tplus.lib(PSQ_Est_pinpad.o)
 .ARM.attributes
                0x00000c92       0x23 C:/Program Files/TeliumSDK/SDK11.16.8.02/SDKTPLUS/HW_TETRA/gnu_473/lib/Platform/libwrapper_tplus.lib(PSQ_donner_type_pinpad.o)
 .ARM.attributes
                0x00000cb5       0x39 C:/Program Files/TeliumSDK/SDK11.16.8.02/SDKTPLUS/HW_TETRA/gnu_473/lib/Platform/libwrapper_tplus.lib(paramtp1.o)
 .ARM.attributes
                0x00000cee       0x23 C:/Program Files/TeliumSDK/SDK11.16.8.02/SDKTPLUS/HW_TETRA/gnu_473/lib/Platform/libwrapper_tplus.lib(IsPPSConnected.o)
 .ARM.attributes
                0x00000d11       0x23 C:/Program Files/TeliumSDK/SDK11.16.8.02/SDKTPLUS/HW_TETRA/gnu_473/lib/Platform/libwrapper_tplus.lib(PPS_SendTerminalRefRequestCommand.o)
 .ARM.attributes
                0x00000d34       0x23 C:/Program Files/TeliumSDK/SDK11.16.8.02/SDKTPLUS/HW_TETRA/gnu_473/lib/Platform/libwrapper_tplus.lib(PPS_firstline.o)
 .ARM.attributes
                0x00000d57       0x23 C:/Program Files/TeliumSDK/SDK11.16.8.02/SDKTPLUS/HW_TETRA/gnu_473/lib/Platform/libwrapper_tplus.lib(PPS_newline.o)
 .ARM.attributes
                0x00000d7a       0x39 C:/Program Files/TeliumSDK/SDK11.16.8.02/SDKTPLUS/HW_TETRA/gnu_473/lib/Platform/libwrapper_tplus.lib(pinpadtp1.o)
 .ARM.attributes
                0x00000db3       0x23 C:/Program Files/TeliumSDK/SDK11.16.8.02/SDKTPLUS/HW_TETRA/gnu_473/lib/Platform/libwrapper_tplus.lib(PPS_Display.o)
 .ARM.attributes
                0x00000dd6       0x23 C:/Program Files/TeliumSDK/SDK11.16.8.02/SDKTPLUS/HW_TETRA/gnu_473/lib/Platform/libwrapper_tplus.lib(Telium_Read_date.o)
 .ARM.attributes
                0x00000df9       0x23 C:/Program Files/TeliumSDK/SDK11.16.8.02/SDKTPLUS/HW_TETRA/gnu_473/lib/Platform/libwrapper_tplus.lib(BoosterType.o)
 .ARM.attributes
                0x00000e1c       0x23 C:/Program Files/TeliumSDK/SDK11.16.8.02/SDKTPLUS/HW_TETRA/gnu_473/lib/Platform/libwrapper_tplus.lib(IsColorDisplay.o)
 .ARM.attributes
                0x00000e3f       0x23 C:/Program Files/TeliumSDK/SDK11.16.8.02/SDKTPLUS/HW_TETRA/gnu_473/lib/Platform/libwrapper_tplus.lib(IsISO1.o)
 .ARM.attributes
                0x00000e62       0x23 C:/Program Files/TeliumSDK/SDK11.16.8.02/SDKTPLUS/HW_TETRA/gnu_473/lib/Platform/libwrapper_tplus.lib(IsISO2.o)
 .ARM.attributes
                0x00000e85       0x23 C:/Program Files/TeliumSDK/SDK11.16.8.02/SDKTPLUS/HW_TETRA/gnu_473/lib/Platform/libwrapper_tplus.lib(IsISO3.o)
 .ARM.attributes
                0x00000ea8       0x23 C:/Program Files/TeliumSDK/SDK11.16.8.02/SDKTPLUS/HW_TETRA/gnu_473/lib/Platform/libwrapper_tplus.lib(IsPrinter.o)
 .ARM.attributes
                0x00000ecb       0x23 C:/Program Files/TeliumSDK/SDK11.16.8.02/SDKTPLUS/HW_TETRA/gnu_473/lib/Platform/libwrapper_tplus.lib(Telium_ServiceRegister.o)
 .ARM.attributes
                0x00000eee       0x39 C:/Program Files/TeliumSDK/SDK11.16.8.02/SDKTPLUS/HW_TETRA/gnu_473/lib/Platform/libwrapper_tplus.lib(Telium_Pprintf.o)
 .ARM.attributes
                0x00000f27       0x39 C:/Program Files/TeliumSDK/SDK11.16.8.02/SDKTPLUS/HW_TETRA/gnu_473/lib/Platform/libwrapper_tplus.lib(Telium_Printf.o)
 .ARM.attributes
                0x00000f60       0x23 C:/Program Files/TeliumSDK/SDK11.16.8.02/SDKTPLUS/HW_TETRA/gnu_473/lib/Platform/libwrapper_tplus.lib(Telium_Stdprt.o)
 .ARM.attributes
                0x00000f83       0x39 C:/Program Files/TeliumSDK/SDK11.16.8.02/SDKTPLUS/HW_TETRA/gnu_473/lib/Platform/libwrapper_tplus.lib(Telium_Sprintf.o)
 .ARM.attributes
                0x00000fbc       0x23 C:/Program Files/TeliumSDK/SDK11.16.8.02/SDKTPLUS/HW_TETRA/gnu_473/lib/Platform/libwrapper_tplus.lib(ApplicationGetCurrent.o)
 .ARM.attributes
                0x00000fdf       0x23 C:/Program Files/TeliumSDK/SDK11.16.8.02/SDKTPLUS/HW_TETRA/gnu_473/lib/Platform/libwrapper_tplus.lib(FS_close.o)
 .ARM.attributes
                0x00001002       0x23 C:/Program Files/TeliumSDK/SDK11.16.8.02/SDKTPLUS/HW_TETRA/gnu_473/lib/Platform/libwrapper_tplus.lib(FS_dskcreate.o)
 .ARM.attributes
                0x00001025       0x23 C:/Program Files/TeliumSDK/SDK11.16.8.02/SDKTPLUS/HW_TETRA/gnu_473/lib/Platform/libwrapper_tplus.lib(FS_exist.o)
 .ARM.attributes
                0x00001048       0x23 C:/Program Files/TeliumSDK/SDK11.16.8.02/SDKTPLUS/HW_TETRA/gnu_473/lib/Platform/libwrapper_tplus.lib(FS_length.o)
 .ARM.attributes
                0x0000106b       0x23 C:/Program Files/TeliumSDK/SDK11.16.8.02/SDKTPLUS/HW_TETRA/gnu_473/lib/Platform/libwrapper_tplus.lib(FS_mount.o)
 .ARM.attributes
                0x0000108e       0x23 C:/Program Files/TeliumSDK/SDK11.16.8.02/SDKTPLUS/HW_TETRA/gnu_473/lib/Platform/libwrapper_tplus.lib(FS_open.o)
 .ARM.attributes
                0x000010b1       0x23 C:/Program Files/TeliumSDK/SDK11.16.8.02/SDKTPLUS/HW_TETRA/gnu_473/lib/Platform/libwrapper_tplus.lib(FS_read.o)
 .ARM.attributes
                0x000010d4       0x23 C:/Program Files/TeliumSDK/SDK11.16.8.02/SDKTPLUS/HW_TETRA/gnu_473/lib/Platform/libwrapper_tplus.lib(FS_rename.o)
 .ARM.attributes
                0x000010f7       0x23 C:/Program Files/TeliumSDK/SDK11.16.8.02/SDKTPLUS/HW_TETRA/gnu_473/lib/Platform/libwrapper_tplus.lib(FS_seek.o)
 .ARM.attributes
                0x0000111a       0x23 C:/Program Files/TeliumSDK/SDK11.16.8.02/SDKTPLUS/HW_TETRA/gnu_473/lib/Platform/libwrapper_tplus.lib(FS_unlink.o)
 .ARM.attributes
                0x0000113d       0x23 C:/Program Files/TeliumSDK/SDK11.16.8.02/SDKTPLUS/HW_TETRA/gnu_473/lib/Platform/libwrapper_tplus.lib(FS_unmount.o)
 .ARM.attributes
                0x00001160       0x23 C:/Program Files/TeliumSDK/SDK11.16.8.02/SDKTPLUS/HW_TETRA/gnu_473/lib/Platform/libwrapper_tplus.lib(FS_write.o)
 .ARM.attributes
                0x00001183       0x23 C:/Program Files/TeliumSDK/SDK11.16.8.02/SDKTPLUS/HW_TETRA/gnu_473/lib/Platform/libwrapper_tplus.lib(ObjectGetDescriptor.o)
 .ARM.attributes
                0x000011a6       0x23 C:/Program Files/TeliumSDK/SDK11.16.8.02/SDKTPLUS/HW_TETRA/gnu_473/lib/Platform/libwrapper_tplus.lib(ObjectGetInfo.o)
 .ARM.attributes
                0x000011c9       0x23 C:/Program Files/TeliumSDK/SDK11.16.8.02/SDKTPLUS/HW_TETRA/gnu_473/lib/Platform/libwrapper_tplus.lib(PageAlloc.o)
 .ARM.attributes
                0x000011ec       0x23 C:/Program Files/TeliumSDK/SDK11.16.8.02/SDKTPLUS/HW_TETRA/gnu_473/lib/Platform/libwrapper_tplus.lib(PageFree.o)
 .ARM.attributes
                0x0000120f       0x23 C:/Program Files/TeliumSDK/SDK11.16.8.02/SDKTPLUS/HW_TETRA/gnu_473/lib/Platform/libwrapper_tplus.lib(first_init.o)
 .ARM.attributes
                0x00001232       0x23 C:/Program Files/TeliumSDK/SDK11.16.8.02/SDKTPLUS/HW_TETRA/gnu_473/lib/Platform/libwrapper_tplus.lib(raz_init.o)
 .ARM.attributes
                0x00001255       0x23 C:/Program Files/TeliumSDK/SDK11.16.8.02/SDKTPLUS/HW_TETRA/gnu_473/lib/Platform/libwrapper_tplus.lib(DisplayFooter.o)
 .ARM.attributes
                0x00001278       0x23 C:/Program Files/TeliumSDK/SDK11.16.8.02/SDKTPLUS/HW_TETRA/gnu_473/lib/Platform/libwrapper_tplus.lib(DisplayHeader.o)
 .ARM.attributes
                0x0000129b       0x23 C:/Program Files/TeliumSDK/SDK11.16.8.02/SDKTPLUS/HW_TETRA/gnu_473/lib/Platform/libwrapper_tplus.lib(DisplayLeds.o)
 .ARM.attributes
                0x000012be       0x23 C:/Program Files/TeliumSDK/SDK11.16.8.02/SDKTPLUS/HW_TETRA/gnu_473/lib/Platform/libwrapper_tplus.lib(IsFooter.o)
 .ARM.attributes
                0x000012e1       0x23 C:/Program Files/TeliumSDK/SDK11.16.8.02/SDKTPLUS/HW_TETRA/gnu_473/lib/Platform/libwrapper_tplus.lib(IsHeader.o)
 .ARM.attributes
                0x00001304       0x23 C:/Program Files/TeliumSDK/SDK11.16.8.02/SDKTPLUS/HW_TETRA/gnu_473/lib/Platform/libwrapper_tplus.lib(Telium_Exit.o)
 .ARM.attributes
                0x00001327       0x23 C:/Program Files/TeliumSDK/SDK11.16.8.02/SDKTPLUS/HW_TETRA/gnu_473/lib/Platform/libwrapper_tplus.lib(upload_diagnostic_txt.o)
 .ARM.attributes
                0x0000134a       0x39 C:/Program Files/TeliumSDK/SDK11.16.8.02/SDKTPLUS/HW_TETRA/gnu_473/lib/Platform/libwrapper_tplus.lib(emulationtp1.o)
 .ARM.attributes
                0x00001383       0x23 C:/Program Files/TeliumSDK/SDK11.16.8.02/SDKTPLUS/HW_TETRA/gnu_473/lib/Platform/libwrapper_tplus.lib(TM_InitContexteGraphique.o)
 .ARM.attributes
                0x000013a6       0x39 C:/Program Files/TeliumSDK/SDK11.16.8.02/SDKTPLUS/HW_TETRA/gnu_473/lib/Platform/libwrapper_tplus.lib(extensttrois9.o)
 .ARM.attributes
                0x000013df       0x39 C:/Program Files/TeliumSDK/SDK11.16.8.02/SDKTPLUS/HW_TETRA/gnu_473/lib/Platform/libwrapper_tplus.lib(toolstp1.o)
 .ARM.attributes
                0x00001418       0x39 C:/Program Files/TeliumSDK/SDK11.16.8.02/SDKTPLUS/HW_TETRA/gnu_473/lib/Platform/libwrapper_tplus.lib(wrappertp1.o)
 .ARM.attributes
                0x00001451       0x29 C:/Program Files/TeliumSDK/SDK11.16.8.02/SDKTPLUS/HW_TETRA/gnu_473/lib/Platform\libSec.a(SEC_ComputeMAC.o)
 .ARM.attributes
                0x0000147a       0x29 C:/Program Files/TeliumSDK/SDK11.16.8.02/SDKTPLUS/HW_TETRA/gnu_473/lib/Platform\libSec.a(SEC_GetConfig.o)
 .ARM.attributes
                0x000014a3       0x29 C:/Program Files/TeliumSDK/SDK11.16.8.02/SDKTPLUS/HW_TETRA/gnu_473/lib/Platform\libSec.a(SEC_Iso9564.o)
 .ARM.attributes
                0x000014cc       0x29 C:/Program Files/TeliumSDK/SDK11.16.8.02/SDKTPLUS/HW_TETRA/gnu_473/lib/Platform\libSec.a(SEC_isSecretArea.o)
 .ARM.attributes
                0x000014f5       0x29 C:/Program Files/TeliumSDK/SDK11.16.8.02/SDKTPLUS/HW_TETRA/gnu_473/lib/Platform\libSec.a(SEC_KeyVerify.o)
 .ARM.attributes
                0x0000151e       0x29 C:/Program Files/TeliumSDK/SDK11.16.8.02/SDKTPLUS/HW_TETRA/gnu_473/lib/Platform\libSec.a(SEC_listSecureId.o)
 .ARM.attributes
                0x00001547       0x29 C:/Program Files/TeliumSDK/SDK11.16.8.02/SDKTPLUS/HW_TETRA/gnu_473/lib/Platform\libSec.a(SEC_listTLVKeys.o)
 .ARM.attributes
                0x00001570       0x29 C:/Program Files/TeliumSDK/SDK11.16.8.02/SDKTPLUS/HW_TETRA/gnu_473/lib/Platform\libSec.a(SEC_LoadKey.o)
 .ARM.attributes
                0x00001599       0x29 C:/Program Files/TeliumSDK/SDK11.16.8.02/SDKTPLUS/HW_TETRA/gnu_473/lib/Platform\libSec.a(SEC_PinEntry.o)
 .ARM.attributes
                0x000015c2       0x29 C:/Program Files/TeliumSDK/SDK11.16.8.02/SDKTPLUS/HW_TETRA/gnu_473/lib/Platform\libSec.a(SEC_PinEntryInit.o)
 .ARM.attributes
                0x000015eb       0x29 C:/Program Files/TeliumSDK/SDK11.16.8.02/SDKTPLUS/HW_TETRA/gnu_473/lib/Platform\libSec.a(SEC_SetConfig.o)
 .ARM.attributes
                0x00001614       0x43 C:/Program Files/TeliumSDK/SDK11.16.8.02/SDKTPLUS/HW_TETRA/gnu_473/lib/Platform\libSec.a(Telium3.o)
 .ARM.attributes
                0x00001657       0x29 C:/Program Files/TeliumSDK/SDK11.16.8.02/SDKTPLUS/HW_TETRA/gnu_473/lib/Platform\libSec.a(LIBSECV2_asm_link.o)
 .ARM.attributes
                0x00001680       0x43 C:/Program Files/TeliumSDK/SDK11.16.8.02/SDKTPLUS/HW_TETRA/gnu_473/lib/Platform\libSec.a(LIBSECV2_link.o)
 .ARM.attributes
                0x000016c3       0x29 C:/Program Files/TeliumSDK/SDK11.16.8.02/SDKTPLUS/HW_TETRA/gnu_473/lib/Platform\libGRAPHICLIB.a(GL_Button_Create.o)
 .ARM.attributes
                0x000016ec       0x29 C:/Program Files/TeliumSDK/SDK11.16.8.02/SDKTPLUS/HW_TETRA/gnu_473/lib/Platform\libGRAPHICLIB.a(GL_Dialog_Amount.o)
 .ARM.attributes
                0x00001715       0x29 C:/Program Files/TeliumSDK/SDK11.16.8.02/SDKTPLUS/HW_TETRA/gnu_473/lib/Platform\libGRAPHICLIB.a(GL_Dialog_Choice.o)
 .ARM.attributes
                0x0000173e       0x29 C:/Program Files/TeliumSDK/SDK11.16.8.02/SDKTPLUS/HW_TETRA/gnu_473/lib/Platform\libGRAPHICLIB.a(GL_Dialog_Menu.o)
 .ARM.attributes
                0x00001767       0x29 C:/Program Files/TeliumSDK/SDK11.16.8.02/SDKTPLUS/HW_TETRA/gnu_473/lib/Platform\libGRAPHICLIB.a(GL_Dialog_Message.o)
 .ARM.attributes
                0x00001790       0x29 C:/Program Files/TeliumSDK/SDK11.16.8.02/SDKTPLUS/HW_TETRA/gnu_473/lib/Platform\libGRAPHICLIB.a(GL_Dialog_Password.o)
 .ARM.attributes
                0x000017b9       0x29 C:/Program Files/TeliumSDK/SDK11.16.8.02/SDKTPLUS/HW_TETRA/gnu_473/lib/Platform\libGRAPHICLIB.a(GL_Dialog_Progress.o)
 .ARM.attributes
                0x000017e2       0x29 C:/Program Files/TeliumSDK/SDK11.16.8.02/SDKTPLUS/HW_TETRA/gnu_473/lib/Platform\libGRAPHICLIB.a(GL_Dialog_Text.o)
 .ARM.attributes
                0x0000180b       0x29 C:/Program Files/TeliumSDK/SDK11.16.8.02/SDKTPLUS/HW_TETRA/gnu_473/lib/Platform\libGRAPHICLIB.a(GL_Dialog_VirtualKeyboard.o)
 .ARM.attributes
                0x00001834       0x29 C:/Program Files/TeliumSDK/SDK11.16.8.02/SDKTPLUS/HW_TETRA/gnu_473/lib/Platform\libGRAPHICLIB.a(GL_Document_Create.o)
 .ARM.attributes
                0x0000185d       0x29 C:/Program Files/TeliumSDK/SDK11.16.8.02/SDKTPLUS/HW_TETRA/gnu_473/lib/Platform\libGRAPHICLIB.a(GL_Document_Print.o)
 .ARM.attributes
                0x00001886       0x29 C:/Program Files/TeliumSDK/SDK11.16.8.02/SDKTPLUS/HW_TETRA/gnu_473/lib/Platform\libGRAPHICLIB.a(GL_Drawing_Clear.o)
 .ARM.attributes
                0x000018af       0x29 C:/Program Files/TeliumSDK/SDK11.16.8.02/SDKTPLUS/HW_TETRA/gnu_473/lib/Platform\libGRAPHICLIB.a(GL_Drawing_Create.o)
 .ARM.attributes
                0x000018d8       0x29 C:/Program Files/TeliumSDK/SDK11.16.8.02/SDKTPLUS/HW_TETRA/gnu_473/lib/Platform\libGRAPHICLIB.a(GL_Drawing_DrawEllipse.o)
 .ARM.attributes
                0x00001901       0x29 C:/Program Files/TeliumSDK/SDK11.16.8.02/SDKTPLUS/HW_TETRA/gnu_473/lib/Platform\libGRAPHICLIB.a(GL_Drawing_DrawLine.o)
 .ARM.attributes
                0x0000192a       0x29 C:/Program Files/TeliumSDK/SDK11.16.8.02/SDKTPLUS/HW_TETRA/gnu_473/lib/Platform\libGRAPHICLIB.a(GL_Drawing_DrawRect.o)
 .ARM.attributes
                0x00001953       0x29 C:/Program Files/TeliumSDK/SDK11.16.8.02/SDKTPLUS/HW_TETRA/gnu_473/lib/Platform\libGRAPHICLIB.a(GL_Drawing_DrawText.o)
 .ARM.attributes
                0x0000197c       0x29 C:/Program Files/TeliumSDK/SDK11.16.8.02/SDKTPLUS/HW_TETRA/gnu_473/lib/Platform\libGRAPHICLIB.a(GL_Drawing_SetBrush.o)
 .ARM.attributes
                0x000019a5       0x29 C:/Program Files/TeliumSDK/SDK11.16.8.02/SDKTPLUS/HW_TETRA/gnu_473/lib/Platform\libGRAPHICLIB.a(GL_Drawing_SetFont.o)
 .ARM.attributes
                0x000019ce       0x29 C:/Program Files/TeliumSDK/SDK11.16.8.02/SDKTPLUS/HW_TETRA/gnu_473/lib/Platform\libGRAPHICLIB.a(GL_Drawing_SetPen.o)
 .ARM.attributes
                0x000019f7       0x29 C:/Program Files/TeliumSDK/SDK11.16.8.02/SDKTPLUS/HW_TETRA/gnu_473/lib/Platform\libGRAPHICLIB.a(GL_GraphicLib_BindSingleKey.o)
 .ARM.attributes
                0x00001a20       0x43 C:/Program Files/TeliumSDK/SDK11.16.8.02/SDKTPLUS/HW_TETRA/gnu_473/lib/Platform\libGRAPHICLIB.a(GL_GraphicLib_Create.o)
 .ARM.attributes
                0x00001a63       0x29 C:/Program Files/TeliumSDK/SDK11.16.8.02/SDKTPLUS/HW_TETRA/gnu_473/lib/Platform\libGRAPHICLIB.a(GL_GraphicLib_IsTouchPresent.o)
 .ARM.attributes
                0x00001a8c       0x29 C:/Program Files/TeliumSDK/SDK11.16.8.02/SDKTPLUS/HW_TETRA/gnu_473/lib/Platform\libGRAPHICLIB.a(GL_GraphicLib_SetCharset.o)
 .ARM.attributes
                0x00001ab5       0x29 C:/Program Files/TeliumSDK/SDK11.16.8.02/SDKTPLUS/HW_TETRA/gnu_473/lib/Platform\libGRAPHICLIB.a(GL_GraphicLib_UnbindKey.o)
 .ARM.attributes
                0x00001ade       0x29 C:/Program Files/TeliumSDK/SDK11.16.8.02/SDKTPLUS/HW_TETRA/gnu_473/lib/Platform\libGRAPHICLIB.a(GL_Label_Create.o)
 .ARM.attributes
                0x00001b07       0x29 C:/Program Files/TeliumSDK/SDK11.16.8.02/SDKTPLUS/HW_TETRA/gnu_473/lib/Platform\libGRAPHICLIB.a(GL_Layout_Create.o)
 .ARM.attributes
                0x00001b30       0x29 C:/Program Files/TeliumSDK/SDK11.16.8.02/SDKTPLUS/HW_TETRA/gnu_473/lib/Platform\libGRAPHICLIB.a(GL_Message_GetKey.o)
 .ARM.attributes
                0x00001b59       0x29 C:/Program Files/TeliumSDK/SDK11.16.8.02/SDKTPLUS/HW_TETRA/gnu_473/lib/Platform\libGRAPHICLIB.a(GL_Message_GetWidget.o)
 .ARM.attributes
                0x00001b82       0x29 C:/Program Files/TeliumSDK/SDK11.16.8.02/SDKTPLUS/HW_TETRA/gnu_473/lib/Platform\libGRAPHICLIB.a(GL_Message_SetResult.o)
 .ARM.attributes
                0x00001bab       0x29 C:/Program Files/TeliumSDK/SDK11.16.8.02/SDKTPLUS/HW_TETRA/gnu_473/lib/Platform\libGRAPHICLIB.a(GL_Message_SetUserData.o)
 .ARM.attributes
                0x00001bd4       0x29 C:/Program Files/TeliumSDK/SDK11.16.8.02/SDKTPLUS/HW_TETRA/gnu_473/lib/Platform\libGRAPHICLIB.a(GL_Picture_Create.o)
 .ARM.attributes
                0x00001bfd       0x29 C:/Program Files/TeliumSDK/SDK11.16.8.02/SDKTPLUS/HW_TETRA/gnu_473/lib/Platform\libGRAPHICLIB.a(GL_Print_Create.o)
 .ARM.attributes
                0x00001c26       0x29 C:/Program Files/TeliumSDK/SDK11.16.8.02/SDKTPLUS/HW_TETRA/gnu_473/lib/Platform\libGRAPHICLIB.a(GL_Timer_Create.o)
 .ARM.attributes
                0x00001c4f       0x29 C:/Program Files/TeliumSDK/SDK11.16.8.02/SDKTPLUS/HW_TETRA/gnu_473/lib/Platform\libGRAPHICLIB.a(GL_Timer_SetInterval.o)
 .ARM.attributes
                0x00001c78       0x29 C:/Program Files/TeliumSDK/SDK11.16.8.02/SDKTPLUS/HW_TETRA/gnu_473/lib/Platform\libGRAPHICLIB.a(GL_Timer_Stop.o)
 .ARM.attributes
                0x00001ca1       0x29 C:/Program Files/TeliumSDK/SDK11.16.8.02/SDKTPLUS/HW_TETRA/gnu_473/lib/Platform\libGRAPHICLIB.a(GL_Widget_Destroy.o)
 .ARM.attributes
                0x00001cca       0x29 C:/Program Files/TeliumSDK/SDK11.16.8.02/SDKTPLUS/HW_TETRA/gnu_473/lib/Platform\libGRAPHICLIB.a(GL_Widget_GetUserData.o)
 .ARM.attributes
                0x00001cf3       0x29 C:/Program Files/TeliumSDK/SDK11.16.8.02/SDKTPLUS/HW_TETRA/gnu_473/lib/Platform\libGRAPHICLIB.a(GL_Widget_RegisterCallback.o)
 .ARM.attributes
                0x00001d1c       0x29 C:/Program Files/TeliumSDK/SDK11.16.8.02/SDKTPLUS/HW_TETRA/gnu_473/lib/Platform\libGRAPHICLIB.a(GL_Widget_SearchId.o)
 .ARM.attributes
                0x00001d45       0x29 C:/Program Files/TeliumSDK/SDK11.16.8.02/SDKTPLUS/HW_TETRA/gnu_473/lib/Platform\libGRAPHICLIB.a(GL_Widget_SetBackAlign.o)
 .ARM.attributes
                0x00001d6e       0x29 C:/Program Files/TeliumSDK/SDK11.16.8.02/SDKTPLUS/HW_TETRA/gnu_473/lib/Platform\libGRAPHICLIB.a(GL_Widget_SetBackColor.o)
 .ARM.attributes
                0x00001d97       0x29 C:/Program Files/TeliumSDK/SDK11.16.8.02/SDKTPLUS/HW_TETRA/gnu_473/lib/Platform\libGRAPHICLIB.a(GL_Widget_SetBorders.o)
 .ARM.attributes
                0x00001dc0       0x29 C:/Program Files/TeliumSDK/SDK11.16.8.02/SDKTPLUS/HW_TETRA/gnu_473/lib/Platform\libGRAPHICLIB.a(GL_Widget_SetExpand.o)
 .ARM.attributes
                0x00001de9       0x29 C:/Program Files/TeliumSDK/SDK11.16.8.02/SDKTPLUS/HW_TETRA/gnu_473/lib/Platform\libGRAPHICLIB.a(GL_Widget_SetFocusable.o)
 .ARM.attributes
                0x00001e12       0x29 C:/Program Files/TeliumSDK/SDK11.16.8.02/SDKTPLUS/HW_TETRA/gnu_473/lib/Platform\libGRAPHICLIB.a(GL_Widget_SetFontName.o)
 .ARM.attributes
                0x00001e3b       0x29 C:/Program Files/TeliumSDK/SDK11.16.8.02/SDKTPLUS/HW_TETRA/gnu_473/lib/Platform\libGRAPHICLIB.a(GL_Widget_SetFontScale.o)
 .ARM.attributes
                0x00001e64       0x29 C:/Program Files/TeliumSDK/SDK11.16.8.02/SDKTPLUS/HW_TETRA/gnu_473/lib/Platform\libGRAPHICLIB.a(GL_Widget_SetFontStyle.o)
 .ARM.attributes
                0x00001e8d       0x29 C:/Program Files/TeliumSDK/SDK11.16.8.02/SDKTPLUS/HW_TETRA/gnu_473/lib/Platform\libGRAPHICLIB.a(GL_Widget_SetForeColor.o)
 .ARM.attributes
                0x00001eb6       0x29 C:/Program Files/TeliumSDK/SDK11.16.8.02/SDKTPLUS/HW_TETRA/gnu_473/lib/Platform\libGRAPHICLIB.a(GL_Widget_SetGrow.o)
 .ARM.attributes
                0x00001edf       0x29 C:/Program Files/TeliumSDK/SDK11.16.8.02/SDKTPLUS/HW_TETRA/gnu_473/lib/Platform\libGRAPHICLIB.a(GL_Widget_SetId.o)
 .ARM.attributes
                0x00001f08       0x29 C:/Program Files/TeliumSDK/SDK11.16.8.02/SDKTPLUS/HW_TETRA/gnu_473/lib/Platform\libGRAPHICLIB.a(GL_Widget_SetItem.o)
 .ARM.attributes
                0x00001f31       0x29 C:/Program Files/TeliumSDK/SDK11.16.8.02/SDKTPLUS/HW_TETRA/gnu_473/lib/Platform\libGRAPHICLIB.a(GL_Widget_SetMargins.o)
 .ARM.attributes
                0x00001f5a       0x29 C:/Program Files/TeliumSDK/SDK11.16.8.02/SDKTPLUS/HW_TETRA/gnu_473/lib/Platform\libGRAPHICLIB.a(GL_Widget_SetMinSize.o)
 .ARM.attributes
                0x00001f83       0x29 C:/Program Files/TeliumSDK/SDK11.16.8.02/SDKTPLUS/HW_TETRA/gnu_473/lib/Platform\libGRAPHICLIB.a(GL_Widget_SetShortcut.o)
 .ARM.attributes
                0x00001fac       0x29 C:/Program Files/TeliumSDK/SDK11.16.8.02/SDKTPLUS/HW_TETRA/gnu_473/lib/Platform\libGRAPHICLIB.a(GL_Widget_SetShrink.o)
 .ARM.attributes
                0x00001fd5       0x29 C:/Program Files/TeliumSDK/SDK11.16.8.02/SDKTPLUS/HW_TETRA/gnu_473/lib/Platform\libGRAPHICLIB.a(GL_Widget_SetSize.o)
 .ARM.attributes
                0x00001ffe       0x29 C:/Program Files/TeliumSDK/SDK11.16.8.02/SDKTPLUS/HW_TETRA/gnu_473/lib/Platform\libGRAPHICLIB.a(GL_Widget_SetSource.o)
 .ARM.attributes
                0x00002027       0x29 C:/Program Files/TeliumSDK/SDK11.16.8.02/SDKTPLUS/HW_TETRA/gnu_473/lib/Platform\libGRAPHICLIB.a(GL_Widget_SetText.o)
 .ARM.attributes
                0x00002050       0x29 C:/Program Files/TeliumSDK/SDK11.16.8.02/SDKTPLUS/HW_TETRA/gnu_473/lib/Platform\libGRAPHICLIB.a(GL_Widget_SetTextAlign.o)
 .ARM.attributes
                0x00002079       0x29 C:/Program Files/TeliumSDK/SDK11.16.8.02/SDKTPLUS/HW_TETRA/gnu_473/lib/Platform\libGRAPHICLIB.a(GL_Widget_SetTextPaddings.o)
 .ARM.attributes
                0x000020a2       0x29 C:/Program Files/TeliumSDK/SDK11.16.8.02/SDKTPLUS/HW_TETRA/gnu_473/lib/Platform\libGRAPHICLIB.a(GL_Widget_SetTransformation.o)
 .ARM.attributes
                0x000020cb       0x29 C:/Program Files/TeliumSDK/SDK11.16.8.02/SDKTPLUS/HW_TETRA/gnu_473/lib/Platform\libGRAPHICLIB.a(GL_Widget_SetVisible.o)
 .ARM.attributes
                0x000020f4       0x29 C:/Program Files/TeliumSDK/SDK11.16.8.02/SDKTPLUS/HW_TETRA/gnu_473/lib/Platform\libGRAPHICLIB.a(GL_Widget_SetWrap.o)
 .ARM.attributes
                0x0000211d       0x29 C:/Program Files/TeliumSDK/SDK11.16.8.02/SDKTPLUS/HW_TETRA/gnu_473/lib/Platform\libGRAPHICLIB.a(GL_Widget_UnregisterCallback.o)
 .ARM.attributes
                0x00002146       0x29 C:/Program Files/TeliumSDK/SDK11.16.8.02/SDKTPLUS/HW_TETRA/gnu_473/lib/Platform\libGRAPHICLIB.a(GL_Window_Create.o)
 .ARM.attributes
                0x0000216f       0x29 C:/Program Files/TeliumSDK/SDK11.16.8.02/SDKTPLUS/HW_TETRA/gnu_473/lib/Platform\libGRAPHICLIB.a(GL_Window_Dispatch.o)
 .ARM.attributes
                0x00002198       0x29 C:/Program Files/TeliumSDK/SDK11.16.8.02/SDKTPLUS/HW_TETRA/gnu_473/lib/Platform\libGRAPHICLIB.a(GL_Window_GetResult.o)
 .ARM.attributes
                0x000021c1       0x29 C:/Program Files/TeliumSDK/SDK11.16.8.02/SDKTPLUS/HW_TETRA/gnu_473/lib/Platform\libGRAPHICLIB.a(GL_Window_MainLoop.o)
 .ARM.attributes
                0x000021ea       0x43 C:/Program Files/TeliumSDK/SDK11.16.8.02/SDKTPLUS/HW_TETRA/gnu_473/lib/Platform\libGRAPHICLIB.a(GL_link.o)
 .ARM.attributes
                0x0000222d       0x29 C:/Program Files/TeliumSDK/SDK11.16.8.02/SDKTPLUS/HW_TETRA/gnu_473/lib/Platform\libGRAPHICLIB.a(gl_asm_link.o)
 .ARM.attributes
                0x00002256       0x29 C:/Program Files/TeliumSDK/SDK11.16.8.02/SDKTPLUS/HW_TETRA/gnu_473/lib/Platform\libOSLAYER.a(OSL_Dll_Close.o)
 .ARM.attributes
                0x0000227f       0x29 C:/Program Files/TeliumSDK/SDK11.16.8.02/SDKTPLUS/HW_TETRA/gnu_473/lib/Platform\libOSLAYER.a(OSL_Dll_GetSymbolByName.o)
 .ARM.attributes
                0x000022a8       0x29 C:/Program Files/TeliumSDK/SDK11.16.8.02/SDKTPLUS/HW_TETRA/gnu_473/lib/Platform\libOSLAYER.a(OSL_Dll_IsPresent.o)
 .ARM.attributes
                0x000022d1       0x29 C:/Program Files/TeliumSDK/SDK11.16.8.02/SDKTPLUS/HW_TETRA/gnu_473/lib/Platform\libOSLAYER.a(OSL_Dll_Open.o)
 .ARM.attributes
                0x000022fa       0x29 C:/Program Files/TeliumSDK/SDK11.16.8.02/SDKTPLUS/HW_TETRA/gnu_473/lib/Platform\libOSLAYER.a(OSL_Dll_OpenByAppliType.o)
 .ARM.attributes
                0x00002323       0x29 C:/Program Files/TeliumSDK/SDK11.16.8.02/SDKTPLUS/HW_TETRA/gnu_473/lib/Platform\libOSLAYER.a(OSL_TimeStp_ElapsedMs.o)
 .ARM.attributes
                0x0000234c       0x29 C:/Program Files/TeliumSDK/SDK11.16.8.02/SDKTPLUS/HW_TETRA/gnu_473/lib/Platform\libOSLAYER.a(OSL_TimeStp_Now.o)
 .ARM.attributes
                0x00002375       0x39 C:/Program Files/TeliumSDK/SDK11.16.8.02/SDKTPLUS/HW_TETRA/gnu_473/lib/Platform\libgtl.a(GTL_StdTimer.o)
 .ARM.attributes
                0x000023ae       0x43 E:/IngeDev_8.18.0.5/toolchains/gnuArm47v7a-4/arm-islero-linux-gnueabi/sysroot/usr/lib/libc_nonshared.a(elf-init.oS)
 .ARM.attributes
                0x000023f1       0x29 E:/IngeDev_8.18.0.5/toolchains/gnuArm47v7a-4/lib/gcc/arm-islero-linux-gnueabi/4.7.3\libgcc.a(_udivsi3.o)
 .ARM.attributes
                0x0000241a       0x29 E:/IngeDev_8.18.0.5/toolchains/gnuArm47v7a-4/lib/gcc/arm-islero-linux-gnueabi/4.7.3\libgcc.a(_dvmd_lnx.o)
 .ARM.attributes
                0x00002443       0x23 C:/Program Files/TeliumSDK/SDK11.16.8.02/SDKTPLUS/HW_TETRA/gnu_473/lib/Platform/libwrapper_tplus.lib(TMT_Retrieve_Clock.o)
 .ARM.attributes
                0x00002466       0x43 E:/IngeDev_8.18.0.5/toolchains/gnuArm47v7a-4/lib/gcc/arm-islero-linux-gnueabi/4.7.3/crtend.o
 .ARM.attributes
                0x000024a9       0x43 E:/IngeDev_8.18.0.5/toolchains/gnuArm47v7a-4/arm-islero-linux-gnueabi/sysroot/usr/lib/crtn.o
 .ARM.attributes
                0x000024ec       0x3d C:/Program Files/TeliumSDK/SDK11.16.8.02/SDKTPLUS/HW_TETRA/gnu_473/startfiles/stapp_legacyexitpoint.o

.debug
 *(.debug)

.line
 *(.line)

.debug_srcinfo
 *(.debug_srcinfo)

.debug_sfnames
 *(.debug_sfnames)

.debug_aranges  0x00000000      0x280
 *(.debug_aranges)
 .debug_aranges
                0x00000000       0x20 Obj/GNU_ARM_DEBUG_TETRA/Main.o
 .debug_aranges
                0x00000020       0x20 Obj/GNU_ARM_DEBUG_TETRA/Entry.o
 .debug_aranges
                0x00000040       0x20 Obj/GNU_ARM_DEBUG_TETRA/Menu.o
 .debug_aranges
                0x00000060       0x20 Obj/GNU_ARM_DEBUG_TETRA/ComGPRS.o
 .debug_aranges
                0x00000080       0x20 Obj/GNU_ARM_DEBUG_TETRA/Goal.o
 .debug_aranges
                0x000000a0       0x20 Obj/GNU_ARM_DEBUG_TETRA/Mapapp.o
 .debug_aranges
                0x000000c0       0x20 Obj/GNU_ARM_DEBUG_TETRA/FMG.o
 .debug_aranges
                0x000000e0       0x20 Obj/GNU_ARM_DEBUG_TETRA/Utility.o
 .debug_aranges
                0x00000100       0x20 Obj/GNU_ARM_DEBUG_TETRA/Timer.o
 .debug_aranges
                0x00000120       0x20 Obj/GNU_ARM_DEBUG_TETRA/iso8583.o
 .debug_aranges
                0x00000140       0x20 Obj/GNU_ARM_DEBUG_TETRA/transaction.o
 .debug_aranges
                0x00000160       0x20 Obj/GNU_ARM_DEBUG_TETRA/globals.o
 .debug_aranges
                0x00000180       0x20 Obj/GNU_ARM_DEBUG_TETRA/magnetic.o
 .debug_aranges
                0x000001a0       0x20 Obj/GNU_ARM_DEBUG_TETRA/schemes.o
 .debug_aranges
                0x000001c0       0x20 Obj/GNU_ARM_DEBUG_TETRA/amount.o
 .debug_aranges
                0x000001e0       0x20 C:/Users/bkirii/Desktop/c/base_test_14/TRAINAPP/lib/FMG_TPlus.a(VGE_FMG.o)
 .debug_aranges
                0x00000200       0x20 C:/Users/bkirii/Desktop/c/base_test_14/TRAINAPP/lib/FMG_TPlus.a(md5.o)
 .debug_aranges
                0x00000220       0x20 C:/Program Files/TeliumSDK/SDK11.16.8.02/SDKTPLUS/HW_TETRA/gnu_473/lib/Platform\libgtl.a(GTL_StdTimer.o)
 .debug_aranges
                0x00000240       0x20 E:/IngeDev_8.18.0.5/toolchains/gnuArm47v7a-4/lib/gcc/arm-islero-linux-gnueabi/4.7.3\libgcc.a(_udivsi3.o)
 .debug_aranges
                0x00000260       0x20 E:/IngeDev_8.18.0.5/toolchains/gnuArm47v7a-4/lib/gcc/arm-islero-linux-gnueabi/4.7.3\libgcc.a(_dvmd_lnx.o)

.debug_pubnames
 *(.debug_pubnames)

.debug_info     0x00000000    0x16fce
 *(.debug_info .gnu.linkonce.wi.*)
 .debug_info    0x00000000     0x2687 Obj/GNU_ARM_DEBUG_TETRA/Main.o
 .debug_info    0x00002687     0x1a7f Obj/GNU_ARM_DEBUG_TETRA/Entry.o
 .debug_info    0x00004106      0x3c1 Obj/GNU_ARM_DEBUG_TETRA/Menu.o
 .debug_info    0x000044c7     0x1290 Obj/GNU_ARM_DEBUG_TETRA/ComGPRS.o
 .debug_info    0x00005757     0x19a8 Obj/GNU_ARM_DEBUG_TETRA/Goal.o
 .debug_info    0x000070ff     0x1493 Obj/GNU_ARM_DEBUG_TETRA/Mapapp.o
 .debug_info    0x00008592      0xaf0 Obj/GNU_ARM_DEBUG_TETRA/FMG.o
 .debug_info    0x00009082      0x7fe Obj/GNU_ARM_DEBUG_TETRA/Utility.o
 .debug_info    0x00009880      0x84d Obj/GNU_ARM_DEBUG_TETRA/Timer.o
 .debug_info    0x0000a0cd      0x56d Obj/GNU_ARM_DEBUG_TETRA/iso8583.o
 .debug_info    0x0000a63a     0x1ac9 Obj/GNU_ARM_DEBUG_TETRA/transaction.o
 .debug_info    0x0000c103     0x3d61 Obj/GNU_ARM_DEBUG_TETRA/globals.o
 .debug_info    0x0000fe64     0x17b6 Obj/GNU_ARM_DEBUG_TETRA/magnetic.o
 .debug_info    0x0001161a     0x2383 Obj/GNU_ARM_DEBUG_TETRA/schemes.o
 .debug_info    0x0001399d     0x1189 Obj/GNU_ARM_DEBUG_TETRA/amount.o
 .debug_info    0x00014b26     0x1e23 C:/Users/bkirii/Desktop/c/base_test_14/TRAINAPP/lib/FMG_TPlus.a(VGE_FMG.o)
 .debug_info    0x00016949      0x31e C:/Users/bkirii/Desktop/c/base_test_14/TRAINAPP/lib/FMG_TPlus.a(md5.o)
 .debug_info    0x00016c67      0x1a5 C:/Program Files/TeliumSDK/SDK11.16.8.02/SDKTPLUS/HW_TETRA/gnu_473/lib/Platform\libgtl.a(GTL_StdTimer.o)
 .debug_info    0x00016e0c       0xe1 E:/IngeDev_8.18.0.5/toolchains/gnuArm47v7a-4/lib/gcc/arm-islero-linux-gnueabi/4.7.3\libgcc.a(_udivsi3.o)
 .debug_info    0x00016eed       0xe1 E:/IngeDev_8.18.0.5/toolchains/gnuArm47v7a-4/lib/gcc/arm-islero-linux-gnueabi/4.7.3\libgcc.a(_dvmd_lnx.o)

.debug_abbrev   0x00000000     0x1b03
 *(.debug_abbrev)
 .debug_abbrev  0x00000000      0x14b Obj/GNU_ARM_DEBUG_TETRA/Main.o
 .debug_abbrev  0x0000014b      0x258 Obj/GNU_ARM_DEBUG_TETRA/Entry.o
 .debug_abbrev  0x000003a3      0x145 Obj/GNU_ARM_DEBUG_TETRA/Menu.o
 .debug_abbrev  0x000004e8      0x1d6 Obj/GNU_ARM_DEBUG_TETRA/ComGPRS.o
 .debug_abbrev  0x000006be      0x18c Obj/GNU_ARM_DEBUG_TETRA/Goal.o
 .debug_abbrev  0x0000084a      0x13a Obj/GNU_ARM_DEBUG_TETRA/Mapapp.o
 .debug_abbrev  0x00000984      0x183 Obj/GNU_ARM_DEBUG_TETRA/FMG.o
 .debug_abbrev  0x00000b07      0x174 Obj/GNU_ARM_DEBUG_TETRA/Utility.o
 .debug_abbrev  0x00000c7b      0x133 Obj/GNU_ARM_DEBUG_TETRA/Timer.o
 .debug_abbrev  0x00000dae       0xaa Obj/GNU_ARM_DEBUG_TETRA/iso8583.o
 .debug_abbrev  0x00000e58      0x1c1 Obj/GNU_ARM_DEBUG_TETRA/transaction.o
 .debug_abbrev  0x00001019      0x275 Obj/GNU_ARM_DEBUG_TETRA/globals.o
 .debug_abbrev  0x0000128e      0x142 Obj/GNU_ARM_DEBUG_TETRA/magnetic.o
 .debug_abbrev  0x000013d0      0x20b Obj/GNU_ARM_DEBUG_TETRA/schemes.o
 .debug_abbrev  0x000015db      0x115 Obj/GNU_ARM_DEBUG_TETRA/amount.o
 .debug_abbrev  0x000016f0      0x1b0 C:/Users/bkirii/Desktop/c/base_test_14/TRAINAPP/lib/FMG_TPlus.a(VGE_FMG.o)
 .debug_abbrev  0x000018a0      0x147 C:/Users/bkirii/Desktop/c/base_test_14/TRAINAPP/lib/FMG_TPlus.a(md5.o)
 .debug_abbrev  0x000019e7       0xf4 C:/Program Files/TeliumSDK/SDK11.16.8.02/SDKTPLUS/HW_TETRA/gnu_473/lib/Platform\libgtl.a(GTL_StdTimer.o)
 .debug_abbrev  0x00001adb       0x14 E:/IngeDev_8.18.0.5/toolchains/gnuArm47v7a-4/lib/gcc/arm-islero-linux-gnueabi/4.7.3\libgcc.a(_udivsi3.o)
 .debug_abbrev  0x00001aef       0x14 E:/IngeDev_8.18.0.5/toolchains/gnuArm47v7a-4/lib/gcc/arm-islero-linux-gnueabi/4.7.3\libgcc.a(_dvmd_lnx.o)

.debug_line     0x00000000     0x40a8
 *(.debug_line)
 .debug_line    0x00000000      0x169 Obj/GNU_ARM_DEBUG_TETRA/Main.o
 .debug_line    0x00000169      0x40a Obj/GNU_ARM_DEBUG_TETRA/Entry.o
 .debug_line    0x00000573      0x208 Obj/GNU_ARM_DEBUG_TETRA/Menu.o
 .debug_line    0x0000077b      0x661 Obj/GNU_ARM_DEBUG_TETRA/ComGPRS.o
 .debug_line    0x00000ddc      0x4ee Obj/GNU_ARM_DEBUG_TETRA/Goal.o
 .debug_line    0x000012ca      0x12a Obj/GNU_ARM_DEBUG_TETRA/Mapapp.o
 .debug_line    0x000013f4      0x22b Obj/GNU_ARM_DEBUG_TETRA/FMG.o
 .debug_line    0x0000161f      0x2b1 Obj/GNU_ARM_DEBUG_TETRA/Utility.o
 .debug_line    0x000018d0      0x18f Obj/GNU_ARM_DEBUG_TETRA/Timer.o
 .debug_line    0x00001a5f       0x64 Obj/GNU_ARM_DEBUG_TETRA/iso8583.o
 .debug_line    0x00001ac3      0x205 Obj/GNU_ARM_DEBUG_TETRA/transaction.o
 .debug_line    0x00001cc8      0xb33 Obj/GNU_ARM_DEBUG_TETRA/globals.o
 .debug_line    0x000027fb      0x2b3 Obj/GNU_ARM_DEBUG_TETRA/magnetic.o
 .debug_line    0x00002aae      0x639 Obj/GNU_ARM_DEBUG_TETRA/schemes.o
 .debug_line    0x000030e7      0x1a5 Obj/GNU_ARM_DEBUG_TETRA/amount.o
 .debug_line    0x0000328c      0xad3 C:/Users/bkirii/Desktop/c/base_test_14/TRAINAPP/lib/FMG_TPlus.a(VGE_FMG.o)
 .debug_line    0x00003d5f      0x171 C:/Users/bkirii/Desktop/c/base_test_14/TRAINAPP/lib/FMG_TPlus.a(md5.o)
 .debug_line    0x00003ed0       0xab C:/Program Files/TeliumSDK/SDK11.16.8.02/SDKTPLUS/HW_TETRA/gnu_473/lib/Platform\libgtl.a(GTL_StdTimer.o)
 .debug_line    0x00003f7b       0xa5 E:/IngeDev_8.18.0.5/toolchains/gnuArm47v7a-4/lib/gcc/arm-islero-linux-gnueabi/4.7.3\libgcc.a(_udivsi3.o)
 .debug_line    0x00004020       0x88 E:/IngeDev_8.18.0.5/toolchains/gnuArm47v7a-4/lib/gcc/arm-islero-linux-gnueabi/4.7.3\libgcc.a(_dvmd_lnx.o)

.debug_frame    0x00000000     0x24a0
 *(.debug_frame)
 .debug_frame   0x00000000       0x30 Obj/GNU_ARM_DEBUG_TETRA/Main.o
 .debug_frame   0x00000030      0x334 Obj/GNU_ARM_DEBUG_TETRA/Entry.o
 .debug_frame   0x00000364       0x94 Obj/GNU_ARM_DEBUG_TETRA/Menu.o
 .debug_frame   0x000003f8      0x180 Obj/GNU_ARM_DEBUG_TETRA/ComGPRS.o
 .debug_frame   0x00000578      0x3d4 Obj/GNU_ARM_DEBUG_TETRA/Goal.o
 .debug_frame   0x0000094c       0xd0 Obj/GNU_ARM_DEBUG_TETRA/Mapapp.o
 .debug_frame   0x00000a1c       0xd4 Obj/GNU_ARM_DEBUG_TETRA/FMG.o
 .debug_frame   0x00000af0      0x1d0 Obj/GNU_ARM_DEBUG_TETRA/Utility.o
 .debug_frame   0x00000cc0       0x90 Obj/GNU_ARM_DEBUG_TETRA/Timer.o
 .debug_frame   0x00000d50       0x50 Obj/GNU_ARM_DEBUG_TETRA/iso8583.o
 .debug_frame   0x00000da0      0x178 Obj/GNU_ARM_DEBUG_TETRA/transaction.o
 .debug_frame   0x00000f18      0xdfc Obj/GNU_ARM_DEBUG_TETRA/globals.o
 .debug_frame   0x00001d14       0x58 Obj/GNU_ARM_DEBUG_TETRA/magnetic.o
 .debug_frame   0x00001d6c      0x200 Obj/GNU_ARM_DEBUG_TETRA/schemes.o
 .debug_frame   0x00001f6c       0x34 Obj/GNU_ARM_DEBUG_TETRA/amount.o
 .debug_frame   0x00001fa0      0x3e4 C:/Users/bkirii/Desktop/c/base_test_14/TRAINAPP/lib/FMG_TPlus.a(VGE_FMG.o)
 .debug_frame   0x00002384       0x90 C:/Users/bkirii/Desktop/c/base_test_14/TRAINAPP/lib/FMG_TPlus.a(md5.o)
 .debug_frame   0x00002414       0x6c C:/Program Files/TeliumSDK/SDK11.16.8.02/SDKTPLUS/HW_TETRA/gnu_473/lib/Platform\libgtl.a(GTL_StdTimer.o)
 .debug_frame   0x00002480       0x20 E:/IngeDev_8.18.0.5/toolchains/gnuArm47v7a-4/lib/gcc/arm-islero-linux-gnueabi/4.7.3\libgcc.a(_udivsi3.o)

.debug_str      0x00000000     0x5624
 *(.debug_str)
 .debug_str     0x00000000     0x1003 Obj/GNU_ARM_DEBUG_TETRA/Main.o
                               0x1437 (size before relaxing)
 .debug_str     0x00001003      0x99b Obj/GNU_ARM_DEBUG_TETRA/Entry.o
                               0x109c (size before relaxing)
 .debug_str     0x0000199e       0xf6 Obj/GNU_ARM_DEBUG_TETRA/Menu.o
                                0x518 (size before relaxing)
 .debug_str     0x00001a94      0x7d4 Obj/GNU_ARM_DEBUG_TETRA/ComGPRS.o
                                0xf19 (size before relaxing)
 .debug_str     0x00002268      0xad1 Obj/GNU_ARM_DEBUG_TETRA/Goal.o
                               0x112e (size before relaxing)
 .debug_str     0x00002d39      0xdba Obj/GNU_ARM_DEBUG_TETRA/Mapapp.o
                               0x11ee (size before relaxing)
 .debug_str     0x00003af3      0x102 Obj/GNU_ARM_DEBUG_TETRA/FMG.o
                                0xb04 (size before relaxing)
 .debug_str     0x00003bf5      0x1ed Obj/GNU_ARM_DEBUG_TETRA/Utility.o
                                0x535 (size before relaxing)
 .debug_str     0x00003de2       0x7b Obj/GNU_ARM_DEBUG_TETRA/Timer.o
                                0x96e (size before relaxing)
 .debug_str     0x00003e5d      0x43b Obj/GNU_ARM_DEBUG_TETRA/iso8583.o
                                0x6c5 (size before relaxing)
 .debug_str     0x00004298      0x111 Obj/GNU_ARM_DEBUG_TETRA/transaction.o
                               0x140c (size before relaxing)
 .debug_str     0x000043a9      0x673 Obj/GNU_ARM_DEBUG_TETRA/globals.o
                               0x1734 (size before relaxing)
 .debug_str     0x00004a1c       0x6a Obj/GNU_ARM_DEBUG_TETRA/magnetic.o
                               0x15da (size before relaxing)
 .debug_str     0x00004a86      0x447 Obj/GNU_ARM_DEBUG_TETRA/schemes.o
                               0x19e4 (size before relaxing)
 .debug_str     0x00004ecd       0x32 Obj/GNU_ARM_DEBUG_TETRA/amount.o
                               0x102c (size before relaxing)
 .debug_str     0x00004eff      0x5f1 C:/Users/bkirii/Desktop/c/base_test_14/TRAINAPP/lib/FMG_TPlus.a(VGE_FMG.o)
                                0x983 (size before relaxing)
 .debug_str     0x000054f0       0x58 C:/Users/bkirii/Desktop/c/base_test_14/TRAINAPP/lib/FMG_TPlus.a(md5.o)
                                0x169 (size before relaxing)
 .debug_str     0x00005548       0xdc C:/Program Files/TeliumSDK/SDK11.16.8.02/SDKTPLUS/HW_TETRA/gnu_473/lib/Platform\libgtl.a(GTL_StdTimer.o)
                                0x19d (size before relaxing)

.debug_loc      0x00000000     0x3e60
 *(.debug_loc)
 .debug_loc     0x00000000       0x38 Obj/GNU_ARM_DEBUG_TETRA/Main.o
 .debug_loc     0x00000038      0x584 Obj/GNU_ARM_DEBUG_TETRA/Entry.o
 .debug_loc     0x000005bc       0xe1 Obj/GNU_ARM_DEBUG_TETRA/Menu.o
 .debug_loc     0x0000069d      0x273 Obj/GNU_ARM_DEBUG_TETRA/ComGPRS.o
 .debug_loc     0x00000910      0x69d Obj/GNU_ARM_DEBUG_TETRA/Goal.o
 .debug_loc     0x00000fad      0x156 Obj/GNU_ARM_DEBUG_TETRA/Mapapp.o
 .debug_loc     0x00001103      0x154 Obj/GNU_ARM_DEBUG_TETRA/FMG.o
 .debug_loc     0x00001257      0x314 Obj/GNU_ARM_DEBUG_TETRA/Utility.o
 .debug_loc     0x0000156b       0xe1 Obj/GNU_ARM_DEBUG_TETRA/Timer.o
 .debug_loc     0x0000164c       0x70 Obj/GNU_ARM_DEBUG_TETRA/iso8583.o
 .debug_loc     0x000016bc      0x27f Obj/GNU_ARM_DEBUG_TETRA/transaction.o
 .debug_loc     0x0000193b     0x1866 Obj/GNU_ARM_DEBUG_TETRA/globals.o
 .debug_loc     0x000031a1       0x72 Obj/GNU_ARM_DEBUG_TETRA/magnetic.o
 .debug_loc     0x00003213      0x35e Obj/GNU_ARM_DEBUG_TETRA/schemes.o
 .debug_loc     0x00003571       0x3a Obj/GNU_ARM_DEBUG_TETRA/amount.o
 .debug_loc     0x000035ab      0x6c4 C:/Users/bkirii/Desktop/c/base_test_14/TRAINAPP/lib/FMG_TPlus.a(VGE_FMG.o)
 .debug_loc     0x00003c6f       0xe2 C:/Users/bkirii/Desktop/c/base_test_14/TRAINAPP/lib/FMG_TPlus.a(md5.o)
 .debug_loc     0x00003d51      0x10f C:/Program Files/TeliumSDK/SDK11.16.8.02/SDKTPLUS/HW_TETRA/gnu_473/lib/Platform\libgtl.a(GTL_StdTimer.o)

.debug_macinfo
 *(.debug_macinfo)

.debug_weaknames
 *(.debug_weaknames)

.debug_funcnames
 *(.debug_funcnames)

.debug_typenames
 *(.debug_typenames)

.debug_varnames
 *(.debug_varnames)

.debug_pubtypes
 *(.debug_pubtypes)

.debug_ranges   0x00000000       0x18
 *(.debug_ranges)
 .debug_ranges  0x00000000       0x18 C:/Users/bkirii/Desktop/c/base_test_14/TRAINAPP/lib/FMG_TPlus.a(md5.o)

.gnu.attributes
 *(.gnu.attributes)

.note.gnu.arm.ident
 *(.note.gnu.arm.ident)

/DISCARD/
 *(.note.GNU-stack)
 *(.gnu_debuglink)
 *(.gnu.lto_*)
OUTPUT(Obj/GNU_ARM_DEBUG_TETRA/TRAINAP0101.axf elf32-littlearm)
