Archive member included because of file (symbol)

C:/Program Files/TeliumSDK/SDK11.16.8.02/SDKTPLUS/HW_T2/gnu_434/lib/eft30tplus.lib(DLLExist.o)
                              Obj/GNU_ARM_DEBUG_T2/schemes.o (DLLExist)
C:/Program Files/TeliumSDK/SDK11.16.8.02/SDKTPLUS/HW_T2/gnu_434/lib/eft30tplus.lib(d_tolong.o)
                              Obj/GNU_ARM_DEBUG_T2/globals.o (d_tolong)
C:/Program Files/TeliumSDK/SDK11.16.8.02/SDKTPLUS/HW_T2/gnu_434/lib/eft30tplus.lib(stdcam0.o)
                              Obj/GNU_ARM_DEBUG_T2/globals.o (stdcam0)
C:/Program Files/TeliumSDK/SDK11.16.8.02/SDKTPLUS/HW_T2/gnu_434/lib/eft30tplus.lib(extenstp1.o)
                              C:/Program Files/TeliumSDK/SDK11.16.8.02/SDKTPLUS/HW_T2/gnu_434/lib/eft30tplus.lib(DLLExist.o) (extenslib_open)
C:/Program Files/TeliumSDK/SDK11.16.8.02/SDKTPLUS/HW_T2/gnu_434/lib/eft30tplus.lib(DisplayFooter.o)
                              Obj/GNU_ARM_DEBUG_T2/Menu.o (DisplayFooter)
C:/Program Files/TeliumSDK/SDK11.16.8.02/SDKTPLUS/HW_T2/gnu_434/lib/eft30tplus.lib(DisplayHeader.o)
                              Obj/GNU_ARM_DEBUG_T2/Menu.o (DisplayHeader)
C:/Program Files/TeliumSDK/SDK11.16.8.02/SDKTPLUS/HW_T2/gnu_434/lib/eft30tplus.lib(DisplayLeds.o)
                              Obj/GNU_ARM_DEBUG_T2/Menu.o (DisplayLeds)
C:/Program Files/TeliumSDK/SDK11.16.8.02/SDKTPLUS/HW_T2/gnu_434/lib/eft30tplus.lib(IsFooter.o)
                              Obj/GNU_ARM_DEBUG_T2/ComGPRS.o (IsFooter)
C:/Program Files/TeliumSDK/SDK11.16.8.02/SDKTPLUS/HW_T2/gnu_434/lib/eft30tplus.lib(IsHeader.o)
                              Obj/GNU_ARM_DEBUG_T2/ComGPRS.o (IsHeader)
C:/Program Files/TeliumSDK/SDK11.16.8.02/SDKTPLUS/HW_T2/gnu_434/lib/eft30tplus.lib(DrawExtendedString.o)
                              Obj/GNU_ARM_DEBUG_T2/schemes.o (DrawExtendedString)
C:/Program Files/TeliumSDK/SDK11.16.8.02/SDKTPLUS/HW_T2/gnu_434/lib/eft30tplus.lib(InitContexteGraphique.o)
                              Obj/GNU_ARM_DEBUG_T2/schemes.o (InitContexteGraphique)
C:/Program Files/TeliumSDK/SDK11.16.8.02/SDKTPLUS/HW_T2/gnu_434/lib/eft30tplus.lib(PaintGraphics.o)
                              Obj/GNU_ARM_DEBUG_T2/schemes.o (PaintGraphics)
C:/Program Files/TeliumSDK/SDK11.16.8.02/SDKTPLUS/HW_T2/gnu_434/lib/eft30tplus.lib(_DrawExtendedString.o)
                              Obj/GNU_ARM_DEBUG_T2/schemes.o (_DrawExtendedString)
C:/Program Files/TeliumSDK/SDK11.16.8.02/SDKTPLUS/HW_T2/gnu_434/lib/eft30tplus.lib(libgrtp1.o)
                              C:/Program Files/TeliumSDK/SDK11.16.8.02/SDKTPLUS/HW_T2/gnu_434/lib/eft30tplus.lib(DrawExtendedString.o) (libgrlib_open)
C:/Program Files/TeliumSDK/SDK11.16.8.02/SDKTPLUS/HW_T2/gnu_434/lib/eft30tplus.lib(PSQ_Est_pinpad.o)
                              Obj/GNU_ARM_DEBUG_T2/schemes.o (PSQ_Est_pinpad)
C:/Program Files/TeliumSDK/SDK11.16.8.02/SDKTPLUS/HW_T2/gnu_434/lib/eft30tplus.lib(PSQ_donner_type_pinpad.o)
                              Obj/GNU_ARM_DEBUG_T2/schemes.o (PSQ_donner_type_pinpad)
C:/Program Files/TeliumSDK/SDK11.16.8.02/SDKTPLUS/HW_T2/gnu_434/lib/eft30tplus.lib(paramtp1.o)
                              C:/Program Files/TeliumSDK/SDK11.16.8.02/SDKTPLUS/HW_T2/gnu_434/lib/eft30tplus.lib(PSQ_Est_pinpad.o) (paramlib_open)
C:/Program Files/TeliumSDK/SDK11.16.8.02/SDKTPLUS/HW_T2/gnu_434/lib/eft30tplus.lib(IsPPSConnected.o)
                              Obj/GNU_ARM_DEBUG_T2/schemes.o (IsPPSConnected)
C:/Program Files/TeliumSDK/SDK11.16.8.02/SDKTPLUS/HW_T2/gnu_434/lib/eft30tplus.lib(PPS_SendTerminalRefRequestCommand.o)
                              Obj/GNU_ARM_DEBUG_T2/schemes.o (PPS_SendTerminalRefRequestCommand)
C:/Program Files/TeliumSDK/SDK11.16.8.02/SDKTPLUS/HW_T2/gnu_434/lib/eft30tplus.lib(PPS_firstline.o)
                              Obj/GNU_ARM_DEBUG_T2/schemes.o (PPS_firstline)
C:/Program Files/TeliumSDK/SDK11.16.8.02/SDKTPLUS/HW_T2/gnu_434/lib/eft30tplus.lib(PPS_newline.o)
                              Obj/GNU_ARM_DEBUG_T2/schemes.o (PPS_newline)
C:/Program Files/TeliumSDK/SDK11.16.8.02/SDKTPLUS/HW_T2/gnu_434/lib/eft30tplus.lib(pinpadtp1.o)
                              C:/Program Files/TeliumSDK/SDK11.16.8.02/SDKTPLUS/HW_T2/gnu_434/lib/eft30tplus.lib(IsPPSConnected.o) (pinpadlib_open)
C:/Program Files/TeliumSDK/SDK11.16.8.02/SDKTPLUS/HW_T2/gnu_434/lib/eft30tplus.lib(PPS_Display.o)
                              Obj/GNU_ARM_DEBUG_T2/schemes.o (PPS_Display)
C:/Program Files/TeliumSDK/SDK11.16.8.02/SDKTPLUS/HW_T2/gnu_434/lib/eft30tplus.lib(Telium_Read_date.o)
                              Obj/GNU_ARM_DEBUG_T2/Entry.o (Telium_Read_date)
C:/Program Files/TeliumSDK/SDK11.16.8.02/SDKTPLUS/HW_T2/gnu_434/lib/eft30tplus.lib(BoosterType.o)
                              Obj/GNU_ARM_DEBUG_T2/schemes.o (BoosterType)
C:/Program Files/TeliumSDK/SDK11.16.8.02/SDKTPLUS/HW_T2/gnu_434/lib/eft30tplus.lib(IsColorDisplay.o)
                              Obj/GNU_ARM_DEBUG_T2/ComGPRS.o (IsColorDisplay)
C:/Program Files/TeliumSDK/SDK11.16.8.02/SDKTPLUS/HW_T2/gnu_434/lib/eft30tplus.lib(IsISO1.o)
                              Obj/GNU_ARM_DEBUG_T2/magnetic.o (IsISO1)
C:/Program Files/TeliumSDK/SDK11.16.8.02/SDKTPLUS/HW_T2/gnu_434/lib/eft30tplus.lib(IsISO2.o)
                              Obj/GNU_ARM_DEBUG_T2/magnetic.o (IsISO2)
C:/Program Files/TeliumSDK/SDK11.16.8.02/SDKTPLUS/HW_T2/gnu_434/lib/eft30tplus.lib(IsISO3.o)
                              Obj/GNU_ARM_DEBUG_T2/magnetic.o (IsISO3)
C:/Program Files/TeliumSDK/SDK11.16.8.02/SDKTPLUS/HW_T2/gnu_434/lib/eft30tplus.lib(IsPrinter.o)
                              Obj/GNU_ARM_DEBUG_T2/Goal.o (IsPrinter)
C:/Program Files/TeliumSDK/SDK11.16.8.02/SDKTPLUS/HW_T2/gnu_434/lib/eft30tplus.lib(Telium_ServiceRegister.o)
                              Obj/GNU_ARM_DEBUG_T2/Entry.o (Telium_ServiceRegister)
C:/Program Files/TeliumSDK/SDK11.16.8.02/SDKTPLUS/HW_T2/gnu_434/lib/eft30tplus.lib(Telium_Atoi.o)
                              Obj/GNU_ARM_DEBUG_T2/ComGPRS.o (atoi)
C:/Program Files/TeliumSDK/SDK11.16.8.02/SDKTPLUS/HW_T2/gnu_434/lib/eft30tplus.lib(Telium_Pprintf.o)
                              Obj/GNU_ARM_DEBUG_T2/Entry.o (Telium_Pprintf)
C:/Program Files/TeliumSDK/SDK11.16.8.02/SDKTPLUS/HW_T2/gnu_434/lib/eft30tplus.lib(Telium_Printf.o)
                              Obj/GNU_ARM_DEBUG_T2/Entry.o (Telium_Printf)
C:/Program Files/TeliumSDK/SDK11.16.8.02/SDKTPLUS/HW_T2/gnu_434/lib/eft30tplus.lib(Telium_Stdprt.o)
                              C:/Program Files/TeliumSDK/SDK11.16.8.02/SDKTPLUS/HW_T2/gnu_434/lib/eft30tplus.lib(Telium_Pprintf.o) (Telium_Stdprt)
C:/Program Files/TeliumSDK/SDK11.16.8.02/SDKTPLUS/HW_T2/gnu_434/lib/eft30tplus.lib(Telium_Sprintf.o)
                              Obj/GNU_ARM_DEBUG_T2/Entry.o (Telium_Sprintf)
C:/Program Files/TeliumSDK/SDK11.16.8.02/SDKTPLUS/HW_T2/gnu_434/lib/eft30tplus.lib(sprintf.o)
                              Obj/GNU_ARM_DEBUG_T2/FMG.o (sprintf)
C:/Program Files/TeliumSDK/SDK11.16.8.02/SDKTPLUS/HW_T2/gnu_434/lib/eft30tplus.lib(TM_InitContexteGraphique.o)
                              C:/Program Files/TeliumSDK/SDK11.16.8.02/SDKTPLUS/HW_T2/gnu_434/lib/eft30tplus.lib(InitContexteGraphique.o) (TM_InitContexteGraphique)
C:/Program Files/TeliumSDK/SDK11.16.8.02/SDKTPLUS/HW_T2/gnu_434/lib/eft30tplus.lib(toolstp1.o)
                              C:/Program Files/TeliumSDK/SDK11.16.8.02/SDKTPLUS/HW_T2/gnu_434/lib/eft30tplus.lib(Telium_Read_date.o) (toolslib_open)
C:/Program Files/TeliumSDK/SDK11.16.8.02/SDKTPLUS/HW_T2/gnu_434/lib/TRAP_TELIUM_PLUS.LIB(ApplicationGetCurrent.o)
                              Obj/GNU_ARM_DEBUG_T2/Main.o (ApplicationGetCurrent)
C:/Program Files/TeliumSDK/SDK11.16.8.02/SDKTPLUS/HW_T2/gnu_434/lib/TRAP_TELIUM_PLUS.LIB(FS_close.o)
                              Obj/GNU_ARM_DEBUG_T2/Entry.o (FS_close)
C:/Program Files/TeliumSDK/SDK11.16.8.02/SDKTPLUS/HW_T2/gnu_434/lib/TRAP_TELIUM_PLUS.LIB(FS_dskcreate.o)
                              Obj/GNU_ARM_DEBUG_T2/Entry.o (FS_dskcreate)
C:/Program Files/TeliumSDK/SDK11.16.8.02/SDKTPLUS/HW_T2/gnu_434/lib/TRAP_TELIUM_PLUS.LIB(FS_length.o)
                              Obj/GNU_ARM_DEBUG_T2/Entry.o (FS_length)
C:/Program Files/TeliumSDK/SDK11.16.8.02/SDKTPLUS/HW_T2/gnu_434/lib/TRAP_TELIUM_PLUS.LIB(FS_mount.o)
                              Obj/GNU_ARM_DEBUG_T2/Entry.o (FS_mount)
C:/Program Files/TeliumSDK/SDK11.16.8.02/SDKTPLUS/HW_T2/gnu_434/lib/TRAP_TELIUM_PLUS.LIB(FS_open.o)
                              Obj/GNU_ARM_DEBUG_T2/Entry.o (FS_open)
C:/Program Files/TeliumSDK/SDK11.16.8.02/SDKTPLUS/HW_T2/gnu_434/lib/TRAP_TELIUM_PLUS.LIB(FS_read.o)
                              Obj/GNU_ARM_DEBUG_T2/Entry.o (FS_read)
C:/Program Files/TeliumSDK/SDK11.16.8.02/SDKTPLUS/HW_T2/gnu_434/lib/TRAP_TELIUM_PLUS.LIB(FS_unmount.o)
                              Obj/GNU_ARM_DEBUG_T2/Entry.o (FS_unmount)
C:/Program Files/TeliumSDK/SDK11.16.8.02/SDKTPLUS/HW_T2/gnu_434/lib/TRAP_TELIUM_PLUS.LIB(ObjectGetDescriptor.o)
                              Obj/GNU_ARM_DEBUG_T2/Utility.o (ObjectGetDescriptor)
C:/Program Files/TeliumSDK/SDK11.16.8.02/SDKTPLUS/HW_T2/gnu_434/lib/TRAP_TELIUM_PLUS.LIB(ObjectGetInfo.o)
                              Obj/GNU_ARM_DEBUG_T2/Entry.o (ObjectGetInfo)
C:/Program Files/TeliumSDK/SDK11.16.8.02/SDKTPLUS/HW_T2/gnu_434/lib/TRAP_TELIUM_PLUS.LIB(Telium_Exit.o)
                              C:/Program Files/TeliumSDK/SDK11.16.8.02/SDKTPLUS/HW_T2/gnu_434/lib/eft30tplus.lib(DLLExist.o) (Telium_Exit)
C:/Program Files/TeliumSDK/SDK11.16.8.02/SDKTPLUS/HW_T2/gnu_434/lib/TRAP_TELIUM_PLUS.LIB(Telium_Fclose.o)
                              Obj/GNU_ARM_DEBUG_T2/Entry.o (Telium_Fclose)
C:/Program Files/TeliumSDK/SDK11.16.8.02/SDKTPLUS/HW_T2/gnu_434/lib/TRAP_TELIUM_PLUS.LIB(Telium_Fopen.o)
                              Obj/GNU_ARM_DEBUG_T2/Entry.o (Telium_Fopen)
C:/Program Files/TeliumSDK/SDK11.16.8.02/SDKTPLUS/HW_T2/gnu_434/lib/TRAP_TELIUM_PLUS.LIB(Telium_Getc.o)
                              Obj/GNU_ARM_DEBUG_T2/globals.o (Telium_Getc)
C:/Program Files/TeliumSDK/SDK11.16.8.02/SDKTPLUS/HW_T2/gnu_434/lib/TRAP_TELIUM_PLUS.LIB(Telium_Is_iso1.o)
                              Obj/GNU_ARM_DEBUG_T2/magnetic.o (Telium_Is_iso1)
C:/Program Files/TeliumSDK/SDK11.16.8.02/SDKTPLUS/HW_T2/gnu_434/lib/TRAP_TELIUM_PLUS.LIB(Telium_Is_iso2.o)
                              Obj/GNU_ARM_DEBUG_T2/magnetic.o (Telium_Is_iso2)
C:/Program Files/TeliumSDK/SDK11.16.8.02/SDKTPLUS/HW_T2/gnu_434/lib/TRAP_TELIUM_PLUS.LIB(Telium_Is_iso3.o)
                              Obj/GNU_ARM_DEBUG_T2/magnetic.o (Telium_Is_iso3)
C:/Program Files/TeliumSDK/SDK11.16.8.02/SDKTPLUS/HW_T2/gnu_434/lib/TRAP_TELIUM_PLUS.LIB(Telium_Reset_buf.o)
                              Obj/GNU_ARM_DEBUG_T2/Menu.o (Telium_Reset_buf)
C:/Program Files/TeliumSDK/SDK11.16.8.02/SDKTPLUS/HW_T2/gnu_434/lib/TRAP_TELIUM_PLUS.LIB(Telium_Status.o)
                              Obj/GNU_ARM_DEBUG_T2/Utility.o (Telium_Status)
C:/Program Files/TeliumSDK/SDK11.16.8.02/SDKTPLUS/HW_T2/gnu_434/lib/TRAP_TELIUM_PLUS.LIB(Telium_Stdin.o)
                              Obj/GNU_ARM_DEBUG_T2/globals.o (Telium_Stdin)
C:/Program Files/TeliumSDK/SDK11.16.8.02/SDKTPLUS/HW_T2/gnu_434/lib/TRAP_TELIUM_PLUS.LIB(Telium_Stdout.o)
                              Obj/GNU_ARM_DEBUG_T2/Entry.o (Telium_Stdout)
C:/Program Files/TeliumSDK/SDK11.16.8.02/SDKTPLUS/HW_T2/gnu_434/lib/TRAP_TELIUM_PLUS.LIB(Telium_Stdperif.o)
                              Obj/GNU_ARM_DEBUG_T2/Menu.o (Telium_Stdperif)
C:/Program Files/TeliumSDK/SDK11.16.8.02/SDKTPLUS/HW_T2/gnu_434/lib/TRAP_TELIUM_PLUS.LIB(Telium_Ttestall.o)
                              Obj/GNU_ARM_DEBUG_T2/Entry.o (Telium_Ttestall)
C:/Program Files/TeliumSDK/SDK11.16.8.02/SDKTPLUS/HW_T2/gnu_434/lib/TRAP_TELIUM_PLUS.LIB(Telium_Vfprintf.o)
                              C:/Program Files/TeliumSDK/SDK11.16.8.02/SDKTPLUS/HW_T2/gnu_434/lib/eft30tplus.lib(Telium_Pprintf.o) (Telium_Vfprintf)
C:/Program Files/TeliumSDK/SDK11.16.8.02/SDKTPLUS/HW_T2/gnu_434/lib/TRAP_TELIUM_PLUS.LIB(Telium_Vsprintf.o)
                              C:/Program Files/TeliumSDK/SDK11.16.8.02/SDKTPLUS/HW_T2/gnu_434/lib/eft30tplus.lib(Telium_Sprintf.o) (Telium_Vsprintf)
C:/Program Files/TeliumSDK/SDK11.16.8.02/SDKTPLUS/HW_T2/gnu_434/lib/TRAP_TELIUM_PLUS.LIB(buzzer.o)
                              Obj/GNU_ARM_DEBUG_T2/ComGPRS.o (buzzer)
C:/Program Files/TeliumSDK/SDK11.16.8.02/SDKTPLUS/HW_T2/gnu_434/lib/TRAP_TELIUM_PLUS.LIB(first_init.o)
                              Obj/GNU_ARM_DEBUG_T2/Entry.o (first_init)
C:/Program Files/TeliumSDK/SDK11.16.8.02/SDKTPLUS/HW_T2/gnu_434/lib/TRAP_TELIUM_PLUS.LIB(raz_init.o)
                              Obj/GNU_ARM_DEBUG_T2/Entry.o (raz_init)
C:/Program Files/TeliumSDK/SDK11.16.8.02/SDKTPLUS/HW_T2/gnu_434/lib/TRAP_TELIUM_PLUS.LIB(ufree.o)
                              C:/Program Files/TeliumSDK/SDK11.16.8.02/SDKTPLUS/HW_T2/gnu_434/startfiles/libcpatch.o (ufree)
C:/Program Files/TeliumSDK/SDK11.16.8.02/SDKTPLUS/HW_T2/gnu_434/lib/TRAP_TELIUM_PLUS.LIB(umalloc.o)
                              C:/Program Files/TeliumSDK/SDK11.16.8.02/SDKTPLUS/HW_T2/gnu_434/startfiles/libcpatch.o (umalloc)
C:/Program Files/TeliumSDK/SDK11.16.8.02/SDKTPLUS/HW_T2/gnu_434/lib/TRAP_TELIUM_PLUS.LIB(urealloc.o)
                              C:/Program Files/TeliumSDK/SDK11.16.8.02/SDKTPLUS/HW_T2/gnu_434/startfiles/libcpatch.o (urealloc)
C:/Program Files/TeliumSDK/SDK11.16.8.02/SDKTPLUS/HW_T2/gnu_434/lib/SECTPLUS.lib(SECLibOpenClose.o)
                              Obj/GNU_ARM_DEBUG_T2/Entry.o (SEClib_Open)
C:/Program Files/TeliumSDK/SDK11.16.8.02/SDKTPLUS/HW_T2/gnu_434/lib/SECTPLUS.lib(SEC1.o)
                              C:/Program Files/TeliumSDK/SDK11.16.8.02/SDKTPLUS/HW_T2/gnu_434/lib/SECTPLUS.lib(SECLibOpenClose.o) (SEC_Version)
C:/Program Files/TeliumSDK/SDK11.16.8.02/SDKTPLUS/HW_T2/gnu_434/lib/SECTPLUS.lib(SEC7.o)
                              C:/Program Files/TeliumSDK/SDK11.16.8.02/SDKTPLUS/HW_T2/gnu_434/lib/SECTPLUS.lib(SECLibOpenClose.o) (SEC_InitVar)
C:/Program Files/TeliumSDK/SDK11.16.8.02/SDKTPLUS/HW_T2/gnu_434/lib/SECTPLUS.lib(SEC8.o)
                              Obj/GNU_ARM_DEBUG_T2/schemes.o (SEC_SetConfig)
C:/Program Files/TeliumSDK/SDK11.16.8.02/SDKTPLUS/HW_T2/gnu_434/lib/SECTPLUS.lib(SEC9.o)
                              Obj/GNU_ARM_DEBUG_T2/schemes.o (SEC_GetConfig)
C:/Program Files/TeliumSDK/SDK11.16.8.02/SDKTPLUS/HW_T2/gnu_434/lib/SECTPLUS.lib(SEC10.o)
                              Obj/GNU_ARM_DEBUG_T2/schemes.o (SEC_listSecureId)
C:/Program Files/TeliumSDK/SDK11.16.8.02/SDKTPLUS/HW_T2/gnu_434/lib/SECTPLUS.lib(SEC11.o)
                              Obj/GNU_ARM_DEBUG_T2/schemes.o (SEC_isSecretArea)
C:/Program Files/TeliumSDK/SDK11.16.8.02/SDKTPLUS/HW_T2/gnu_434/lib/SECTPLUS.lib(SEC19.o)
                              Obj/GNU_ARM_DEBUG_T2/schemes.o (SEC_CreateSecretArea)
C:/Program Files/TeliumSDK/SDK11.16.8.02/SDKTPLUS/HW_T2/gnu_434/lib/SECTPLUS.lib(SEC20.o)
                              Obj/GNU_ARM_DEBUG_T2/schemes.o (SEC_FreeSecret)
C:/Program Files/TeliumSDK/SDK11.16.8.02/SDKTPLUS/HW_T2/gnu_434/lib/SECTPLUS.lib(SEC21.o)
                              Obj/GNU_ARM_DEBUG_T2/schemes.o (SEC_LoadKey)
C:/Program Files/TeliumSDK/SDK11.16.8.02/SDKTPLUS/HW_T2/gnu_434/lib/SECTPLUS.lib(SEC22.o)
                              Obj/GNU_ARM_DEBUG_T2/schemes.o (SEC_PinEntryInit)
C:/Program Files/TeliumSDK/SDK11.16.8.02/SDKTPLUS/HW_T2/gnu_434/lib/SECTPLUS.lib(SEC23.o)
                              Obj/GNU_ARM_DEBUG_T2/schemes.o (SEC_PinEntry)
C:/Program Files/TeliumSDK/SDK11.16.8.02/SDKTPLUS/HW_T2/gnu_434/lib/SECTPLUS.lib(SEC24.o)
                              Obj/GNU_ARM_DEBUG_T2/schemes.o (SEC_Iso9564)
C:/Program Files/TeliumSDK/SDK11.16.8.02/SDKTPLUS/HW_T2/gnu_434/lib/SECTPLUS.lib(SEC34.o)
                              Obj/GNU_ARM_DEBUG_T2/schemes.o (SEC_ComputeMAC)
C:/Program Files/TeliumSDK/SDK11.16.8.02/SDKTPLUS/HW_T2/gnu_434/lib/SECTPLUS.lib(SEC37.o)
                              C:/Program Files/TeliumSDK/SDK11.16.8.02/SDKTPLUS/HW_T2/gnu_434/lib/SECTPLUS.lib(SECLibOpenClose.o) (SEC_InitInstance)
C:/Program Files/TeliumSDK/SDK11.16.8.02/SDKTPLUS/HW_T2/gnu_434/lib/SECTPLUS.lib(SEC38.o)
                              Obj/GNU_ARM_DEBUG_T2/schemes.o (SEC_KeyVerify)
C:/Program Files/TeliumSDK/SDK11.16.8.02/SDKTPLUS/HW_T2/gnu_434/lib/SECTPLUS.lib(SEC54.o)
                              Obj/GNU_ARM_DEBUG_T2/schemes.o (SEC_listTLVKeys)
C:/Program Files/TeliumSDK/SDK11.16.8.02/SDKTPLUS/HW_T2/gnu_434/lib/LinkLayerExeInterface_TPlus.lib(LinkLayerServices.o)
                              Obj/GNU_ARM_DEBUG_T2/ComGPRS.o (LL_Network_GetStatus)
C:/Program Files/TeliumSDK/SDK11.16.8.02/SDKTPLUS/HW_T2/gnu_434/lib/ExtraGPRS.lib(gprs_GetInformation.o)
                              Obj/GNU_ARM_DEBUG_T2/ComGPRS.o (gprs_GetInformation)
C:/Program Files/TeliumSDK/SDK11.16.8.02/SDKTPLUS/HW_T2/gnu_434/lib/ExtraGPRS.lib(gprs_SetPinModeFree.o)
                              Obj/GNU_ARM_DEBUG_T2/ComGPRS.o (gprs_SetPinModeFree)
C:/Program Files/TeliumSDK/SDK11.16.8.02/SDKTPLUS/HW_T2/gnu_434/lib/ExtraGPRS.lib(gprs_SubmitPuk.o)
                              Obj/GNU_ARM_DEBUG_T2/ComGPRS.o (gprs_SubmitPuk)
C:/Program Files/TeliumSDK/SDK11.16.8.02/SDKTPLUS/HW_T2/gnu_434/lib/ExtraGPRS.lib(EXTRA_GPRS_asm_link.o)
                              C:/Program Files/TeliumSDK/SDK11.16.8.02/SDKTPLUS/HW_T2/gnu_434/lib/ExtraGPRS.lib(gprs_GetInformation.o) (EXTRA_GPRS_InitFuncAndBranch)
C:/Program Files/TeliumSDK/SDK11.16.8.02/SDKTPLUS/HW_T2/gnu_434/lib/ExtraGPRS.lib(EXTRA_GPRS_link.o)
                              C:/Program Files/TeliumSDK/SDK11.16.8.02/SDKTPLUS/HW_T2/gnu_434/lib/ExtraGPRS.lib(EXTRA_GPRS_asm_link.o) (EXTRA_GPRS_GetProcAddress)
C:/Program Files/TeliumSDK/SDK11.16.8.02/SDKTPLUS/HW_T2/gnu_434/lib/GTL_TPlus.lib(GTL_StdTimer.o)
                              Obj/GNU_ARM_DEBUG_T2/globals.o (GTL_StdTimer_GetCurrent)
C:/Program Files/TeliumSDK/SDK11.16.8.02/SDKTPLUS/HW_T2/gnu_434/lib/FMG_TPlus.lib(VGE_FMG.o)
                              Obj/GNU_ARM_DEBUG_T2/FMG.o (FMG_DeleteRecord)
C:/Program Files/TeliumSDK/SDK11.16.8.02/SDKTPLUS/HW_T2/gnu_434/lib/FMG_TPlus.lib(md5.o)
                              C:/Program Files/TeliumSDK/SDK11.16.8.02/SDKTPLUS/HW_T2/gnu_434/lib/FMG_TPlus.lib(VGE_FMG.o) (md5_init)
C:/Program Files/TeliumSDK/SDK11.16.8.02/SDKTPLUS/HW_T2/gnu_434/lib/TlvTree_TPlus.lib(Proxy.o)
                              C:/Program Files/TeliumSDK/SDK11.16.8.02/SDKTPLUS/HW_T2/gnu_434/lib/LinkLayerExeInterface_TPlus.lib(LinkLayerServices.o) (TlvTree_Unserialize)
C:/Program Files/TeliumSDK/SDK11.16.8.02/SDKTPLUS/HW_T2/gnu_434/lib/TlvTree_TPlus.lib(Serializer.o)
                              C:/Program Files/TeliumSDK/SDK11.16.8.02/SDKTPLUS/HW_T2/gnu_434/lib/TlvTree_TPlus.lib(Proxy.o) (__TlvTree_GetSerializationSize)
C:/Program Files/TeliumSDK/SDK11.16.8.02/SDKTPLUS/HW_T2/gnu_434/lib/TlvTree_TPlus.lib(Internal.o)
                              C:/Program Files/TeliumSDK/SDK11.16.8.02/SDKTPLUS/HW_T2/gnu_434/lib/TlvTree_TPlus.lib(Proxy.o) (__TlvTree_SetTag)
C:/Program Files/TeliumSDK/SDK11.16.8.02/SDKTPLUS/HW_T2/gnu_434/lib/TlvTree_TPlus.lib(Serializer_Default.o)
                              C:/Program Files/TeliumSDK/SDK11.16.8.02/SDKTPLUS/HW_T2/gnu_434/lib/TlvTree_TPlus.lib(Serializer.o) (__TlvTree_Unserialize_Default)
C:/Program Files/TeliumSDK/SDK11.16.8.02/SDKTPLUS/HW_T2/gnu_434/lib/TlvTree_TPlus.lib(Serializer_Xml.o)
                              C:/Program Files/TeliumSDK/SDK11.16.8.02/SDKTPLUS/HW_T2/gnu_434/lib/TlvTree_TPlus.lib(Serializer.o) (__TlvTree_Unserialize_Xml)
C:/Program Files/TeliumSDK/SDK11.16.8.02/SDKTPLUS/HW_T2/gnu_434/lib/GRAPHICLIB.LIB(GL_Button_Create.o)
                              Obj/GNU_ARM_DEBUG_T2/Goal.o (GL_Button_Create)
C:/Program Files/TeliumSDK/SDK11.16.8.02/SDKTPLUS/HW_T2/gnu_434/lib/GRAPHICLIB.LIB(GL_Dialog_Amount.o)
                              Obj/GNU_ARM_DEBUG_T2/amount.o (GL_Dialog_Amount)
C:/Program Files/TeliumSDK/SDK11.16.8.02/SDKTPLUS/HW_T2/gnu_434/lib/GRAPHICLIB.LIB(GL_Dialog_Choice.o)
                              Obj/GNU_ARM_DEBUG_T2/ComGPRS.o (GL_Dialog_Choice)
C:/Program Files/TeliumSDK/SDK11.16.8.02/SDKTPLUS/HW_T2/gnu_434/lib/GRAPHICLIB.LIB(GL_Dialog_Menu.o)
                              Obj/GNU_ARM_DEBUG_T2/Menu.o (GL_Dialog_Menu)
C:/Program Files/TeliumSDK/SDK11.16.8.02/SDKTPLUS/HW_T2/gnu_434/lib/GRAPHICLIB.LIB(GL_Dialog_Message.o)
                              Obj/GNU_ARM_DEBUG_T2/Entry.o (GL_Dialog_Message)
C:/Program Files/TeliumSDK/SDK11.16.8.02/SDKTPLUS/HW_T2/gnu_434/lib/GRAPHICLIB.LIB(GL_Dialog_Password.o)
                              Obj/GNU_ARM_DEBUG_T2/ComGPRS.o (GL_Dialog_Password)
C:/Program Files/TeliumSDK/SDK11.16.8.02/SDKTPLUS/HW_T2/gnu_434/lib/GRAPHICLIB.LIB(GL_Dialog_Progress.o)
                              Obj/GNU_ARM_DEBUG_T2/Entry.o (GL_Dialog_Progress)
C:/Program Files/TeliumSDK/SDK11.16.8.02/SDKTPLUS/HW_T2/gnu_434/lib/GRAPHICLIB.LIB(GL_Dialog_Text.o)
                              Obj/GNU_ARM_DEBUG_T2/ComGPRS.o (GL_Dialog_Text)
C:/Program Files/TeliumSDK/SDK11.16.8.02/SDKTPLUS/HW_T2/gnu_434/lib/GRAPHICLIB.LIB(GL_Dialog_VirtualKeyboard.o)
                              Obj/GNU_ARM_DEBUG_T2/ComGPRS.o (GL_Dialog_VirtualKeyboard)
C:/Program Files/TeliumSDK/SDK11.16.8.02/SDKTPLUS/HW_T2/gnu_434/lib/GRAPHICLIB.LIB(GL_Document_Create.o)
                              Obj/GNU_ARM_DEBUG_T2/Goal.o (GL_Document_Create)
C:/Program Files/TeliumSDK/SDK11.16.8.02/SDKTPLUS/HW_T2/gnu_434/lib/GRAPHICLIB.LIB(GL_Document_Print.o)
                              Obj/GNU_ARM_DEBUG_T2/Goal.o (GL_Document_Print)
C:/Program Files/TeliumSDK/SDK11.16.8.02/SDKTPLUS/HW_T2/gnu_434/lib/GRAPHICLIB.LIB(GL_Drawing_Clear.o)
                              Obj/GNU_ARM_DEBUG_T2/Goal.o (GL_Drawing_Clear)
C:/Program Files/TeliumSDK/SDK11.16.8.02/SDKTPLUS/HW_T2/gnu_434/lib/GRAPHICLIB.LIB(GL_Drawing_Create.o)
                              Obj/GNU_ARM_DEBUG_T2/Goal.o (GL_Drawing_Create)
C:/Program Files/TeliumSDK/SDK11.16.8.02/SDKTPLUS/HW_T2/gnu_434/lib/GRAPHICLIB.LIB(GL_Drawing_DrawEllipse.o)
                              Obj/GNU_ARM_DEBUG_T2/Goal.o (GL_Drawing_DrawEllipse)
C:/Program Files/TeliumSDK/SDK11.16.8.02/SDKTPLUS/HW_T2/gnu_434/lib/GRAPHICLIB.LIB(GL_Drawing_DrawLine.o)
                              Obj/GNU_ARM_DEBUG_T2/Goal.o (GL_Drawing_DrawLine)
C:/Program Files/TeliumSDK/SDK11.16.8.02/SDKTPLUS/HW_T2/gnu_434/lib/GRAPHICLIB.LIB(GL_Drawing_DrawRect.o)
                              Obj/GNU_ARM_DEBUG_T2/Goal.o (GL_Drawing_DrawRect)
C:/Program Files/TeliumSDK/SDK11.16.8.02/SDKTPLUS/HW_T2/gnu_434/lib/GRAPHICLIB.LIB(GL_Drawing_DrawText.o)
                              Obj/GNU_ARM_DEBUG_T2/Goal.o (GL_Drawing_DrawText)
C:/Program Files/TeliumSDK/SDK11.16.8.02/SDKTPLUS/HW_T2/gnu_434/lib/GRAPHICLIB.LIB(GL_Drawing_SetBrush.o)
                              Obj/GNU_ARM_DEBUG_T2/Goal.o (GL_Drawing_SetBrush)
C:/Program Files/TeliumSDK/SDK11.16.8.02/SDKTPLUS/HW_T2/gnu_434/lib/GRAPHICLIB.LIB(GL_Drawing_SetFont.o)
                              Obj/GNU_ARM_DEBUG_T2/Goal.o (GL_Drawing_SetFont)
C:/Program Files/TeliumSDK/SDK11.16.8.02/SDKTPLUS/HW_T2/gnu_434/lib/GRAPHICLIB.LIB(GL_Drawing_SetPen.o)
                              Obj/GNU_ARM_DEBUG_T2/Goal.o (GL_Drawing_SetPen)
C:/Program Files/TeliumSDK/SDK11.16.8.02/SDKTPLUS/HW_T2/gnu_434/lib/GRAPHICLIB.LIB(GL_GraphicLib_BindSingleKey.o)
                              Obj/GNU_ARM_DEBUG_T2/Goal.o (GL_GraphicLib_BindSingleKey)
C:/Program Files/TeliumSDK/SDK11.16.8.02/SDKTPLUS/HW_T2/gnu_434/lib/GRAPHICLIB.LIB(GL_GraphicLib_Create.o)
                              Obj/GNU_ARM_DEBUG_T2/Entry.o (GL_GraphicLib_Create)
C:/Program Files/TeliumSDK/SDK11.16.8.02/SDKTPLUS/HW_T2/gnu_434/lib/GRAPHICLIB.LIB(GL_GraphicLib_IsTouchPresent.o)
                              Obj/GNU_ARM_DEBUG_T2/Menu.o (GL_GraphicLib_IsTouchPresent)
C:/Program Files/TeliumSDK/SDK11.16.8.02/SDKTPLUS/HW_T2/gnu_434/lib/GRAPHICLIB.LIB(GL_GraphicLib_SetCharset.o)
                              Obj/GNU_ARM_DEBUG_T2/Goal.o (GL_GraphicLib_SetCharset)
C:/Program Files/TeliumSDK/SDK11.16.8.02/SDKTPLUS/HW_T2/gnu_434/lib/GRAPHICLIB.LIB(GL_GraphicLib_UnbindKey.o)
                              Obj/GNU_ARM_DEBUG_T2/Goal.o (GL_GraphicLib_UnbindKey)
C:/Program Files/TeliumSDK/SDK11.16.8.02/SDKTPLUS/HW_T2/gnu_434/lib/GRAPHICLIB.LIB(GL_Label_Create.o)
                              Obj/GNU_ARM_DEBUG_T2/Entry.o (GL_Label_Create)
C:/Program Files/TeliumSDK/SDK11.16.8.02/SDKTPLUS/HW_T2/gnu_434/lib/GRAPHICLIB.LIB(GL_Layout_Create.o)
                              Obj/GNU_ARM_DEBUG_T2/Goal.o (GL_Layout_Create)
C:/Program Files/TeliumSDK/SDK11.16.8.02/SDKTPLUS/HW_T2/gnu_434/lib/GRAPHICLIB.LIB(GL_Message_GetKey.o)
                              Obj/GNU_ARM_DEBUG_T2/Goal.o (GL_Message_GetKey)
C:/Program Files/TeliumSDK/SDK11.16.8.02/SDKTPLUS/HW_T2/gnu_434/lib/GRAPHICLIB.LIB(GL_Message_GetWidget.o)
                              Obj/GNU_ARM_DEBUG_T2/Goal.o (GL_Message_GetWidget)
C:/Program Files/TeliumSDK/SDK11.16.8.02/SDKTPLUS/HW_T2/gnu_434/lib/GRAPHICLIB.LIB(GL_Message_SetResult.o)
                              Obj/GNU_ARM_DEBUG_T2/Goal.o (GL_Message_SetResult)
C:/Program Files/TeliumSDK/SDK11.16.8.02/SDKTPLUS/HW_T2/gnu_434/lib/GRAPHICLIB.LIB(GL_Message_SetUserData.o)
                              Obj/GNU_ARM_DEBUG_T2/Goal.o (GL_Message_SetUserData)
C:/Program Files/TeliumSDK/SDK11.16.8.02/SDKTPLUS/HW_T2/gnu_434/lib/GRAPHICLIB.LIB(GL_Picture_Create.o)
                              Obj/GNU_ARM_DEBUG_T2/Goal.o (GL_Picture_Create)
C:/Program Files/TeliumSDK/SDK11.16.8.02/SDKTPLUS/HW_T2/gnu_434/lib/GRAPHICLIB.LIB(GL_Print_Create.o)
                              Obj/GNU_ARM_DEBUG_T2/Goal.o (GL_Print_Create)
C:/Program Files/TeliumSDK/SDK11.16.8.02/SDKTPLUS/HW_T2/gnu_434/lib/GRAPHICLIB.LIB(GL_Timer_Create.o)
                              Obj/GNU_ARM_DEBUG_T2/Goal.o (GL_Timer_Create)
C:/Program Files/TeliumSDK/SDK11.16.8.02/SDKTPLUS/HW_T2/gnu_434/lib/GRAPHICLIB.LIB(GL_Timer_SetInterval.o)
                              Obj/GNU_ARM_DEBUG_T2/Goal.o (GL_Timer_SetInterval)
C:/Program Files/TeliumSDK/SDK11.16.8.02/SDKTPLUS/HW_T2/gnu_434/lib/GRAPHICLIB.LIB(GL_Timer_Stop.o)
                              Obj/GNU_ARM_DEBUG_T2/Goal.o (GL_Timer_Stop)
C:/Program Files/TeliumSDK/SDK11.16.8.02/SDKTPLUS/HW_T2/gnu_434/lib/GRAPHICLIB.LIB(GL_Widget_Destroy.o)
                              Obj/GNU_ARM_DEBUG_T2/Entry.o (GL_Widget_Destroy)
C:/Program Files/TeliumSDK/SDK11.16.8.02/SDKTPLUS/HW_T2/gnu_434/lib/GRAPHICLIB.LIB(GL_Widget_GetUserData.o)
                              Obj/GNU_ARM_DEBUG_T2/Goal.o (GL_Widget_GetUserData)
C:/Program Files/TeliumSDK/SDK11.16.8.02/SDKTPLUS/HW_T2/gnu_434/lib/GRAPHICLIB.LIB(GL_Widget_RegisterCallback.o)
                              Obj/GNU_ARM_DEBUG_T2/Goal.o (GL_Widget_RegisterCallback)
C:/Program Files/TeliumSDK/SDK11.16.8.02/SDKTPLUS/HW_T2/gnu_434/lib/GRAPHICLIB.LIB(GL_Widget_SearchId.o)
                              Obj/GNU_ARM_DEBUG_T2/Goal.o (GL_Widget_SearchId)
C:/Program Files/TeliumSDK/SDK11.16.8.02/SDKTPLUS/HW_T2/gnu_434/lib/GRAPHICLIB.LIB(GL_Widget_SetBackAlign.o)
                              Obj/GNU_ARM_DEBUG_T2/Entry.o (GL_Widget_SetBackAlign)
C:/Program Files/TeliumSDK/SDK11.16.8.02/SDKTPLUS/HW_T2/gnu_434/lib/GRAPHICLIB.LIB(GL_Widget_SetBackColor.o)
                              Obj/GNU_ARM_DEBUG_T2/Goal.o (GL_Widget_SetBackColor)
C:/Program Files/TeliumSDK/SDK11.16.8.02/SDKTPLUS/HW_T2/gnu_434/lib/GRAPHICLIB.LIB(GL_Widget_SetBorders.o)
                              Obj/GNU_ARM_DEBUG_T2/Goal.o (GL_Widget_SetBorders)
C:/Program Files/TeliumSDK/SDK11.16.8.02/SDKTPLUS/HW_T2/gnu_434/lib/GRAPHICLIB.LIB(GL_Widget_SetExpand.o)
                              Obj/GNU_ARM_DEBUG_T2/Goal.o (GL_Widget_SetExpand)
C:/Program Files/TeliumSDK/SDK11.16.8.02/SDKTPLUS/HW_T2/gnu_434/lib/GRAPHICLIB.LIB(GL_Widget_SetFocusable.o)
                              Obj/GNU_ARM_DEBUG_T2/Goal.o (GL_Widget_SetFocusable)
C:/Program Files/TeliumSDK/SDK11.16.8.02/SDKTPLUS/HW_T2/gnu_434/lib/GRAPHICLIB.LIB(GL_Widget_SetFontName.o)
                              Obj/GNU_ARM_DEBUG_T2/Goal.o (GL_Widget_SetFontName)
C:/Program Files/TeliumSDK/SDK11.16.8.02/SDKTPLUS/HW_T2/gnu_434/lib/GRAPHICLIB.LIB(GL_Widget_SetFontScale.o)
                              Obj/GNU_ARM_DEBUG_T2/Entry.o (GL_Widget_SetFontScale)
C:/Program Files/TeliumSDK/SDK11.16.8.02/SDKTPLUS/HW_T2/gnu_434/lib/GRAPHICLIB.LIB(GL_Widget_SetFontStyle.o)
                              Obj/GNU_ARM_DEBUG_T2/Goal.o (GL_Widget_SetFontStyle)
C:/Program Files/TeliumSDK/SDK11.16.8.02/SDKTPLUS/HW_T2/gnu_434/lib/GRAPHICLIB.LIB(GL_Widget_SetForeColor.o)
                              Obj/GNU_ARM_DEBUG_T2/Goal.o (GL_Widget_SetForeColor)
C:/Program Files/TeliumSDK/SDK11.16.8.02/SDKTPLUS/HW_T2/gnu_434/lib/GRAPHICLIB.LIB(GL_Widget_SetGrow.o)
                              Obj/GNU_ARM_DEBUG_T2/Goal.o (GL_Widget_SetGrow)
C:/Program Files/TeliumSDK/SDK11.16.8.02/SDKTPLUS/HW_T2/gnu_434/lib/GRAPHICLIB.LIB(GL_Widget_SetId.o)
                              Obj/GNU_ARM_DEBUG_T2/Goal.o (GL_Widget_SetId)
C:/Program Files/TeliumSDK/SDK11.16.8.02/SDKTPLUS/HW_T2/gnu_434/lib/GRAPHICLIB.LIB(GL_Widget_SetItem.o)
                              Obj/GNU_ARM_DEBUG_T2/Goal.o (GL_Widget_SetItem)
C:/Program Files/TeliumSDK/SDK11.16.8.02/SDKTPLUS/HW_T2/gnu_434/lib/GRAPHICLIB.LIB(GL_Widget_SetMargins.o)
                              Obj/GNU_ARM_DEBUG_T2/Goal.o (GL_Widget_SetMargins)
C:/Program Files/TeliumSDK/SDK11.16.8.02/SDKTPLUS/HW_T2/gnu_434/lib/GRAPHICLIB.LIB(GL_Widget_SetMinSize.o)
                              Obj/GNU_ARM_DEBUG_T2/Goal.o (GL_Widget_SetMinSize)
C:/Program Files/TeliumSDK/SDK11.16.8.02/SDKTPLUS/HW_T2/gnu_434/lib/GRAPHICLIB.LIB(GL_Widget_SetShortcut.o)
                              Obj/GNU_ARM_DEBUG_T2/Goal.o (GL_Widget_SetShortcut)
C:/Program Files/TeliumSDK/SDK11.16.8.02/SDKTPLUS/HW_T2/gnu_434/lib/GRAPHICLIB.LIB(GL_Widget_SetShrink.o)
                              Obj/GNU_ARM_DEBUG_T2/Goal.o (GL_Widget_SetShrink)
C:/Program Files/TeliumSDK/SDK11.16.8.02/SDKTPLUS/HW_T2/gnu_434/lib/GRAPHICLIB.LIB(GL_Widget_SetSize.o)
                              Obj/GNU_ARM_DEBUG_T2/Goal.o (GL_Widget_SetSize)
C:/Program Files/TeliumSDK/SDK11.16.8.02/SDKTPLUS/HW_T2/gnu_434/lib/GRAPHICLIB.LIB(GL_Widget_SetSource.o)
                              Obj/GNU_ARM_DEBUG_T2/Goal.o (GL_Widget_SetSource)
C:/Program Files/TeliumSDK/SDK11.16.8.02/SDKTPLUS/HW_T2/gnu_434/lib/GRAPHICLIB.LIB(GL_Widget_SetText.o)
                              Obj/GNU_ARM_DEBUG_T2/Entry.o (GL_Widget_SetText)
C:/Program Files/TeliumSDK/SDK11.16.8.02/SDKTPLUS/HW_T2/gnu_434/lib/GRAPHICLIB.LIB(GL_Widget_SetTextAlign.o)
                              Obj/GNU_ARM_DEBUG_T2/Goal.o (GL_Widget_SetTextAlign)
C:/Program Files/TeliumSDK/SDK11.16.8.02/SDKTPLUS/HW_T2/gnu_434/lib/GRAPHICLIB.LIB(GL_Widget_SetTextPaddings.o)
                              Obj/GNU_ARM_DEBUG_T2/Goal.o (GL_Widget_SetTextPaddings)
C:/Program Files/TeliumSDK/SDK11.16.8.02/SDKTPLUS/HW_T2/gnu_434/lib/GRAPHICLIB.LIB(GL_Widget_SetTransformation.o)
                              Obj/GNU_ARM_DEBUG_T2/Goal.o (GL_Widget_SetTransformation)
C:/Program Files/TeliumSDK/SDK11.16.8.02/SDKTPLUS/HW_T2/gnu_434/lib/GRAPHICLIB.LIB(GL_Widget_SetVisible.o)
                              Obj/GNU_ARM_DEBUG_T2/Goal.o (GL_Widget_SetVisible)
C:/Program Files/TeliumSDK/SDK11.16.8.02/SDKTPLUS/HW_T2/gnu_434/lib/GRAPHICLIB.LIB(GL_Widget_SetWrap.o)
                              Obj/GNU_ARM_DEBUG_T2/Goal.o (GL_Widget_SetWrap)
C:/Program Files/TeliumSDK/SDK11.16.8.02/SDKTPLUS/HW_T2/gnu_434/lib/GRAPHICLIB.LIB(GL_Widget_UnregisterCallback.o)
                              Obj/GNU_ARM_DEBUG_T2/Goal.o (GL_Widget_UnregisterCallback)
C:/Program Files/TeliumSDK/SDK11.16.8.02/SDKTPLUS/HW_T2/gnu_434/lib/GRAPHICLIB.LIB(GL_Window_Create.o)
                              Obj/GNU_ARM_DEBUG_T2/Entry.o (GL_Window_Create)
C:/Program Files/TeliumSDK/SDK11.16.8.02/SDKTPLUS/HW_T2/gnu_434/lib/GRAPHICLIB.LIB(GL_Window_Dispatch.o)
                              Obj/GNU_ARM_DEBUG_T2/Entry.o (GL_Window_Dispatch)
C:/Program Files/TeliumSDK/SDK11.16.8.02/SDKTPLUS/HW_T2/gnu_434/lib/GRAPHICLIB.LIB(GL_Window_GetResult.o)
                              Obj/GNU_ARM_DEBUG_T2/Goal.o (GL_Window_GetResult)
C:/Program Files/TeliumSDK/SDK11.16.8.02/SDKTPLUS/HW_T2/gnu_434/lib/GRAPHICLIB.LIB(GL_Window_MainLoop.o)
                              Obj/GNU_ARM_DEBUG_T2/Goal.o (GL_Window_MainLoop)
C:/Program Files/TeliumSDK/SDK11.16.8.02/SDKTPLUS/HW_T2/gnu_434/lib/GRAPHICLIB.LIB(GL_link.o)
                              C:/Program Files/TeliumSDK/SDK11.16.8.02/SDKTPLUS/HW_T2/gnu_434/lib/GRAPHICLIB.LIB(GL_GraphicLib_Create.o) (GL_GetProcAddressWithoutExit)
C:/Program Files/TeliumSDK/SDK11.16.8.02/SDKTPLUS/HW_T2/gnu_434/lib/GRAPHICLIB.LIB(gl_asm_link.o)
                              C:/Program Files/TeliumSDK/SDK11.16.8.02/SDKTPLUS/HW_T2/gnu_434/lib/GRAPHICLIB.LIB(GL_Button_Create.o) (GL_InitFuncAndBranch)
C:/Program Files/TeliumSDK/SDK11.16.8.02/SDKTPLUS/HW_T2/gnu_434/lib/OSLAYER.LIB(OSL_Dll_Close.o)
                              C:/Program Files/TeliumSDK/SDK11.16.8.02/SDKTPLUS/HW_T2/gnu_434/lib/eft30tplus.lib(extenstp1.o) (OSL_Dll_Close)
C:/Program Files/TeliumSDK/SDK11.16.8.02/SDKTPLUS/HW_T2/gnu_434/lib/OSLAYER.LIB(OSL_Dll_GetSymbolByName.o)
                              C:/Program Files/TeliumSDK/SDK11.16.8.02/SDKTPLUS/HW_T2/gnu_434/lib/eft30tplus.lib(extenstp1.o) (OSL_Dll_GetSymbolByName)
C:/Program Files/TeliumSDK/SDK11.16.8.02/SDKTPLUS/HW_T2/gnu_434/lib/OSLAYER.LIB(OSL_Dll_Open.o)
                              C:/Program Files/TeliumSDK/SDK11.16.8.02/SDKTPLUS/HW_T2/gnu_434/lib/SECTPLUS.lib(SECLibOpenClose.o) (OSL_Dll_Open)
C:/Program Files/TeliumSDK/SDK11.16.8.02/SDKTPLUS/HW_T2/gnu_434/lib/OSLAYER.LIB(OSL_Dll_OpenByAppliType.o)
                              C:/Program Files/TeliumSDK/SDK11.16.8.02/SDKTPLUS/HW_T2/gnu_434/lib/eft30tplus.lib(extenstp1.o) (OSL_Dll_OpenByAppliType)
C:/Program Files/TeliumSDK/SDK11.16.8.02/SDKTPLUS/HW_T2/gnu_434/lib/OSLAYER.LIB(OSL_TimeStp_ElapsedMs.o)
                              Obj/GNU_ARM_DEBUG_T2/Timer.o (OSL_TimeStp_ElapsedMs)
C:/Program Files/TeliumSDK/SDK11.16.8.02/SDKTPLUS/HW_T2/gnu_434/lib/OSLAYER.LIB(OSL_TimeStp_Now.o)
                              Obj/GNU_ARM_DEBUG_T2/Timer.o (OSL_TimeStp_Now)
C:/Program Files/TeliumSDK/SDK11.16.8.02/SDKTPLUS/HW_T2/gnu_434/lib/eft30tplus.lib(Telium_ServiceCall.o)
                              C:/Program Files/TeliumSDK/SDK11.16.8.02/SDKTPLUS/HW_T2/gnu_434/lib/LinkLayerExeInterface_TPlus.lib(LinkLayerServices.o) (Telium_ServiceCall)
C:/Program Files/TeliumSDK/SDK11.16.8.02/SDKTPLUS/HW_T2/gnu_434/lib/TRAP_TELIUM_PLUS.LIB(FS_exist.o)
                              C:/Program Files/TeliumSDK/SDK11.16.8.02/SDKTPLUS/HW_T2/gnu_434/lib/FMG_TPlus.lib(VGE_FMG.o) (FS_exist)
C:/Program Files/TeliumSDK/SDK11.16.8.02/SDKTPLUS/HW_T2/gnu_434/lib/TRAP_TELIUM_PLUS.LIB(FS_rename.o)
                              C:/Program Files/TeliumSDK/SDK11.16.8.02/SDKTPLUS/HW_T2/gnu_434/lib/FMG_TPlus.lib(VGE_FMG.o) (FS_rename)
C:/Program Files/TeliumSDK/SDK11.16.8.02/SDKTPLUS/HW_T2/gnu_434/lib/TRAP_TELIUM_PLUS.LIB(FS_seek.o)
                              C:/Program Files/TeliumSDK/SDK11.16.8.02/SDKTPLUS/HW_T2/gnu_434/lib/FMG_TPlus.lib(VGE_FMG.o) (FS_seek)
C:/Program Files/TeliumSDK/SDK11.16.8.02/SDKTPLUS/HW_T2/gnu_434/lib/TRAP_TELIUM_PLUS.LIB(FS_unlink.o)
                              C:/Program Files/TeliumSDK/SDK11.16.8.02/SDKTPLUS/HW_T2/gnu_434/lib/FMG_TPlus.lib(VGE_FMG.o) (FS_unlink)
C:/Program Files/TeliumSDK/SDK11.16.8.02/SDKTPLUS/HW_T2/gnu_434/lib/TRAP_TELIUM_PLUS.LIB(FS_write.o)
                              C:/Program Files/TeliumSDK/SDK11.16.8.02/SDKTPLUS/HW_T2/gnu_434/lib/FMG_TPlus.lib(VGE_FMG.o) (FS_write)
C:/Program Files/TeliumSDK/SDK11.16.8.02/SDKTPLUS/HW_T2/gnu_434/lib/TRAP_TELIUM_PLUS.LIB(ObjectLoad.o)
                              C:/Program Files/TeliumSDK/SDK11.16.8.02/SDKTPLUS/HW_T2/gnu_434/lib/SECTPLUS.lib(SECLibOpenClose.o) (ObjectLoad)
C:/Program Files/TeliumSDK/SDK11.16.8.02/SDKTPLUS/HW_T2/gnu_434/lib/TRAP_TELIUM_PLUS.LIB(PageAlloc.o)
                              C:/Program Files/TeliumSDK/SDK11.16.8.02/SDKTPLUS/HW_T2/gnu_434/lib/FMG_TPlus.lib(VGE_FMG.o) (PageAlloc)
C:/Program Files/TeliumSDK/SDK11.16.8.02/SDKTPLUS/HW_T2/gnu_434/lib/TRAP_TELIUM_PLUS.LIB(PageFree.o)
                              C:/Program Files/TeliumSDK/SDK11.16.8.02/SDKTPLUS/HW_T2/gnu_434/lib/FMG_TPlus.lib(VGE_FMG.o) (PageFree)
C:/Program Files/TeliumSDK/SDK11.16.8.02/SDKTPLUS/HW_T2/gnu_434/lib/TRAP_TELIUM_PLUS.LIB(TMT_Retrieve_Clock.o)
                              C:/Program Files/TeliumSDK/SDK11.16.8.02/SDKTPLUS/HW_T2/gnu_434/lib/GTL_TPlus.lib(GTL_StdTimer.o) (TMT_Retrieve_Clock)
C:/Program Files/TeliumSDK/SDK11.16.8.02/SDKTPLUS/HW_T2/gnu_434/lib/TRAP_TELIUM_PLUS.LIB(upload_diagnostic_txt.o)
                              C:/Program Files/TeliumSDK/SDK11.16.8.02/SDKTPLUS/HW_T2/gnu_434/lib/LinkLayerExeInterface_TPlus.lib(LinkLayerServices.o) (upload_diagnostic_txt)
C:/Program Files/TeliumSDK/SDK11.16.8.02/SDKTPLUS/HW_T2/gnu_434/lib/XMLs_TPlus.lib(XMLs_Attributes.o)
                              C:/Program Files/TeliumSDK/SDK11.16.8.02/SDKTPLUS/HW_T2/gnu_434/lib/TlvTree_TPlus.lib(Serializer_Xml.o) (XMLs_Attributes_GetByName)
C:/Program Files/TeliumSDK/SDK11.16.8.02/SDKTPLUS/HW_T2/gnu_434/lib/XMLs_TPlus.lib(XMLs_Common.o)
                              C:/Program Files/TeliumSDK/SDK11.16.8.02/SDKTPLUS/HW_T2/gnu_434/lib/TlvTree_TPlus.lib(Serializer_Xml.o) (XMLs_Abort)
C:/Program Files/TeliumSDK/SDK11.16.8.02/SDKTPLUS/HW_T2/gnu_434/lib/XMLs_TPlus.lib(XMLs_Options.o)
                              C:/Program Files/TeliumSDK/SDK11.16.8.02/SDKTPLUS/HW_T2/gnu_434/lib/TlvTree_TPlus.lib(Serializer_Xml.o) (XMLs_SetOption)
C:/Program Files/TeliumSDK/SDK11.16.8.02/SDKTPLUS/HW_T2/gnu_434/lib/XMLs_TPlus.lib(XMLs_ProcessData.o)
                              C:/Program Files/TeliumSDK/SDK11.16.8.02/SDKTPLUS/HW_T2/gnu_434/lib/TlvTree_TPlus.lib(Serializer_Xml.o) (XMLs_ProcessData)
C:/Program Files/TeliumSDK/SDK11.16.8.02/SDKTPLUS/HW_T2/gnu_434/lib/XMLs_TPlus.lib(XMLs.o)
                              C:/Program Files/TeliumSDK/SDK11.16.8.02/SDKTPLUS/HW_T2/gnu_434/lib/TlvTree_TPlus.lib(Serializer_Xml.o) (XMLs_ParseBuffer)
C:/Program Files/TeliumSDK/SDK11.16.8.02/SDKTPLUS/HW_T2/gnu_434/lib/XMLs_TPlus.lib(XMLs_Buffer.o)
                              C:/Program Files/TeliumSDK/SDK11.16.8.02/SDKTPLUS/HW_T2/gnu_434/lib/XMLs_TPlus.lib(XMLs.o) (XMLs_Buffer_New)
C:/Program Files/TeliumSDK/SDK11.16.8.02/SDKTPLUS/HW_T2/gnu_434/lib/XMLs_TPlus.lib(XMLs_Parser.o)
                              C:/Program Files/TeliumSDK/SDK11.16.8.02/SDKTPLUS/HW_T2/gnu_434/lib/XMLs_TPlus.lib(XMLs.o) (XMLs_Attributes_Close)
C:/Program Files/TeliumSDK/SDK11.16.8.02/SDKTPLUS/HW_T2/gnu_434/lib/XMLs_TPlus.lib(XMLs_Stream.o)
                              C:/Program Files/TeliumSDK/SDK11.16.8.02/SDKTPLUS/HW_T2/gnu_434/lib/XMLs_TPlus.lib(XMLs.o) (XMLs_STREAM_Destroy)
E:/IngeDev_8.18.0.5/toolchains/gnuArm4/arm-elf/lib/thumb/soft/interwork/libc.a(lib_a-memcmp.o)
                              Obj/GNU_ARM_DEBUG_T2/ComGPRS.o (memcmp)
E:/IngeDev_8.18.0.5/toolchains/gnuArm4/arm-elf/lib/thumb/soft/interwork/libc.a(lib_a-memcpy.o)
                              Obj/GNU_ARM_DEBUG_T2/Entry.o (memcpy)
E:/IngeDev_8.18.0.5/toolchains/gnuArm4/arm-elf/lib/thumb/soft/interwork/libc.a(lib_a-memmove.o)
                              Obj/GNU_ARM_DEBUG_T2/globals.o (memmove)
E:/IngeDev_8.18.0.5/toolchains/gnuArm4/arm-elf/lib/thumb/soft/interwork/libc.a(lib_a-memset.o)
                              C:/Program Files/TeliumSDK/SDK11.16.8.02/SDKTPLUS/HW_T2/gnu_434/startfiles/libcpatch.o (memset)
E:/IngeDev_8.18.0.5/toolchains/gnuArm4/arm-elf/lib/thumb/soft/interwork/libc.a(lib_a-strcasecmp.o)
                              C:/Program Files/TeliumSDK/SDK11.16.8.02/SDKTPLUS/HW_T2/gnu_434/lib/XMLs_TPlus.lib(XMLs_ProcessData.o) (strcasecmp)
E:/IngeDev_8.18.0.5/toolchains/gnuArm4/arm-elf/lib/thumb/soft/interwork/libc.a(lib_a-strcat.o)
                              Obj/GNU_ARM_DEBUG_T2/ComGPRS.o (strcat)
E:/IngeDev_8.18.0.5/toolchains/gnuArm4/arm-elf/lib/thumb/soft/interwork/libc.a(lib_a-strchr.o)
                              Obj/GNU_ARM_DEBUG_T2/Entry.o (strchr)
E:/IngeDev_8.18.0.5/toolchains/gnuArm4/arm-elf/lib/thumb/soft/interwork/libc.a(lib_a-strcmp.o)
                              Obj/GNU_ARM_DEBUG_T2/Entry.o (strcmp)
E:/IngeDev_8.18.0.5/toolchains/gnuArm4/arm-elf/lib/thumb/soft/interwork/libc.a(lib_a-strcpy.o)
                              Obj/GNU_ARM_DEBUG_T2/Entry.o (strcpy)
E:/IngeDev_8.18.0.5/toolchains/gnuArm4/arm-elf/lib/thumb/soft/interwork/libc.a(lib_a-strlen.o)
                              Obj/GNU_ARM_DEBUG_T2/ComGPRS.o (strlen)
E:/IngeDev_8.18.0.5/toolchains/gnuArm4/arm-elf/lib/thumb/soft/interwork/libc.a(lib_a-strncpy.o)
                              Obj/GNU_ARM_DEBUG_T2/Entry.o (strncpy)
E:/IngeDev_8.18.0.5/toolchains/gnuArm4/arm-elf/lib/thumb/soft/interwork/libc.a(lib_a-strrchr.o)
                              Obj/GNU_ARM_DEBUG_T2/globals.o (strrchr)
E:/IngeDev_8.18.0.5/toolchains/gnuArm4/arm-elf/lib/thumb/soft/interwork/libc.a(lib_a-strtoul.o)
                              C:/Program Files/TeliumSDK/SDK11.16.8.02/SDKTPLUS/HW_T2/gnu_434/lib/TlvTree_TPlus.lib(Serializer_Xml.o) (strtoul)
E:/IngeDev_8.18.0.5/toolchains/gnuArm4/arm-elf/lib/thumb/soft/interwork/libc.a(lib_a-ctype_.o)
                              E:/IngeDev_8.18.0.5/toolchains/gnuArm4/arm-elf/lib/thumb/soft/interwork/libc.a(lib_a-strcasecmp.o) (__ctype_ptr__)
E:/IngeDev_8.18.0.5/toolchains/gnuArm4/arm-elf/lib/thumb/soft/interwork/libc.a(lib_a-impure.o)
                              E:/IngeDev_8.18.0.5/toolchains/gnuArm4/arm-elf/lib/thumb/soft/interwork/libc.a(lib_a-strtoul.o) (_impure_ptr)
E:/IngeDev_8.18.0.5/toolchains/gnuArm4/lib/gcc/arm-elf/4.3.4/thumb/soft/interwork/libgcc.a(_udivsi3.o)
                              Obj/GNU_ARM_DEBUG_T2/globals.o (__udivsi3)
E:/IngeDev_8.18.0.5/toolchains/gnuArm4/lib/gcc/arm-elf/4.3.4/thumb/soft/interwork/libgcc.a(_divsi3.o)
                              Obj/GNU_ARM_DEBUG_T2/Timer.o (__divsi3)
E:/IngeDev_8.18.0.5/toolchains/gnuArm4/lib/gcc/arm-elf/4.3.4/thumb/soft/interwork/libgcc.a(_umodsi3.o)
                              Obj/GNU_ARM_DEBUG_T2/globals.o (__umodsi3)
E:/IngeDev_8.18.0.5/toolchains/gnuArm4/lib/gcc/arm-elf/4.3.4/thumb/soft/interwork/libgcc.a(_modsi3.o)
                              Obj/GNU_ARM_DEBUG_T2/Timer.o (__modsi3)
E:/IngeDev_8.18.0.5/toolchains/gnuArm4/lib/gcc/arm-elf/4.3.4/thumb/soft/interwork/libgcc.a(_dvmd_tls.o)
                              E:/IngeDev_8.18.0.5/toolchains/gnuArm4/lib/gcc/arm-elf/4.3.4/thumb/soft/interwork/libgcc.a(_udivsi3.o) (__div0)

Allocating common symbols
Common symbol       size              file

isoField018         0x5               Obj/GNU_ARM_DEBUG_T2/Mapapp.o
isoField053         0x11              Obj/GNU_ARM_DEBUG_T2/Mapapp.o
isoField107         0x3e8             Obj/GNU_ARM_DEBUG_T2/Mapapp.o
isoField045         0xa               Obj/GNU_ARM_DEBUG_T2/Mapapp.o
isoField098         0x3e8             Obj/GNU_ARM_DEBUG_T2/Mapapp.o
isoField011         0x7               Obj/GNU_ARM_DEBUG_T2/Mapapp.o
billerReceipt       0x3e8             Obj/GNU_ARM_DEBUG_T2/Mapapp.o
isoField128         0x3e8             Obj/GNU_ARM_DEBUG_T2/Mapapp.o
isoField061         0x64              Obj/GNU_ARM_DEBUG_T2/Mapapp.o
isoField065         0x3e8             Obj/GNU_ARM_DEBUG_T2/Mapapp.o
isoField048         0x3e8             Obj/GNU_ARM_DEBUG_T2/Mapapp.o
isoField111         0x3e8             Obj/GNU_ARM_DEBUG_T2/Mapapp.o
isoField094         0x3e8             Obj/GNU_ARM_DEBUG_T2/Mapapp.o
isoField029         0xa               Obj/GNU_ARM_DEBUG_T2/Mapapp.o
isoField016         0x5               Obj/GNU_ARM_DEBUG_T2/Mapapp.o
isoField063         0x3e8             Obj/GNU_ARM_DEBUG_T2/Mapapp.o
sSavedStatusLeds    0x4               Obj/GNU_ARM_DEBUG_T2/Menu.o
isoField060         0x64              Obj/GNU_ARM_DEBUG_T2/Mapapp.o
isoField055         0x201             Obj/GNU_ARM_DEBUG_T2/Mapapp.o
isoField106         0x3e8             Obj/GNU_ARM_DEBUG_T2/Mapapp.o
isoField037         0x19              Obj/GNU_ARM_DEBUG_T2/Mapapp.o
isoField126         0x3e8             Obj/GNU_ARM_DEBUG_T2/Mapapp.o
isoField073         0x3e8             Obj/GNU_ARM_DEBUG_T2/Mapapp.o
isoField031         0xa               Obj/GNU_ARM_DEBUG_T2/Mapapp.o
isoField075         0x3e8             Obj/GNU_ARM_DEBUG_T2/Mapapp.o
isoField006         0x4               Obj/GNU_ARM_DEBUG_T2/Mapapp.o
isoField082         0x3e8             Obj/GNU_ARM_DEBUG_T2/Mapapp.o
isoField086         0x3e8             Obj/GNU_ARM_DEBUG_T2/Mapapp.o
isoField032         0x64              Obj/GNU_ARM_DEBUG_T2/Mapapp.o
isoMnuItm           0x13              Obj/GNU_ARM_DEBUG_T2/Mapapp.o
beg                 0x4               Obj/GNU_ARM_DEBUG_T2/globals.o
billerRef           0x3e8             Obj/GNU_ARM_DEBUG_T2/Mapapp.o
isoField025         0x3               Obj/GNU_ARM_DEBUG_T2/Mapapp.o
isoField123         0x3e8             Obj/GNU_ARM_DEBUG_T2/Mapapp.o
isoField109         0x3e8             Obj/GNU_ARM_DEBUG_T2/Mapapp.o
isoField049         0xd               Obj/GNU_ARM_DEBUG_T2/Mapapp.o
isoField043         0x51              Obj/GNU_ARM_DEBUG_T2/Mapapp.o
isoField091         0x3e8             Obj/GNU_ARM_DEBUG_T2/Mapapp.o
isoField104         0x3e8             Obj/GNU_ARM_DEBUG_T2/Mapapp.o
isoField101         0x3e8             Obj/GNU_ARM_DEBUG_T2/Mapapp.o
isoField084         0x3e8             Obj/GNU_ARM_DEBUG_T2/Mapapp.o
isoField047         0x3e8             Obj/GNU_ARM_DEBUG_T2/Mapapp.o
isoField004         0xd               Obj/GNU_ARM_DEBUG_T2/Mapapp.o
isoField113         0x3e8             Obj/GNU_ARM_DEBUG_T2/Mapapp.o
isoField125         0x3e8             Obj/GNU_ARM_DEBUG_T2/Mapapp.o
isoField071         0x3e8             Obj/GNU_ARM_DEBUG_T2/Mapapp.o
isoField079         0x3e8             Obj/GNU_ARM_DEBUG_T2/Mapapp.o
isoField121         0x3e8             Obj/GNU_ARM_DEBUG_T2/Mapapp.o
isoField041         0x9               Obj/GNU_ARM_DEBUG_T2/Mapapp.o
isoField092         0x3e8             Obj/GNU_ARM_DEBUG_T2/Mapapp.o
isoField013         0x5               Obj/GNU_ARM_DEBUG_T2/Mapapp.o
isoField008         0x9               Obj/GNU_ARM_DEBUG_T2/Mapapp.o
isoField038         0xd               Obj/GNU_ARM_DEBUG_T2/Mapapp.o
isoField014         0x5               Obj/GNU_ARM_DEBUG_T2/Mapapp.o
isoField085         0x3e8             Obj/GNU_ARM_DEBUG_T2/Mapapp.o
isoField076         0x3e8             Obj/GNU_ARM_DEBUG_T2/Mapapp.o
isoField024         0x5               Obj/GNU_ARM_DEBUG_T2/Mapapp.o
isoField124         0x3e8             Obj/GNU_ARM_DEBUG_T2/Mapapp.o
isoField087         0x3e8             Obj/GNU_ARM_DEBUG_T2/Mapapp.o
isoField042         0x1f              Obj/GNU_ARM_DEBUG_T2/Mapapp.o
isoField000         0x7               Obj/GNU_ARM_DEBUG_T2/Mapapp.o
isoField039         0x5               Obj/GNU_ARM_DEBUG_T2/Mapapp.o
isoField007         0xf               Obj/GNU_ARM_DEBUG_T2/Mapapp.o
isoField119         0x3e8             Obj/GNU_ARM_DEBUG_T2/Mapapp.o
isoField044         0xa               Obj/GNU_ARM_DEBUG_T2/Mapapp.o
isoField070         0x3e8             Obj/GNU_ARM_DEBUG_T2/Mapapp.o
isoField069         0x3e8             Obj/GNU_ARM_DEBUG_T2/Mapapp.o
isoDrCr             0x2               Obj/GNU_ARM_DEBUG_T2/Mapapp.o
isoField022         0x5               Obj/GNU_ARM_DEBUG_T2/Mapapp.o
isoField057         0x64              Obj/GNU_ARM_DEBUG_T2/Mapapp.o
isoField100         0x3e8             Obj/GNU_ARM_DEBUG_T2/Mapapp.o
isoField026         0x3               Obj/GNU_ARM_DEBUG_T2/Mapapp.o
isoField012         0x7               Obj/GNU_ARM_DEBUG_T2/Mapapp.o
isoField127         0x3e8             Obj/GNU_ARM_DEBUG_T2/Mapapp.o
isoField090         0x3e8             Obj/GNU_ARM_DEBUG_T2/Mapapp.o
isoField023         0x5               Obj/GNU_ARM_DEBUG_T2/Mapapp.o
isoField068         0x3e8             Obj/GNU_ARM_DEBUG_T2/Mapapp.o
isoField054         0x3e8             Obj/GNU_ARM_DEBUG_T2/Mapapp.o
isoField117         0x3e8             Obj/GNU_ARM_DEBUG_T2/Mapapp.o
hostGateway         0x2               Obj/GNU_ARM_DEBUG_T2/Mapapp.o
isoField072         0x3e8             Obj/GNU_ARM_DEBUG_T2/Mapapp.o
isoField099         0x3e8             Obj/GNU_ARM_DEBUG_T2/Mapapp.o
isoField064         0x9               Obj/GNU_ARM_DEBUG_T2/Mapapp.o
isoField017         0x5               Obj/GNU_ARM_DEBUG_T2/Mapapp.o
isoField108         0x3e8             Obj/GNU_ARM_DEBUG_T2/Mapapp.o
isoField093         0x3e8             Obj/GNU_ARM_DEBUG_T2/Mapapp.o
isoField020         0x4               Obj/GNU_ARM_DEBUG_T2/Mapapp.o
isoField066         0x3e8             Obj/GNU_ARM_DEBUG_T2/Mapapp.o
isoField102         0x3e8             Obj/GNU_ARM_DEBUG_T2/Mapapp.o
invoiceNo           0x7               Obj/GNU_ARM_DEBUG_T2/Mapapp.o
isoField074         0x3e8             Obj/GNU_ARM_DEBUG_T2/Mapapp.o
isoField120         0x3e8             Obj/GNU_ARM_DEBUG_T2/Mapapp.o
isoField058         0x64              Obj/GNU_ARM_DEBUG_T2/Mapapp.o
sSavedStatusFooter  0x4               Obj/GNU_ARM_DEBUG_T2/Menu.o
sSavedStatusHeader  0x4               Obj/GNU_ARM_DEBUG_T2/Menu.o
isoField122         0x3e8             Obj/GNU_ARM_DEBUG_T2/Mapapp.o
isoField059         0x64              Obj/GNU_ARM_DEBUG_T2/Mapapp.o
isoField056         0x64              Obj/GNU_ARM_DEBUG_T2/Mapapp.o
isoField010         0x9               Obj/GNU_ARM_DEBUG_T2/Mapapp.o
isoField015         0x7               Obj/GNU_ARM_DEBUG_T2/Mapapp.o
isoField083         0x3e8             Obj/GNU_ARM_DEBUG_T2/Mapapp.o
isoField080         0x3e8             Obj/GNU_ARM_DEBUG_T2/Mapapp.o
isoField040         0x7               Obj/GNU_ARM_DEBUG_T2/Mapapp.o
isoField116         0x3e8             Obj/GNU_ARM_DEBUG_T2/Mapapp.o
isoField030         0xa               Obj/GNU_ARM_DEBUG_T2/Mapapp.o
orgMnuItm           0x2               Obj/GNU_ARM_DEBUG_T2/Mapapp.o
isoField095         0x3e8             Obj/GNU_ARM_DEBUG_T2/Mapapp.o
isoField005         0xd               Obj/GNU_ARM_DEBUG_T2/Mapapp.o
isoField089         0x3e8             Obj/GNU_ARM_DEBUG_T2/Mapapp.o
g_sFileManagement   0xe14             C:/Program Files/TeliumSDK/SDK11.16.8.02/SDKTPLUS/HW_T2/gnu_434/lib/FMG_TPlus.lib(VGE_FMG.o)
isoField050         0x5               Obj/GNU_ARM_DEBUG_T2/Mapapp.o
LoggedInUser        0x3e8             Obj/GNU_ARM_DEBUG_T2/Mapapp.o
isoField105         0x3e8             Obj/GNU_ARM_DEBUG_T2/Mapapp.o
st_hdll             0x4               C:/Program Files/TeliumSDK/SDK11.16.8.02/SDKTPLUS/HW_T2/gnu_434/lib/SECTPLUS.lib(SECLibOpenClose.o)
isoField046         0x64              Obj/GNU_ARM_DEBUG_T2/Mapapp.o
isoField002         0x64              Obj/GNU_ARM_DEBUG_T2/Mapapp.o
isoField027         0x3               Obj/GNU_ARM_DEBUG_T2/Mapapp.o
isoField021         0x4               Obj/GNU_ARM_DEBUG_T2/Mapapp.o
isoField067         0x3e8             Obj/GNU_ARM_DEBUG_T2/Mapapp.o
isoField052         0x11              Obj/GNU_ARM_DEBUG_T2/Mapapp.o
isoField035         0x64              Obj/GNU_ARM_DEBUG_T2/Mapapp.o
isoField097         0x3e8             Obj/GNU_ARM_DEBUG_T2/Mapapp.o
BillerPayerName     0x3e8             Obj/GNU_ARM_DEBUG_T2/Mapapp.o
isoField114         0x3e8             Obj/GNU_ARM_DEBUG_T2/Mapapp.o
isoField028         0xa               Obj/GNU_ARM_DEBUG_T2/Mapapp.o
isoField062         0x803             Obj/GNU_ARM_DEBUG_T2/Mapapp.o
isoField110         0x3e8             Obj/GNU_ARM_DEBUG_T2/Mapapp.o
isoField078         0x3e8             Obj/GNU_ARM_DEBUG_T2/Mapapp.o
isoField036         0x64              Obj/GNU_ARM_DEBUG_T2/Mapapp.o
isoField033         0xa               Obj/GNU_ARM_DEBUG_T2/Mapapp.o
isoField112         0x3e8             Obj/GNU_ARM_DEBUG_T2/Mapapp.o
isoField019         0x4               Obj/GNU_ARM_DEBUG_T2/Mapapp.o
isoField103         0x3e8             Obj/GNU_ARM_DEBUG_T2/Mapapp.o
isoField001         0x64              Obj/GNU_ARM_DEBUG_T2/Mapapp.o
BillerServiceName   0x3e8             Obj/GNU_ARM_DEBUG_T2/Mapapp.o
isoField081         0x3e8             Obj/GNU_ARM_DEBUG_T2/Mapapp.o
isoField118         0x3e8             Obj/GNU_ARM_DEBUG_T2/Mapapp.o
isoField003         0x7               Obj/GNU_ARM_DEBUG_T2/Mapapp.o
isoField088         0x3e8             Obj/GNU_ARM_DEBUG_T2/Mapapp.o
isoField034         0xa               Obj/GNU_ARM_DEBUG_T2/Mapapp.o
isoField077         0x3e8             Obj/GNU_ARM_DEBUG_T2/Mapapp.o
isoField051         0x5               Obj/GNU_ARM_DEBUG_T2/Mapapp.o
isoField009         0x9               Obj/GNU_ARM_DEBUG_T2/Mapapp.o
isoField096         0x3e8             Obj/GNU_ARM_DEBUG_T2/Mapapp.o
isoField115         0x3e8             Obj/GNU_ARM_DEBUG_T2/Mapapp.o

Memory Configuration

Name             Origin             Length             Attributes
*default*        0x00000000         0xffffffff

Linker script and memory map

                0x00000000                . = 0x0
                0x00000000                __text_start = .

.text           0x00000000    0x1ac8c
 *(.first)
 .first         0x00000000       0x8c C:/Program Files/TeliumSDK/SDK11.16.8.02/SDKTPLUS/HW_T2/gnu_434/startfiles/cstartupTplus.o
                0x00000000                _start
 *(.text .text.*)
 .text          0x0000008c      0x104 C:/Program Files/TeliumSDK/SDK11.16.8.02/SDKTPLUS/HW_T2/gnu_434/startfiles/cstartupTplus.o
                0x0000013c                __stack_chk_fail
 .text          0x00000190       0xc0 C:/Program Files/TeliumSDK/SDK11.16.8.02/SDKTPLUS/HW_T2/gnu_434/startfiles/libcpatch.o
                0x00000190                _calloc_r
                0x000001e0                _free_r
                0x000001fc                _malloc_r
                0x00000224                _realloc_r
 .text          0x00000250      0x290 Obj/GNU_ARM_DEBUG_T2/Main.o
                0x00000250                Main
 .text          0x000004e0     0x11a8 Obj/GNU_ARM_DEBUG_T2/Entry.o
                0x00000520                give_your_domain
                0x00000584                after_reset
                0x00000898                is_name
                0x00000934                is_state
                0x0000098c                idle_message
                0x00000a58                more_function
                0x00000a8c                keyboard_event
                0x00000af8                state
                0x00000bdc                consult
                0x00000c90                mcall
                0x00000d44                is_time_function
                0x00000d9c                time_function
                0x00000df8                is_change_init
                0x00000e88                modif_param
                0x00000f14                is_evol_pg
                0x00000f6c                is_delete
                0x00000fa4                file_received
                0x00001124                message_received
                0x000011dc                is_card_specific
                0x00001234                card_inside
                0x00001288                is_for_you_after
                0x00001428                debit_non_emv
                0x00001580                give_interface
                0x000015e4                entry
 .text          0x00001688      0x3e0 Obj/GNU_ARM_DEBUG_T2/Menu.o
                0x00001688                menuGoalDisplay
                0x000017f0                initUIContext
                0x0000191c                releaseUIContext
                0x000019d8                ResetPeripherals
 .text          0x00001a68     0x20c4 Obj/GNU_ARM_DEBUG_T2/ComGPRS.o
                0x00002aa8                PromptGPRS
                0x00003118                ComGPRS
 .text          0x00003b2c     0x29e0 Obj/GNU_ARM_DEBUG_T2/Goal.o
                0x00003c8c                GoalCreateScreen
                0x0000409c                GoalClrScreen
                0x000042d0                GoalRefreshScreen
                0x00004300                GoalDspLine
                0x00004774                GoalDspMultiLine
                0x00004958                GoalGetKey
                0x00004cd0                GoalDestroyScreen
                0x00004d04                GoalCreateDrawing
                0x00004f34                GoalClrDrawing
                0x00005068                GoalDrawLine
                0x000051f8                GoalDrawRect
                0x0000539c                GoalDrawEllipse
                0x00005540                GoalDrawText
                0x00005728                GoalDestroyDrawing
                0x0000575c                GoalCreatePicture
                0x000059b8                GoalClrPicture
                0x00005b38                GoalDspPicture
                0x00005e74                GoalDestroyPicture
                0x00005ea8                GoalCreateDocument
                0x00005f2c                GoalPrnLine
                0x0000616c                GoalPrnMultiLine
                0x000063bc                GoalPrnPicture
                0x0000647c                GoalPrnDocument
                0x000064d8                GoalDestroyDocument
 .text          0x0000650c      0x3b4 Obj/GNU_ARM_DEBUG_T2/Mapapp.o
                0x0000650c                getAppCmpDat
                0x00006538                getAppCmpTim
                0x00006564                appLen
                0x000065c4                appReset
                0x00006718                appPut
                0x000067e4                appGet
 .text          0x000068c0      0x9e0 Obj/GNU_ARM_DEBUG_T2/FMG.o
                0x000068c0                FMGCreateBatch
                0x000069a4                FMGDeleteBatch
                0x00006b1c                FMGAddDelTransactions
                0x00006f10                FMGReadTransactions
 .text          0x000072a0     0x1168 Obj/GNU_ARM_DEBUG_T2/Utility.o
                0x000072a0                FMG_ErrorMsg
                0x000073c0                LL_ErrorMsg
                0x00007a80                SEC_ErrorMsg
                0x00007cc4                OpenConverter
                0x00007ee8                SetParity
                0x0000801c                CheckParity
                0x0000812c                parseStr
                0x000081ac                UintToIp
                0x00008238                IpToUint
                0x00008350                ParamExist
                0x000083b8                AppliExist
 .text          0x00008408      0x3a0 Obj/GNU_ARM_DEBUG_T2/Timer.o
                0x00008408                TimerStart
                0x000084f8                TimerGet
                0x00008590                TimerStop
                0x000085e8                Timer
 .text          0x000087a8       0x78 Obj/GNU_ARM_DEBUG_T2/iso8583.o
                0x000087a8                isoFmt
                0x000087e4                isoFmt_Gateway
 .text          0x00008820      0xbe8 Obj/GNU_ARM_DEBUG_T2/transaction.o
                0x00008d38                getLen_
                0x00008dd0                getLen_fmt
                0x000090b4                reqBuild
                0x0000931c                doTransaction
 .text          0x00009408     0x4bf8 Obj/GNU_ARM_DEBUG_T2/globals.o
                0x00009408                bPtr
                0x00009440                wPtr
                0x00009478                cPtr
                0x000094ac                dPtr
                0x00009534                num2dec
                0x000096e4                dec2num
                0x00009828                num2hex
                0x00009944                hex2num
                0x00009a68                bin2hex
                0x00009b0c                hex2bin
                0x00009bf0                Hex2Text
                0x00009d2c                bin2num
                0x00009dac                num2bin
                0x00009e2c                tmrStart
                0x00009e9c                tmrGet
                0x00009f08                tmrStop
                0x00009f50                tmrPause
                0x00009f9c                bufReset
                0x00009fd8                bufInit
                0x0000a020                bufDim
                0x0000a04c                bufPtr
                0x0000a078                bufLen
                0x0000a0a4                bufSet
                0x0000a12c                bufIns
                0x0000a240                bufOwr
                0x0000a2dc                bufDel
                0x0000a37c                bufApp
                0x0000a3c8                bufCat
                0x0000a424                bufCpy
                0x0000a470                bufGet
                0x0000a4b4                queReset
                0x0000a4f8                queInit
                0x0000a52c                quePut
                0x0000a628                queNxt
                0x0000a6ac                queGet
                0x0000a75c                queLen
                0x0000a788                queRewind
                0x0000a7bc                quePutTag
                0x0000a810                quePutTlv
                0x0000a8b0                queGetTag
                0x0000a8fc                queGetTlv
                0x0000a95c                queFindTlv
                0x0000a9ec                queMergeTlv
                0x0000ab0c                bitOn
                0x0000ab80                bitOff
                0x0000abfc                bitTest
                0x0000ac68                tbxParity
                0x0000ad90                tbxCheckParity
                0x0000aea8                fmtSbs
                0x0000af14                fmtTok
                0x0000afa8                fmtPad
                0x0000b06c                fmtCnt
                0x0000b230                fmtIns
                0x0000b348                fmtAmt
                0x0000b588                fmtMut
                0x0000b6cc                fmtDel
                0x0000b7c4                fmtTcp
                0x0000b850                fmtDate
                0x0000b8e0                fmtTime
                0x0000b970                isSorted
                0x0000bd68                addStr
                0x0000be04                subStr
                0x0000bea8                stdPow
                0x0000bef4                stdLrc
                0x0000bf58                trk2Lrc
                0x0000bff0                stdGetAcc
                0x0000c0a0                stdLuhnCheck
                0x0000c1f4                stdArgMsgCrc16
                0x0000c278                stdCrc16
                0x0000c380                xor
                0x0000c3ec                stdParity
                0x0000ca5c                stdDES
                0x0000ca98                stdSED
                0x0000cad4                stdEDE
                0x0000cb34                stdDED
                0x0000cc0c                hashJerkinsBin
                0x0000ccd0                bmpWdt
                0x0000cd14                bmpHgt
                0x0000cd58                bmpDat
                0x0000cd84                Radix64Encode
                0x0000ceb4                Radix64Decode
                0x0000d1b4                BaseToDec
                0x0000d288                stdOWF
                0x0000d51c                ts2dt
                0x0000d618                dt2ts
                0x0000d738                count_chars
                0x0000d7a0                begKey
                0x0000d7f4                mapGet
                0x0000d87c                mapDatLen
                0x0000d8f0                mapPut
                0x0000da68                getDateTime
                0x0000dd0c                strFormatDatTim
                0x0000ddf4                message_RemoveCard
                0x0000dee8                strtouppercase
                0x0000df54                kbdKey
                0x0000dfb4                basename
 .text          0x0000e000      0x5ac Obj/GNU_ARM_DEBUG_T2/magnetic.o
                0x0000e000                IsoError
                0x0000e0c8                Magnetic
 .text          0x0000e5ac     0x2550 Obj/GNU_ARM_DEBUG_T2/schemes.o
                0x0000e8b0                GetPpdDisplay
                0x0000eff0                SetConfig
                0x0000f2a8                GetConfig
                0x0000fc50                CreateSecret
                0x0000fdb4                FreeSecret
                0x0000fe98                LoadIso9564Key
                0x0000fff0                LoadMacKey
                0x000101b8                Iso9564PinEntry
                0x00010638                MacCalculation
                0x00010ac0                LoadKeysAuto
 .text          0x00010afc       0xe4 Obj/GNU_ARM_DEBUG_T2/amount.o
                0x00010afc                amount
 .text          0x00010be0      0xc24 Obj/GNU_ARM_DEBUG_T2/printer.o
                0x00010be0                PrintDocument
 .text          0x00011804       0x60 C:/Program Files/TeliumSDK/SDK11.16.8.02/SDKTPLUS/HW_T2/gnu_434/lib/eft30tplus.lib(DLLExist.o)
                0x00011810                DLLExist
 .text          0x00011864       0x60 C:/Program Files/TeliumSDK/SDK11.16.8.02/SDKTPLUS/HW_T2/gnu_434/lib/eft30tplus.lib(d_tolong.o)
                0x00011870                d_tolong
 .text          0x000118c4       0x5c C:/Program Files/TeliumSDK/SDK11.16.8.02/SDKTPLUS/HW_T2/gnu_434/lib/eft30tplus.lib(stdcam0.o)
                0x000118cc                stdcam0
 .text          0x00011920       0x74 C:/Program Files/TeliumSDK/SDK11.16.8.02/SDKTPLUS/HW_T2/gnu_434/lib/eft30tplus.lib(extenstp1.o)
                0x00011920                extenslib_close
                0x00011934                extenslib_open
                0x00011970                GetProcAddressExtens
 .text          0x00011994       0x5c C:/Program Files/TeliumSDK/SDK11.16.8.02/SDKTPLUS/HW_T2/gnu_434/lib/eft30tplus.lib(DisplayFooter.o)
                0x000119a4                DisplayFooter
 .text          0x000119f0       0x5c C:/Program Files/TeliumSDK/SDK11.16.8.02/SDKTPLUS/HW_T2/gnu_434/lib/eft30tplus.lib(DisplayHeader.o)
                0x00011a00                DisplayHeader
 .text          0x00011a4c       0x58 C:/Program Files/TeliumSDK/SDK11.16.8.02/SDKTPLUS/HW_T2/gnu_434/lib/eft30tplus.lib(DisplayLeds.o)
                0x00011a58                DisplayLeds
 .text          0x00011aa4       0x54 C:/Program Files/TeliumSDK/SDK11.16.8.02/SDKTPLUS/HW_T2/gnu_434/lib/eft30tplus.lib(IsFooter.o)
                0x00011ab0                IsFooter
 .text          0x00011af8       0x5c C:/Program Files/TeliumSDK/SDK11.16.8.02/SDKTPLUS/HW_T2/gnu_434/lib/eft30tplus.lib(IsHeader.o)
                0x00011b0c                IsHeader
 .text          0x00011b54       0x64 C:/Program Files/TeliumSDK/SDK11.16.8.02/SDKTPLUS/HW_T2/gnu_434/lib/eft30tplus.lib(DrawExtendedString.o)
                0x00011b68                DrawExtendedString
 .text          0x00011bb8       0x5c C:/Program Files/TeliumSDK/SDK11.16.8.02/SDKTPLUS/HW_T2/gnu_434/lib/eft30tplus.lib(InitContexteGraphique.o)
                0x00011bd0                InitContexteGraphique
 .text          0x00011c14       0x58 C:/Program Files/TeliumSDK/SDK11.16.8.02/SDKTPLUS/HW_T2/gnu_434/lib/eft30tplus.lib(PaintGraphics.o)
                0x00011c24                PaintGraphics
 .text          0x00011c6c       0x64 C:/Program Files/TeliumSDK/SDK11.16.8.02/SDKTPLUS/HW_T2/gnu_434/lib/eft30tplus.lib(_DrawExtendedString.o)
                0x00011c80                _DrawExtendedString
 .text          0x00011cd0       0x74 C:/Program Files/TeliumSDK/SDK11.16.8.02/SDKTPLUS/HW_T2/gnu_434/lib/eft30tplus.lib(libgrtp1.o)
                0x00011cd0                libgrlib_close
                0x00011ce4                libgrlib_open
                0x00011d20                GetProcAddressLibgr
 .text          0x00011d44       0x64 C:/Program Files/TeliumSDK/SDK11.16.8.02/SDKTPLUS/HW_T2/gnu_434/lib/eft30tplus.lib(PSQ_Est_pinpad.o)
                0x00011d54                PSQ_Est_pinpad
 .text          0x00011da8       0x6c C:/Program Files/TeliumSDK/SDK11.16.8.02/SDKTPLUS/HW_T2/gnu_434/lib/eft30tplus.lib(PSQ_donner_type_pinpad.o)
                0x00011dc0                PSQ_donner_type_pinpad
 .text          0x00011e14       0x74 C:/Program Files/TeliumSDK/SDK11.16.8.02/SDKTPLUS/HW_T2/gnu_434/lib/eft30tplus.lib(paramtp1.o)
                0x00011e14                paramlib_close
                0x00011e28                paramlib_open
                0x00011e64                GetProcAddressParam
 .text          0x00011e88       0x64 C:/Program Files/TeliumSDK/SDK11.16.8.02/SDKTPLUS/HW_T2/gnu_434/lib/eft30tplus.lib(IsPPSConnected.o)
                0x00011e98                IsPPSConnected
 .text          0x00011eec       0x74 C:/Program Files/TeliumSDK/SDK11.16.8.02/SDKTPLUS/HW_T2/gnu_434/lib/eft30tplus.lib(PPS_SendTerminalRefRequestCommand.o)
                0x00011f0c                PPS_SendTerminalRefRequestCommand
 .text          0x00011f60       0x60 C:/Program Files/TeliumSDK/SDK11.16.8.02/SDKTPLUS/HW_T2/gnu_434/lib/eft30tplus.lib(PPS_firstline.o)
                0x00011f70                PPS_firstline
 .text          0x00011fc0       0x5c C:/Program Files/TeliumSDK/SDK11.16.8.02/SDKTPLUS/HW_T2/gnu_434/lib/eft30tplus.lib(PPS_newline.o)
                0x00011fcc                PPS_newline
 .text          0x0001201c       0x74 C:/Program Files/TeliumSDK/SDK11.16.8.02/SDKTPLUS/HW_T2/gnu_434/lib/eft30tplus.lib(pinpadtp1.o)
                0x0001201c                pinpadlib_close
                0x00012030                pinpadlib_open
                0x0001206c                GetProcAddressPinpad
 .text          0x00012090       0x68 C:/Program Files/TeliumSDK/SDK11.16.8.02/SDKTPLUS/HW_T2/gnu_434/lib/eft30tplus.lib(PPS_Display.o)
                0x000120a4                PPS_Display
 .text          0x000120f8       0x60 C:/Program Files/TeliumSDK/SDK11.16.8.02/SDKTPLUS/HW_T2/gnu_434/lib/eft30tplus.lib(Telium_Read_date.o)
                0x0001210c                Telium_Read_date
 .text          0x00012158       0x60 C:/Program Files/TeliumSDK/SDK11.16.8.02/SDKTPLUS/HW_T2/gnu_434/lib/eft30tplus.lib(BoosterType.o)
                0x00012164                BoosterType
 .text          0x000121b8       0x64 C:/Program Files/TeliumSDK/SDK11.16.8.02/SDKTPLUS/HW_T2/gnu_434/lib/eft30tplus.lib(IsColorDisplay.o)
                0x000121c8                IsColorDisplay
 .text          0x0001221c       0x5c C:/Program Files/TeliumSDK/SDK11.16.8.02/SDKTPLUS/HW_T2/gnu_434/lib/eft30tplus.lib(IsISO1.o)
                0x00012224                IsISO1
 .text          0x00012278       0x5c C:/Program Files/TeliumSDK/SDK11.16.8.02/SDKTPLUS/HW_T2/gnu_434/lib/eft30tplus.lib(IsISO2.o)
                0x00012280                IsISO2
 .text          0x000122d4       0x5c C:/Program Files/TeliumSDK/SDK11.16.8.02/SDKTPLUS/HW_T2/gnu_434/lib/eft30tplus.lib(IsISO3.o)
                0x000122dc                IsISO3
 .text          0x00012330       0x60 C:/Program Files/TeliumSDK/SDK11.16.8.02/SDKTPLUS/HW_T2/gnu_434/lib/eft30tplus.lib(IsPrinter.o)
                0x0001233c                IsPrinter
 .text          0x00012390       0x64 C:/Program Files/TeliumSDK/SDK11.16.8.02/SDKTPLUS/HW_T2/gnu_434/lib/eft30tplus.lib(Telium_ServiceRegister.o)
                0x000123a8                Telium_ServiceRegister
 .text          0x000123f4       0x50 C:/Program Files/TeliumSDK/SDK11.16.8.02/SDKTPLUS/HW_T2/gnu_434/lib/eft30tplus.lib(Telium_Atoi.o)
                0x000123f4                atol
                0x00012438                atoi
 .text          0x00012444       0x34 C:/Program Files/TeliumSDK/SDK11.16.8.02/SDKTPLUS/HW_T2/gnu_434/lib/eft30tplus.lib(Telium_Pprintf.o)
                0x00012444                Telium_Pprintf
 .text          0x00012478       0x24 C:/Program Files/TeliumSDK/SDK11.16.8.02/SDKTPLUS/HW_T2/gnu_434/lib/eft30tplus.lib(Telium_Printf.o)
                0x00012478                Telium_Printf
 .text          0x0001249c       0x20 C:/Program Files/TeliumSDK/SDK11.16.8.02/SDKTPLUS/HW_T2/gnu_434/lib/eft30tplus.lib(Telium_Stdprt.o)
                0x000124a4                Telium_Stdprt
 .text          0x000124bc       0x20 C:/Program Files/TeliumSDK/SDK11.16.8.02/SDKTPLUS/HW_T2/gnu_434/lib/eft30tplus.lib(Telium_Sprintf.o)
                0x000124bc                Telium_Sprintf
 .text          0x000124dc       0x20 C:/Program Files/TeliumSDK/SDK11.16.8.02/SDKTPLUS/HW_T2/gnu_434/lib/eft30tplus.lib(sprintf.o)
                0x000124dc                sprintf
 .text          0x000124fc       0x70 C:/Program Files/TeliumSDK/SDK11.16.8.02/SDKTPLUS/HW_T2/gnu_434/lib/eft30tplus.lib(TM_InitContexteGraphique.o)
                0x00012518                TM_InitContexteGraphique
 .text          0x0001256c       0x78 C:/Program Files/TeliumSDK/SDK11.16.8.02/SDKTPLUS/HW_T2/gnu_434/lib/eft30tplus.lib(toolstp1.o)
                0x0001256c                toolslib_close
                0x00012580                toolslib_open
                0x000125c0                GetProcAddressTools
 .text          0x000125e4        0xe C:/Program Files/TeliumSDK/SDK11.16.8.02/SDKTPLUS/HW_T2/gnu_434/lib/TRAP_TELIUM_PLUS.LIB(ApplicationGetCurrent.o)
                0x000125e4                ApplicationGetCurrent
 .text          0x000125f2        0xe C:/Program Files/TeliumSDK/SDK11.16.8.02/SDKTPLUS/HW_T2/gnu_434/lib/TRAP_TELIUM_PLUS.LIB(FS_close.o)
                0x000125f2                FS_close
 .text          0x00012600        0xe C:/Program Files/TeliumSDK/SDK11.16.8.02/SDKTPLUS/HW_T2/gnu_434/lib/TRAP_TELIUM_PLUS.LIB(FS_dskcreate.o)
                0x00012600                FS_dskcreate
 .text          0x0001260e        0xe C:/Program Files/TeliumSDK/SDK11.16.8.02/SDKTPLUS/HW_T2/gnu_434/lib/TRAP_TELIUM_PLUS.LIB(FS_length.o)
                0x0001260e                FS_length
 .text          0x0001261c        0xe C:/Program Files/TeliumSDK/SDK11.16.8.02/SDKTPLUS/HW_T2/gnu_434/lib/TRAP_TELIUM_PLUS.LIB(FS_mount.o)
                0x0001261c                FS_mount
 .text          0x0001262a        0xe C:/Program Files/TeliumSDK/SDK11.16.8.02/SDKTPLUS/HW_T2/gnu_434/lib/TRAP_TELIUM_PLUS.LIB(FS_open.o)
                0x0001262a                FS_open
 .text          0x00012638        0xe C:/Program Files/TeliumSDK/SDK11.16.8.02/SDKTPLUS/HW_T2/gnu_434/lib/TRAP_TELIUM_PLUS.LIB(FS_read.o)
                0x00012638                FS_read
 .text          0x00012646        0xe C:/Program Files/TeliumSDK/SDK11.16.8.02/SDKTPLUS/HW_T2/gnu_434/lib/TRAP_TELIUM_PLUS.LIB(FS_unmount.o)
                0x00012646                FS_unmount
 .text          0x00012654        0xe C:/Program Files/TeliumSDK/SDK11.16.8.02/SDKTPLUS/HW_T2/gnu_434/lib/TRAP_TELIUM_PLUS.LIB(ObjectGetDescriptor.o)
                0x00012654                ObjectGetDescriptor
 .text          0x00012662        0xe C:/Program Files/TeliumSDK/SDK11.16.8.02/SDKTPLUS/HW_T2/gnu_434/lib/TRAP_TELIUM_PLUS.LIB(ObjectGetInfo.o)
                0x00012662                ObjectGetInfo
 .text          0x00012670        0xe C:/Program Files/TeliumSDK/SDK11.16.8.02/SDKTPLUS/HW_T2/gnu_434/lib/TRAP_TELIUM_PLUS.LIB(Telium_Exit.o)
                0x00012670                Telium_Exit
 .text          0x0001267e        0xe C:/Program Files/TeliumSDK/SDK11.16.8.02/SDKTPLUS/HW_T2/gnu_434/lib/TRAP_TELIUM_PLUS.LIB(Telium_Fclose.o)
                0x0001267e                Telium_Fclose
 .text          0x0001268c        0xe C:/Program Files/TeliumSDK/SDK11.16.8.02/SDKTPLUS/HW_T2/gnu_434/lib/TRAP_TELIUM_PLUS.LIB(Telium_Fopen.o)
                0x0001268c                Telium_Fopen
 .text          0x0001269a        0xe C:/Program Files/TeliumSDK/SDK11.16.8.02/SDKTPLUS/HW_T2/gnu_434/lib/TRAP_TELIUM_PLUS.LIB(Telium_Getc.o)
                0x0001269a                Telium_Getc
 .text          0x000126a8        0xe C:/Program Files/TeliumSDK/SDK11.16.8.02/SDKTPLUS/HW_T2/gnu_434/lib/TRAP_TELIUM_PLUS.LIB(Telium_Is_iso1.o)
                0x000126a8                Telium_Is_iso1
 .text          0x000126b6        0xe C:/Program Files/TeliumSDK/SDK11.16.8.02/SDKTPLUS/HW_T2/gnu_434/lib/TRAP_TELIUM_PLUS.LIB(Telium_Is_iso2.o)
                0x000126b6                Telium_Is_iso2
 .text          0x000126c4        0xe C:/Program Files/TeliumSDK/SDK11.16.8.02/SDKTPLUS/HW_T2/gnu_434/lib/TRAP_TELIUM_PLUS.LIB(Telium_Is_iso3.o)
                0x000126c4                Telium_Is_iso3
 .text          0x000126d2        0xe C:/Program Files/TeliumSDK/SDK11.16.8.02/SDKTPLUS/HW_T2/gnu_434/lib/TRAP_TELIUM_PLUS.LIB(Telium_Reset_buf.o)
                0x000126d2                Telium_Reset_buf
 .text          0x000126e0        0xe C:/Program Files/TeliumSDK/SDK11.16.8.02/SDKTPLUS/HW_T2/gnu_434/lib/TRAP_TELIUM_PLUS.LIB(Telium_Status.o)
                0x000126e0                Telium_Status
 .text          0x000126ee        0xe C:/Program Files/TeliumSDK/SDK11.16.8.02/SDKTPLUS/HW_T2/gnu_434/lib/TRAP_TELIUM_PLUS.LIB(Telium_Stdin.o)
                0x000126ee                Telium_Stdin
 .text          0x000126fc        0xe C:/Program Files/TeliumSDK/SDK11.16.8.02/SDKTPLUS/HW_T2/gnu_434/lib/TRAP_TELIUM_PLUS.LIB(Telium_Stdout.o)
                0x000126fc                Telium_Stdout
 .text          0x0001270a        0xe C:/Program Files/TeliumSDK/SDK11.16.8.02/SDKTPLUS/HW_T2/gnu_434/lib/TRAP_TELIUM_PLUS.LIB(Telium_Stdperif.o)
                0x0001270a                Telium_Stdperif
 .text          0x00012718        0xe C:/Program Files/TeliumSDK/SDK11.16.8.02/SDKTPLUS/HW_T2/gnu_434/lib/TRAP_TELIUM_PLUS.LIB(Telium_Ttestall.o)
                0x00012718                Telium_Ttestall
 .text          0x00012726        0xe C:/Program Files/TeliumSDK/SDK11.16.8.02/SDKTPLUS/HW_T2/gnu_434/lib/TRAP_TELIUM_PLUS.LIB(Telium_Vfprintf.o)
                0x00012726                Telium_Vfprintf
 .text          0x00012734        0xe C:/Program Files/TeliumSDK/SDK11.16.8.02/SDKTPLUS/HW_T2/gnu_434/lib/TRAP_TELIUM_PLUS.LIB(Telium_Vsprintf.o)
                0x00012734                Telium_Vsprintf
 .text          0x00012742        0xe C:/Program Files/TeliumSDK/SDK11.16.8.02/SDKTPLUS/HW_T2/gnu_434/lib/TRAP_TELIUM_PLUS.LIB(buzzer.o)
                0x00012742                buzzer
 .text          0x00012750        0xe C:/Program Files/TeliumSDK/SDK11.16.8.02/SDKTPLUS/HW_T2/gnu_434/lib/TRAP_TELIUM_PLUS.LIB(first_init.o)
                0x00012750                first_init
 .text          0x0001275e        0xe C:/Program Files/TeliumSDK/SDK11.16.8.02/SDKTPLUS/HW_T2/gnu_434/lib/TRAP_TELIUM_PLUS.LIB(raz_init.o)
                0x0001275e                raz_init
 .text          0x0001276c        0xe C:/Program Files/TeliumSDK/SDK11.16.8.02/SDKTPLUS/HW_T2/gnu_434/lib/TRAP_TELIUM_PLUS.LIB(ufree.o)
                0x0001276c                ufree
 .text          0x0001277a        0xe C:/Program Files/TeliumSDK/SDK11.16.8.02/SDKTPLUS/HW_T2/gnu_434/lib/TRAP_TELIUM_PLUS.LIB(umalloc.o)
                0x0001277a                umalloc
 .text          0x00012788        0xe C:/Program Files/TeliumSDK/SDK11.16.8.02/SDKTPLUS/HW_T2/gnu_434/lib/TRAP_TELIUM_PLUS.LIB(urealloc.o)
                0x00012788                urealloc
 *fill*         0x00012796        0x2 00
 .text          0x00012798      0x128 C:/Program Files/TeliumSDK/SDK11.16.8.02/SDKTPLUS/HW_T2/gnu_434/lib/SECTPLUS.lib(SECLibOpenClose.o)
                0x00012798                SEClib_Version
                0x000127c0                SEClib_Close
                0x000127f8                SEClib_Open
 .text          0x000128c0       0x74 C:/Program Files/TeliumSDK/SDK11.16.8.02/SDKTPLUS/HW_T2/gnu_434/lib/SECTPLUS.lib(SEC1.o)
                0x000128c0                SEC_Version
 .text          0x00012934       0x74 C:/Program Files/TeliumSDK/SDK11.16.8.02/SDKTPLUS/HW_T2/gnu_434/lib/SECTPLUS.lib(SEC7.o)
                0x00012934                SEC_InitVar
 .text          0x000129a8       0x74 C:/Program Files/TeliumSDK/SDK11.16.8.02/SDKTPLUS/HW_T2/gnu_434/lib/SECTPLUS.lib(SEC8.o)
                0x000129a8                SEC_SetConfig
 .text          0x00012a1c       0x74 C:/Program Files/TeliumSDK/SDK11.16.8.02/SDKTPLUS/HW_T2/gnu_434/lib/SECTPLUS.lib(SEC9.o)
                0x00012a1c                SEC_GetConfig
 .text          0x00012a90       0x7c C:/Program Files/TeliumSDK/SDK11.16.8.02/SDKTPLUS/HW_T2/gnu_434/lib/SECTPLUS.lib(SEC10.o)
                0x00012a90                SEC_listSecureId
 .text          0x00012b0c       0x78 C:/Program Files/TeliumSDK/SDK11.16.8.02/SDKTPLUS/HW_T2/gnu_434/lib/SECTPLUS.lib(SEC11.o)
                0x00012b0c                SEC_isSecretArea
 .text          0x00012b84       0x80 C:/Program Files/TeliumSDK/SDK11.16.8.02/SDKTPLUS/HW_T2/gnu_434/lib/SECTPLUS.lib(SEC19.o)
                0x00012b84                SEC_CreateSecretArea
 .text          0x00012c04       0x78 C:/Program Files/TeliumSDK/SDK11.16.8.02/SDKTPLUS/HW_T2/gnu_434/lib/SECTPLUS.lib(SEC20.o)
                0x00012c04                SEC_FreeSecret
 .text          0x00012c7c       0x84 C:/Program Files/TeliumSDK/SDK11.16.8.02/SDKTPLUS/HW_T2/gnu_434/lib/SECTPLUS.lib(SEC21.o)
                0x00012c7c                SEC_LoadKey
 .text          0x00012d00       0x78 C:/Program Files/TeliumSDK/SDK11.16.8.02/SDKTPLUS/HW_T2/gnu_434/lib/SECTPLUS.lib(SEC22.o)
                0x00012d00                SEC_PinEntryInit
 .text          0x00012d78       0x78 C:/Program Files/TeliumSDK/SDK11.16.8.02/SDKTPLUS/HW_T2/gnu_434/lib/SECTPLUS.lib(SEC23.o)
                0x00012d78                SEC_PinEntry
 .text          0x00012df0       0x8c C:/Program Files/TeliumSDK/SDK11.16.8.02/SDKTPLUS/HW_T2/gnu_434/lib/SECTPLUS.lib(SEC24.o)
                0x00012df0                SEC_Iso9564
 .text          0x00012e7c       0x80 C:/Program Files/TeliumSDK/SDK11.16.8.02/SDKTPLUS/HW_T2/gnu_434/lib/SECTPLUS.lib(SEC34.o)
                0x00012e7c                SEC_ComputeMAC
 .text          0x00012efc       0x74 C:/Program Files/TeliumSDK/SDK11.16.8.02/SDKTPLUS/HW_T2/gnu_434/lib/SECTPLUS.lib(SEC37.o)
                0x00012efc                SEC_InitInstance
 .text          0x00012f70       0x80 C:/Program Files/TeliumSDK/SDK11.16.8.02/SDKTPLUS/HW_T2/gnu_434/lib/SECTPLUS.lib(SEC38.o)
                0x00012f70                SEC_KeyVerify
 .text          0x00012ff0       0x84 C:/Program Files/TeliumSDK/SDK11.16.8.02/SDKTPLUS/HW_T2/gnu_434/lib/SECTPLUS.lib(SEC54.o)
                0x00012ff0                SEC_listTLVKeys
 .text          0x00013074      0x78c C:/Program Files/TeliumSDK/SDK11.16.8.02/SDKTPLUS/HW_T2/gnu_434/lib/LinkLayerExeInterface_TPlus.lib(LinkLayerServices.o)
                0x00013074                LL_GSM_Stop
                0x000130b4                LL_GPRS_Stop
                0x000130f4                LL_Network_GetStatus
                0x00013144                LL_WaitEvent
                0x0001318c                LL_GetStatus
                0x000131d0                LL_GetLastError
                0x00013214                LL_ClearReceiveBuffer
                0x00013258                LL_ClearSendBuffer
                0x0001329c                LL_Disconnect
                0x000132e0                LL_Connect
                0x00013324                LL_GetHandle
                0x0001339c                LL_GSM_Start
                0x00013410                LL_GPRS_Connect
                0x000134a8                LL_GPRS_Start
                0x00013538                LL_Receive
                0x000135dc                LL_Send
                0x00013678                LL_GetInfo
                0x00013724                LL_Configure
 .text          0x00013800       0x24 C:/Program Files/TeliumSDK/SDK11.16.8.02/SDKTPLUS/HW_T2/gnu_434/lib/ExtraGPRS.lib(gprs_GetInformation.o)
                0x0001380c                gprs_GetInformation
 .text          0x00013824       0x24 C:/Program Files/TeliumSDK/SDK11.16.8.02/SDKTPLUS/HW_T2/gnu_434/lib/ExtraGPRS.lib(gprs_SetPinModeFree.o)
                0x00013830                gprs_SetPinModeFree
 .text          0x00013848       0x24 C:/Program Files/TeliumSDK/SDK11.16.8.02/SDKTPLUS/HW_T2/gnu_434/lib/ExtraGPRS.lib(gprs_SubmitPuk.o)
                0x00013854                gprs_SubmitPuk
 .text          0x0001386c       0x2c C:/Program Files/TeliumSDK/SDK11.16.8.02/SDKTPLUS/HW_T2/gnu_434/lib/ExtraGPRS.lib(EXTRA_GPRS_asm_link.o)
                0x0001386c                EXTRA_GPRS_InitFuncAndBranch
                0x0001387c                EXTRA_GPRS_Swi_ObjectLoad
                0x0001388a                EXTRA_GPRS_Swi_DllLink
 .text          0x00013898      0x114 C:/Program Files/TeliumSDK/SDK11.16.8.02/SDKTPLUS/HW_T2/gnu_434/lib/ExtraGPRS.lib(EXTRA_GPRS_link.o)
                0x00013898                EXTRA_GPRS_IsPresent
                0x000138d4                EXTRA_GPRS_GetProcAddressWithoutExit
                0x0001396c                EXTRA_GPRS_GetProcAddress
 .text          0x000139ac       0xa0 C:/Program Files/TeliumSDK/SDK11.16.8.02/SDKTPLUS/HW_T2/gnu_434/lib/GTL_TPlus.lib(GTL_StdTimer.o)
                0x000139ac                GTL_StdTimer_GetElapsed
                0x000139d8                GTL_StdTimer_GetRemaining
                0x00013a24                GTL_StdTimer_GetCurrent
 .text          0x00013a4c     0x2b3c C:/Program Files/TeliumSDK/SDK11.16.8.02/SDKTPLUS/HW_T2/gnu_434/lib/FMG_TPlus.lib(VGE_FMG.o)
                0x00013a4c                IsFileEmpty
                0x00013a98                FMG_GetFileDescription
                0x00013ad0                FMG_CalculMD5
                0x00013b20                FMG_CheckRecordCoherence
                0x00013b78                FMG_CheckFileCoherence
                0x00013cb0                DeleteFileFromTable
                0x00013d1c                SaveMangementFile
                0x00013da0                DeleteRecordEndWithCkecksum
                0x00013f68                DeleteRecordEnd
                0x00014144                DeleteRecordMiddleWithCkecksum
                0x000143a0                DeleteRecordMiddle
                0x00014594                DeleteRecordBeginWithCkecksum
                0x00014764                DeleteRecordBegin
                0x000148d8                AddModifyRecordEndWithCkecksum
                0x00014b48                AddModifyRecordEnd
                0x00014e5c                AddModifyRecordMiddleWithCkecksum
                0x0001512c                AddModifyRecordMiddle
                0x00015380                AddModifyRecordBeginWithCkecksum
                0x000155cc                AddModifyRecordBegin
                0x0001579c                ExtraireFileID
                0x00015808                FMG_DeleteRecord
                0x000159b8                FMG_ReadRecord
                0x00015c50                FMG_ModifyRecord
                0x00015e24                FMG_AddRecord
                0x00015ffc                CreateOrMountDisk
                0x0001605c                FMG_DeleteFileType
                0x00016114                FMG_CreateFileType
                0x00016270                FMG_DeleteFile
                0x0001630c                FMG_CreateFile
                0x00016430                FMG_Init
 .text          0x00016588      0x988 C:/Program Files/TeliumSDK/SDK11.16.8.02/SDKTPLUS/HW_T2/gnu_434/lib/FMG_TPlus.lib(md5.o)
                0x00016588                md5_init
                0x00016de4                md5_append
                0x00016e8c                md5_finish
 .text          0x00016f10      0x40c C:/Program Files/TeliumSDK/SDK11.16.8.02/SDKTPLUS/HW_T2/gnu_434/lib/TlvTree_TPlus.lib(Proxy.o)
                0x00016f10                TlvTree_Copy
                0x00016f38                TlvTree_SetTag
                0x00016f60                TlvTree_SetDataInteger
                0x00016f98                TlvTree_SetData
                0x00016fc0                TlvTree_SetDataString
                0x00016ff8                TlvTree_GetData
                0x00017020                TlvTree_GetLength
                0x00017048                TlvTree_GetTag
                0x00017070                TlvTree_GetNext
                0x00017098                TlvTree_GetParent
                0x000170c0                TlvTree_GetFirstChild
                0x000170e8                TlvTree_Iterate
                0x00017118                TlvTree_FindChildren
                0x00017140                TlvTree_Find
                0x00017168                TlvTree_Unserialize
                0x00017190                TlvTree_GetSerializationSize
                0x000171b8                TlvTree_Serialize
                0x000171e0                TlvTree_Release
                0x00017208                TlvTree_GraftChildren
                0x00017230                TlvTree_Graft
                0x00017258                TlvTree_AddChildString
                0x00017294                TlvTree_AddChildInteger
                0x000172cc                TlvTree_AddChild
                0x000172f4                TlvTree_New
 .text          0x0001731c       0xec C:/Program Files/TeliumSDK/SDK11.16.8.02/SDKTPLUS/HW_T2/gnu_434/lib/TlvTree_TPlus.lib(Serializer.o)
                0x0001731c                __TlvTree_GetSerializationSize
                0x00017358                __TlvTree_Unserialize
                0x000173c0                __TlvTree_Serialize
 .text          0x00017408      0x5cc C:/Program Files/TeliumSDK/SDK11.16.8.02/SDKTPLUS/HW_T2/gnu_434/lib/TlvTree_TPlus.lib(Internal.o)
                0x00017408                __TlvTree_SetTag
                0x0001742c                __TlvTree_Graft
                0x00017490                __TlvTree_GraftChildren
                0x000174fc                __TlvTree_FindChildren
                0x00017548                __TlvTree_GetFirstChild
                0x0001756c                __TlvTree_GetParent
                0x00017590                __TlvTree_GetNext
                0x000175b4                __TlvTree_GetTag
                0x000175d8                __TlvTree_GetLength
                0x00017608                __TlvTree_GetData
                0x0001762c                __TlvTree_RemoveChild
                0x00017690                __TlvTree_GetNextNode
                0x00017728                __TlvTree_Find
                0x00017784                __TlvTree_DeleteNode
                0x000177cc                __TlvTree_Release
                0x0001781c                __TlvTree_NewNode
                0x00017860                __TlvTree_New
                0x0001788c                __TlvTree_SetData
                0x000178fc                __TlvTree_AddChild
                0x00017950                __TlvTree_Copy
 .text          0x000179d4      0x38c C:/Program Files/TeliumSDK/SDK11.16.8.02/SDKTPLUS/HW_T2/gnu_434/lib/TlvTree_TPlus.lib(Serializer_Default.o)
                0x00017ab4                __TlvTree_Unserialize_Default
                0x00017bdc                __TlvTree_GetSerializationSize_Default
                0x00017c38                __TlvTree_Serialize_Default
 .text          0x00017d60      0x8a8 C:/Program Files/TeliumSDK/SDK11.16.8.02/SDKTPLUS/HW_T2/gnu_434/lib/TlvTree_TPlus.lib(Serializer_Xml.o)
                0x00017dec                __TlvTree_Unserialize_Xml
                0x00018254                __TlvTree_GetSerializationSize_Xml
                0x000182f8                __TlvTree_Serialize_Xml
 .text          0x00018608       0x24 C:/Program Files/TeliumSDK/SDK11.16.8.02/SDKTPLUS/HW_T2/gnu_434/lib/GRAPHICLIB.LIB(GL_Button_Create.o)
                0x00018614                GL_Button_Create
 .text          0x0001862c       0x24 C:/Program Files/TeliumSDK/SDK11.16.8.02/SDKTPLUS/HW_T2/gnu_434/lib/GRAPHICLIB.LIB(GL_Dialog_Amount.o)
                0x00018638                GL_Dialog_Amount
 .text          0x00018650       0x24 C:/Program Files/TeliumSDK/SDK11.16.8.02/SDKTPLUS/HW_T2/gnu_434/lib/GRAPHICLIB.LIB(GL_Dialog_Choice.o)
                0x0001865c                GL_Dialog_Choice
 .text          0x00018674       0x24 C:/Program Files/TeliumSDK/SDK11.16.8.02/SDKTPLUS/HW_T2/gnu_434/lib/GRAPHICLIB.LIB(GL_Dialog_Menu.o)
                0x00018680                GL_Dialog_Menu
 .text          0x00018698       0x24 C:/Program Files/TeliumSDK/SDK11.16.8.02/SDKTPLUS/HW_T2/gnu_434/lib/GRAPHICLIB.LIB(GL_Dialog_Message.o)
                0x000186a4                GL_Dialog_Message
 .text          0x000186bc       0x24 C:/Program Files/TeliumSDK/SDK11.16.8.02/SDKTPLUS/HW_T2/gnu_434/lib/GRAPHICLIB.LIB(GL_Dialog_Password.o)
                0x000186c8                GL_Dialog_Password
 .text          0x000186e0       0x24 C:/Program Files/TeliumSDK/SDK11.16.8.02/SDKTPLUS/HW_T2/gnu_434/lib/GRAPHICLIB.LIB(GL_Dialog_Progress.o)
                0x000186ec                GL_Dialog_Progress
 .text          0x00018704       0x24 C:/Program Files/TeliumSDK/SDK11.16.8.02/SDKTPLUS/HW_T2/gnu_434/lib/GRAPHICLIB.LIB(GL_Dialog_Text.o)
                0x00018710                GL_Dialog_Text
 .text          0x00018728       0x24 C:/Program Files/TeliumSDK/SDK11.16.8.02/SDKTPLUS/HW_T2/gnu_434/lib/GRAPHICLIB.LIB(GL_Dialog_VirtualKeyboard.o)
                0x00018734                GL_Dialog_VirtualKeyboard
 .text          0x0001874c       0x24 C:/Program Files/TeliumSDK/SDK11.16.8.02/SDKTPLUS/HW_T2/gnu_434/lib/GRAPHICLIB.LIB(GL_Document_Create.o)
                0x00018758                GL_Document_Create
 .text          0x00018770       0x24 C:/Program Files/TeliumSDK/SDK11.16.8.02/SDKTPLUS/HW_T2/gnu_434/lib/GRAPHICLIB.LIB(GL_Document_Print.o)
                0x0001877c                GL_Document_Print
 .text          0x00018794       0x24 C:/Program Files/TeliumSDK/SDK11.16.8.02/SDKTPLUS/HW_T2/gnu_434/lib/GRAPHICLIB.LIB(GL_Drawing_Clear.o)
                0x000187a0                GL_Drawing_Clear
 .text          0x000187b8       0x24 C:/Program Files/TeliumSDK/SDK11.16.8.02/SDKTPLUS/HW_T2/gnu_434/lib/GRAPHICLIB.LIB(GL_Drawing_Create.o)
                0x000187c4                GL_Drawing_Create
 .text          0x000187dc       0x24 C:/Program Files/TeliumSDK/SDK11.16.8.02/SDKTPLUS/HW_T2/gnu_434/lib/GRAPHICLIB.LIB(GL_Drawing_DrawEllipse.o)
                0x000187e8                GL_Drawing_DrawEllipse
 .text          0x00018800       0x24 C:/Program Files/TeliumSDK/SDK11.16.8.02/SDKTPLUS/HW_T2/gnu_434/lib/GRAPHICLIB.LIB(GL_Drawing_DrawLine.o)
                0x0001880c                GL_Drawing_DrawLine
 .text          0x00018824       0x24 C:/Program Files/TeliumSDK/SDK11.16.8.02/SDKTPLUS/HW_T2/gnu_434/lib/GRAPHICLIB.LIB(GL_Drawing_DrawRect.o)
                0x00018830                GL_Drawing_DrawRect
 .text          0x00018848       0x24 C:/Program Files/TeliumSDK/SDK11.16.8.02/SDKTPLUS/HW_T2/gnu_434/lib/GRAPHICLIB.LIB(GL_Drawing_DrawText.o)
                0x00018854                GL_Drawing_DrawText
 .text          0x0001886c       0x24 C:/Program Files/TeliumSDK/SDK11.16.8.02/SDKTPLUS/HW_T2/gnu_434/lib/GRAPHICLIB.LIB(GL_Drawing_SetBrush.o)
                0x00018878                GL_Drawing_SetBrush
 .text          0x00018890       0x24 C:/Program Files/TeliumSDK/SDK11.16.8.02/SDKTPLUS/HW_T2/gnu_434/lib/GRAPHICLIB.LIB(GL_Drawing_SetFont.o)
                0x0001889c                GL_Drawing_SetFont
 .text          0x000188b4       0x24 C:/Program Files/TeliumSDK/SDK11.16.8.02/SDKTPLUS/HW_T2/gnu_434/lib/GRAPHICLIB.LIB(GL_Drawing_SetPen.o)
                0x000188c0                GL_Drawing_SetPen
 .text          0x000188d8       0x24 C:/Program Files/TeliumSDK/SDK11.16.8.02/SDKTPLUS/HW_T2/gnu_434/lib/GRAPHICLIB.LIB(GL_GraphicLib_BindSingleKey.o)
                0x000188e4                GL_GraphicLib_BindSingleKey
 .text          0x000188fc       0xbc C:/Program Files/TeliumSDK/SDK11.16.8.02/SDKTPLUS/HW_T2/gnu_434/lib/GRAPHICLIB.LIB(GL_GraphicLib_Create.o)
                0x000188fc                GL_GraphicLib_Create
                0x00018978                GL_GraphicLib_Create_Init
 .text          0x000189b8       0x24 C:/Program Files/TeliumSDK/SDK11.16.8.02/SDKTPLUS/HW_T2/gnu_434/lib/GRAPHICLIB.LIB(GL_GraphicLib_IsTouchPresent.o)
                0x000189c4                GL_GraphicLib_IsTouchPresent
 .text          0x000189dc       0x24 C:/Program Files/TeliumSDK/SDK11.16.8.02/SDKTPLUS/HW_T2/gnu_434/lib/GRAPHICLIB.LIB(GL_GraphicLib_SetCharset.o)
                0x000189e8                GL_GraphicLib_SetCharset
 .text          0x00018a00       0x24 C:/Program Files/TeliumSDK/SDK11.16.8.02/SDKTPLUS/HW_T2/gnu_434/lib/GRAPHICLIB.LIB(GL_GraphicLib_UnbindKey.o)
                0x00018a0c                GL_GraphicLib_UnbindKey
 .text          0x00018a24       0x24 C:/Program Files/TeliumSDK/SDK11.16.8.02/SDKTPLUS/HW_T2/gnu_434/lib/GRAPHICLIB.LIB(GL_Label_Create.o)
                0x00018a30                GL_Label_Create
 .text          0x00018a48       0x24 C:/Program Files/TeliumSDK/SDK11.16.8.02/SDKTPLUS/HW_T2/gnu_434/lib/GRAPHICLIB.LIB(GL_Layout_Create.o)
                0x00018a54                GL_Layout_Create
 .text          0x00018a6c       0x24 C:/Program Files/TeliumSDK/SDK11.16.8.02/SDKTPLUS/HW_T2/gnu_434/lib/GRAPHICLIB.LIB(GL_Message_GetKey.o)
                0x00018a78                GL_Message_GetKey
 .text          0x00018a90       0x24 C:/Program Files/TeliumSDK/SDK11.16.8.02/SDKTPLUS/HW_T2/gnu_434/lib/GRAPHICLIB.LIB(GL_Message_GetWidget.o)
                0x00018a9c                GL_Message_GetWidget
 .text          0x00018ab4       0x24 C:/Program Files/TeliumSDK/SDK11.16.8.02/SDKTPLUS/HW_T2/gnu_434/lib/GRAPHICLIB.LIB(GL_Message_SetResult.o)
                0x00018ac0                GL_Message_SetResult
 .text          0x00018ad8       0x24 C:/Program Files/TeliumSDK/SDK11.16.8.02/SDKTPLUS/HW_T2/gnu_434/lib/GRAPHICLIB.LIB(GL_Message_SetUserData.o)
                0x00018ae4                GL_Message_SetUserData
 .text          0x00018afc       0x24 C:/Program Files/TeliumSDK/SDK11.16.8.02/SDKTPLUS/HW_T2/gnu_434/lib/GRAPHICLIB.LIB(GL_Picture_Create.o)
                0x00018b08                GL_Picture_Create
 .text          0x00018b20       0x24 C:/Program Files/TeliumSDK/SDK11.16.8.02/SDKTPLUS/HW_T2/gnu_434/lib/GRAPHICLIB.LIB(GL_Print_Create.o)
                0x00018b2c                GL_Print_Create
 .text          0x00018b44       0x24 C:/Program Files/TeliumSDK/SDK11.16.8.02/SDKTPLUS/HW_T2/gnu_434/lib/GRAPHICLIB.LIB(GL_Timer_Create.o)
                0x00018b50                GL_Timer_Create
 .text          0x00018b68       0x24 C:/Program Files/TeliumSDK/SDK11.16.8.02/SDKTPLUS/HW_T2/gnu_434/lib/GRAPHICLIB.LIB(GL_Timer_SetInterval.o)
                0x00018b74                GL_Timer_SetInterval
 .text          0x00018b8c       0x24 C:/Program Files/TeliumSDK/SDK11.16.8.02/SDKTPLUS/HW_T2/gnu_434/lib/GRAPHICLIB.LIB(GL_Timer_Stop.o)
                0x00018b98                GL_Timer_Stop
 .text          0x00018bb0       0x24 C:/Program Files/TeliumSDK/SDK11.16.8.02/SDKTPLUS/HW_T2/gnu_434/lib/GRAPHICLIB.LIB(GL_Widget_Destroy.o)
                0x00018bbc                GL_Widget_Destroy
 .text          0x00018bd4       0x24 C:/Program Files/TeliumSDK/SDK11.16.8.02/SDKTPLUS/HW_T2/gnu_434/lib/GRAPHICLIB.LIB(GL_Widget_GetUserData.o)
                0x00018be0                GL_Widget_GetUserData
 .text          0x00018bf8       0x24 C:/Program Files/TeliumSDK/SDK11.16.8.02/SDKTPLUS/HW_T2/gnu_434/lib/GRAPHICLIB.LIB(GL_Widget_RegisterCallback.o)
                0x00018c04                GL_Widget_RegisterCallback
 .text          0x00018c1c       0x24 C:/Program Files/TeliumSDK/SDK11.16.8.02/SDKTPLUS/HW_T2/gnu_434/lib/GRAPHICLIB.LIB(GL_Widget_SearchId.o)
                0x00018c28                GL_Widget_SearchId
 .text          0x00018c40       0x24 C:/Program Files/TeliumSDK/SDK11.16.8.02/SDKTPLUS/HW_T2/gnu_434/lib/GRAPHICLIB.LIB(GL_Widget_SetBackAlign.o)
                0x00018c4c                GL_Widget_SetBackAlign
 .text          0x00018c64       0x24 C:/Program Files/TeliumSDK/SDK11.16.8.02/SDKTPLUS/HW_T2/gnu_434/lib/GRAPHICLIB.LIB(GL_Widget_SetBackColor.o)
                0x00018c70                GL_Widget_SetBackColor
 .text          0x00018c88       0x24 C:/Program Files/TeliumSDK/SDK11.16.8.02/SDKTPLUS/HW_T2/gnu_434/lib/GRAPHICLIB.LIB(GL_Widget_SetBorders.o)
                0x00018c94                GL_Widget_SetBorders
 .text          0x00018cac       0x24 C:/Program Files/TeliumSDK/SDK11.16.8.02/SDKTPLUS/HW_T2/gnu_434/lib/GRAPHICLIB.LIB(GL_Widget_SetExpand.o)
                0x00018cb8                GL_Widget_SetExpand
 .text          0x00018cd0       0x24 C:/Program Files/TeliumSDK/SDK11.16.8.02/SDKTPLUS/HW_T2/gnu_434/lib/GRAPHICLIB.LIB(GL_Widget_SetFocusable.o)
                0x00018cdc                GL_Widget_SetFocusable
 .text          0x00018cf4       0x24 C:/Program Files/TeliumSDK/SDK11.16.8.02/SDKTPLUS/HW_T2/gnu_434/lib/GRAPHICLIB.LIB(GL_Widget_SetFontName.o)
                0x00018d00                GL_Widget_SetFontName
 .text          0x00018d18       0x24 C:/Program Files/TeliumSDK/SDK11.16.8.02/SDKTPLUS/HW_T2/gnu_434/lib/GRAPHICLIB.LIB(GL_Widget_SetFontScale.o)
                0x00018d24                GL_Widget_SetFontScale
 .text          0x00018d3c       0x24 C:/Program Files/TeliumSDK/SDK11.16.8.02/SDKTPLUS/HW_T2/gnu_434/lib/GRAPHICLIB.LIB(GL_Widget_SetFontStyle.o)
                0x00018d48                GL_Widget_SetFontStyle
 .text          0x00018d60       0x24 C:/Program Files/TeliumSDK/SDK11.16.8.02/SDKTPLUS/HW_T2/gnu_434/lib/GRAPHICLIB.LIB(GL_Widget_SetForeColor.o)
                0x00018d6c                GL_Widget_SetForeColor
 .text          0x00018d84       0x24 C:/Program Files/TeliumSDK/SDK11.16.8.02/SDKTPLUS/HW_T2/gnu_434/lib/GRAPHICLIB.LIB(GL_Widget_SetGrow.o)
                0x00018d90                GL_Widget_SetGrow
 .text          0x00018da8       0x24 C:/Program Files/TeliumSDK/SDK11.16.8.02/SDKTPLUS/HW_T2/gnu_434/lib/GRAPHICLIB.LIB(GL_Widget_SetId.o)
                0x00018db4                GL_Widget_SetId
 .text          0x00018dcc       0x24 C:/Program Files/TeliumSDK/SDK11.16.8.02/SDKTPLUS/HW_T2/gnu_434/lib/GRAPHICLIB.LIB(GL_Widget_SetItem.o)
                0x00018dd8                GL_Widget_SetItem
 .text          0x00018df0       0x24 C:/Program Files/TeliumSDK/SDK11.16.8.02/SDKTPLUS/HW_T2/gnu_434/lib/GRAPHICLIB.LIB(GL_Widget_SetMargins.o)
                0x00018dfc                GL_Widget_SetMargins
 .text          0x00018e14       0x24 C:/Program Files/TeliumSDK/SDK11.16.8.02/SDKTPLUS/HW_T2/gnu_434/lib/GRAPHICLIB.LIB(GL_Widget_SetMinSize.o)
                0x00018e20                GL_Widget_SetMinSize
 .text          0x00018e38       0x24 C:/Program Files/TeliumSDK/SDK11.16.8.02/SDKTPLUS/HW_T2/gnu_434/lib/GRAPHICLIB.LIB(GL_Widget_SetShortcut.o)
                0x00018e44                GL_Widget_SetShortcut
 .text          0x00018e5c       0x24 C:/Program Files/TeliumSDK/SDK11.16.8.02/SDKTPLUS/HW_T2/gnu_434/lib/GRAPHICLIB.LIB(GL_Widget_SetShrink.o)
                0x00018e68                GL_Widget_SetShrink
 .text          0x00018e80       0x24 C:/Program Files/TeliumSDK/SDK11.16.8.02/SDKTPLUS/HW_T2/gnu_434/lib/GRAPHICLIB.LIB(GL_Widget_SetSize.o)
                0x00018e8c                GL_Widget_SetSize
 .text          0x00018ea4       0x24 C:/Program Files/TeliumSDK/SDK11.16.8.02/SDKTPLUS/HW_T2/gnu_434/lib/GRAPHICLIB.LIB(GL_Widget_SetSource.o)
                0x00018eb0                GL_Widget_SetSource
 .text          0x00018ec8       0x24 C:/Program Files/TeliumSDK/SDK11.16.8.02/SDKTPLUS/HW_T2/gnu_434/lib/GRAPHICLIB.LIB(GL_Widget_SetText.o)
                0x00018ed4                GL_Widget_SetText
 .text          0x00018eec       0x24 C:/Program Files/TeliumSDK/SDK11.16.8.02/SDKTPLUS/HW_T2/gnu_434/lib/GRAPHICLIB.LIB(GL_Widget_SetTextAlign.o)
                0x00018ef8                GL_Widget_SetTextAlign
 .text          0x00018f10       0x24 C:/Program Files/TeliumSDK/SDK11.16.8.02/SDKTPLUS/HW_T2/gnu_434/lib/GRAPHICLIB.LIB(GL_Widget_SetTextPaddings.o)
                0x00018f1c                GL_Widget_SetTextPaddings
 .text          0x00018f34       0x24 C:/Program Files/TeliumSDK/SDK11.16.8.02/SDKTPLUS/HW_T2/gnu_434/lib/GRAPHICLIB.LIB(GL_Widget_SetTransformation.o)
                0x00018f40                GL_Widget_SetTransformation
 .text          0x00018f58       0x24 C:/Program Files/TeliumSDK/SDK11.16.8.02/SDKTPLUS/HW_T2/gnu_434/lib/GRAPHICLIB.LIB(GL_Widget_SetVisible.o)
                0x00018f64                GL_Widget_SetVisible
 .text          0x00018f7c       0x24 C:/Program Files/TeliumSDK/SDK11.16.8.02/SDKTPLUS/HW_T2/gnu_434/lib/GRAPHICLIB.LIB(GL_Widget_SetWrap.o)
                0x00018f88                GL_Widget_SetWrap
 .text          0x00018fa0       0x24 C:/Program Files/TeliumSDK/SDK11.16.8.02/SDKTPLUS/HW_T2/gnu_434/lib/GRAPHICLIB.LIB(GL_Widget_UnregisterCallback.o)
                0x00018fac                GL_Widget_UnregisterCallback
 .text          0x00018fc4       0x24 C:/Program Files/TeliumSDK/SDK11.16.8.02/SDKTPLUS/HW_T2/gnu_434/lib/GRAPHICLIB.LIB(GL_Window_Create.o)
                0x00018fd0                GL_Window_Create
 .text          0x00018fe8       0x24 C:/Program Files/TeliumSDK/SDK11.16.8.02/SDKTPLUS/HW_T2/gnu_434/lib/GRAPHICLIB.LIB(GL_Window_Dispatch.o)
                0x00018ff4                GL_Window_Dispatch
 .text          0x0001900c       0x24 C:/Program Files/TeliumSDK/SDK11.16.8.02/SDKTPLUS/HW_T2/gnu_434/lib/GRAPHICLIB.LIB(GL_Window_GetResult.o)
                0x00019018                GL_Window_GetResult
 .text          0x00019030       0x24 C:/Program Files/TeliumSDK/SDK11.16.8.02/SDKTPLUS/HW_T2/gnu_434/lib/GRAPHICLIB.LIB(GL_Window_MainLoop.o)
                0x0001903c                GL_Window_MainLoop
 .text          0x00019054      0x114 C:/Program Files/TeliumSDK/SDK11.16.8.02/SDKTPLUS/HW_T2/gnu_434/lib/GRAPHICLIB.LIB(GL_link.o)
                0x00019054                GL_IsPresent
                0x00019090                GL_GetProcAddressWithoutExit
                0x00019128                GL_GetProcAddress
 .text          0x00019168       0x2c C:/Program Files/TeliumSDK/SDK11.16.8.02/SDKTPLUS/HW_T2/gnu_434/lib/GRAPHICLIB.LIB(gl_asm_link.o)
                0x00019168                GL_InitFuncAndBranch
                0x00019178                GL_Swi_ObjectLoad
                0x00019186                GL_Swi_DllLink
 .text          0x00019194        0xc C:/Program Files/TeliumSDK/SDK11.16.8.02/SDKTPLUS/HW_T2/gnu_434/lib/OSLAYER.LIB(OSL_Dll_Close.o)
                0x00019194                OSL_Dll_Close
 .text          0x000191a0        0xc C:/Program Files/TeliumSDK/SDK11.16.8.02/SDKTPLUS/HW_T2/gnu_434/lib/OSLAYER.LIB(OSL_Dll_GetSymbolByName.o)
                0x000191a0                OSL_Dll_GetSymbolByName
 .text          0x000191ac        0xc C:/Program Files/TeliumSDK/SDK11.16.8.02/SDKTPLUS/HW_T2/gnu_434/lib/OSLAYER.LIB(OSL_Dll_Open.o)
                0x000191ac                OSL_Dll_Open
 .text          0x000191b8        0xc C:/Program Files/TeliumSDK/SDK11.16.8.02/SDKTPLUS/HW_T2/gnu_434/lib/OSLAYER.LIB(OSL_Dll_OpenByAppliType.o)
                0x000191b8                OSL_Dll_OpenByAppliType
 .text          0x000191c4        0xe C:/Program Files/TeliumSDK/SDK11.16.8.02/SDKTPLUS/HW_T2/gnu_434/lib/OSLAYER.LIB(OSL_TimeStp_ElapsedMs.o)
                0x000191c4                OSL_TimeStp_ElapsedMs
 .text          0x000191d2        0xc C:/Program Files/TeliumSDK/SDK11.16.8.02/SDKTPLUS/HW_T2/gnu_434/lib/OSLAYER.LIB(OSL_TimeStp_Now.o)
                0x000191d2                OSL_TimeStp_Now
 *fill*         0x000191de        0x2 00
 .text          0x000191e0       0x60 C:/Program Files/TeliumSDK/SDK11.16.8.02/SDKTPLUS/HW_T2/gnu_434/lib/eft30tplus.lib(Telium_ServiceCall.o)
                0x000191f4                Telium_ServiceCall
 .text          0x00019240        0xe C:/Program Files/TeliumSDK/SDK11.16.8.02/SDKTPLUS/HW_T2/gnu_434/lib/TRAP_TELIUM_PLUS.LIB(FS_exist.o)
                0x00019240                FS_exist
 .text          0x0001924e        0xe C:/Program Files/TeliumSDK/SDK11.16.8.02/SDKTPLUS/HW_T2/gnu_434/lib/TRAP_TELIUM_PLUS.LIB(FS_rename.o)
                0x0001924e                FS_rename
 .text          0x0001925c        0xe C:/Program Files/TeliumSDK/SDK11.16.8.02/SDKTPLUS/HW_T2/gnu_434/lib/TRAP_TELIUM_PLUS.LIB(FS_seek.o)
                0x0001925c                FS_seek
 .text          0x0001926a        0xe C:/Program Files/TeliumSDK/SDK11.16.8.02/SDKTPLUS/HW_T2/gnu_434/lib/TRAP_TELIUM_PLUS.LIB(FS_unlink.o)
                0x0001926a                FS_unlink
 .text          0x00019278        0xe C:/Program Files/TeliumSDK/SDK11.16.8.02/SDKTPLUS/HW_T2/gnu_434/lib/TRAP_TELIUM_PLUS.LIB(FS_write.o)
                0x00019278                FS_write
 .text          0x00019286        0xe C:/Program Files/TeliumSDK/SDK11.16.8.02/SDKTPLUS/HW_T2/gnu_434/lib/TRAP_TELIUM_PLUS.LIB(ObjectLoad.o)
                0x00019286                ObjectLoad
 .text          0x00019294        0xe C:/Program Files/TeliumSDK/SDK11.16.8.02/SDKTPLUS/HW_T2/gnu_434/lib/TRAP_TELIUM_PLUS.LIB(PageAlloc.o)
                0x00019294                PageAlloc
 .text          0x000192a2        0xe C:/Program Files/TeliumSDK/SDK11.16.8.02/SDKTPLUS/HW_T2/gnu_434/lib/TRAP_TELIUM_PLUS.LIB(PageFree.o)
                0x000192a2                PageFree
 .text          0x000192b0        0xe C:/Program Files/TeliumSDK/SDK11.16.8.02/SDKTPLUS/HW_T2/gnu_434/lib/TRAP_TELIUM_PLUS.LIB(TMT_Retrieve_Clock.o)
                0x000192b0                TMT_Retrieve_Clock
 .text          0x000192be        0xe C:/Program Files/TeliumSDK/SDK11.16.8.02/SDKTPLUS/HW_T2/gnu_434/lib/TRAP_TELIUM_PLUS.LIB(upload_diagnostic_txt.o)
                0x000192be                upload_diagnostic_txt
 .text          0x000192cc      0x14c C:/Program Files/TeliumSDK/SDK11.16.8.02/SDKTPLUS/HW_T2/gnu_434/lib/XMLs_TPlus.lib(XMLs_Attributes.o)
                0x000192cc                XMLs_Attributes_GetCount
                0x000192fc                XMLs_Attributes_GetByIndex
                0x000193ac                XMLs_Attributes_GetByName
 .text          0x00019418      0x134 C:/Program Files/TeliumSDK/SDK11.16.8.02/SDKTPLUS/HW_T2/gnu_434/lib/XMLs_TPlus.lib(XMLs_Common.o)
                0x00019418                XMLs_CheckHandle
                0x0001944c                XMLs_Abort
                0x00019494                XMLs_SetUserData
                0x000194dc                XMLs_GetUserData
                0x00019520                XMLstr_Set
 .text          0x0001954c       0xc0 C:/Program Files/TeliumSDK/SDK11.16.8.02/SDKTPLUS/HW_T2/gnu_434/lib/XMLs_TPlus.lib(XMLs_Options.o)
                0x0001954c                XMLs_GetOption
                0x000195a8                XMLs_SetOption
 .text          0x0001960c      0x278 C:/Program Files/TeliumSDK/SDK11.16.8.02/SDKTPLUS/HW_T2/gnu_434/lib/XMLs_TPlus.lib(XMLs_ProcessData.o)
                0x0001960c                XMLs_ProcessData
 .text          0x00019884      0x234 C:/Program Files/TeliumSDK/SDK11.16.8.02/SDKTPLUS/HW_T2/gnu_434/lib/XMLs_TPlus.lib(XMLs.o)
                0x00019884                XMLs_ParseStream
                0x00019934                XMLs_ParseBuffer
                0x000199f4                XMLs_Destroy
                0x00019a60                XMLs_Create
 .text          0x00019ab8      0x20c C:/Program Files/TeliumSDK/SDK11.16.8.02/SDKTPLUS/HW_T2/gnu_434/lib/XMLs_TPlus.lib(XMLs_Buffer.o)
                0x00019ab8                XMLs_Buffer_GetC
                0x00019af8                XMLs_Buffer_Tell
                0x00019b1c                XMLs_Buffer_Seek
                0x00019b4c                XMLs_Buffer_Fill
                0x00019bbc                XMLs_Buffer_New
                0x00019c00                XMLs_Buffer_Clear
                0x00019c88                XMLs_Buffer_Release
 .text          0x00019cc4      0x8dc C:/Program Files/TeliumSDK/SDK11.16.8.02/SDKTPLUS/HW_T2/gnu_434/lib/XMLs_TPlus.lib(XMLs_Parser.o)
                0x00019cc4                XMLs_Attributes_Close
                0x00019d88                XMLs_Attributes_Open
                0x0001a008                XMLgr_Document
 .text          0x0001a5a0      0x13c C:/Program Files/TeliumSDK/SDK11.16.8.02/SDKTPLUS/HW_T2/gnu_434/lib/XMLs_TPlus.lib(XMLs_Stream.o)
                0x0001a5a0                XMLs_STREAM_SetUserData
                0x0001a5dc                XMLs_STREAM_SetOption
                0x0001a644                XMLs_STREAM_Destroy
                0x0001a688                XMLs_STREAM_Create
 .text          0x0001a6dc       0x28 E:/IngeDev_8.18.0.5/toolchains/gnuArm4/arm-elf/lib/thumb/soft/interwork/libc.a(lib_a-memcmp.o)
                0x0001a6dc                memcmp
 .text          0x0001a704       0x1c E:/IngeDev_8.18.0.5/toolchains/gnuArm4/arm-elf/lib/thumb/soft/interwork/libc.a(lib_a-memcpy.o)
                0x0001a704                memcpy
 .text          0x0001a720       0x3c E:/IngeDev_8.18.0.5/toolchains/gnuArm4/arm-elf/lib/thumb/soft/interwork/libc.a(lib_a-memmove.o)
                0x0001a720                memmove
 .text          0x0001a75c       0x10 E:/IngeDev_8.18.0.5/toolchains/gnuArm4/arm-elf/lib/thumb/soft/interwork/libc.a(lib_a-memset.o)
                0x0001a75c                memset
 .text          0x0001a76c       0x4c E:/IngeDev_8.18.0.5/toolchains/gnuArm4/arm-elf/lib/thumb/soft/interwork/libc.a(lib_a-strcasecmp.o)
                0x0001a76c                strcasecmp
 .text          0x0001a7b8       0x24 E:/IngeDev_8.18.0.5/toolchains/gnuArm4/arm-elf/lib/thumb/soft/interwork/libc.a(lib_a-strcat.o)
                0x0001a7b8                strcat
 .text          0x0001a7dc       0x1c E:/IngeDev_8.18.0.5/toolchains/gnuArm4/arm-elf/lib/thumb/soft/interwork/libc.a(lib_a-strchr.o)
                0x0001a7dc                strchr
 .text          0x0001a7f8       0x14 E:/IngeDev_8.18.0.5/toolchains/gnuArm4/arm-elf/lib/thumb/soft/interwork/libc.a(lib_a-strcmp.o)
                0x0001a7f8                strcmp
 .text          0x0001a80c       0x10 E:/IngeDev_8.18.0.5/toolchains/gnuArm4/arm-elf/lib/thumb/soft/interwork/libc.a(lib_a-strcpy.o)
                0x0001a80c                strcpy
 .text          0x0001a81c       0x10 E:/IngeDev_8.18.0.5/toolchains/gnuArm4/arm-elf/lib/thumb/soft/interwork/libc.a(lib_a-strlen.o)
                0x0001a81c                strlen
 .text          0x0001a82c       0x34 E:/IngeDev_8.18.0.5/toolchains/gnuArm4/arm-elf/lib/thumb/soft/interwork/libc.a(lib_a-strncpy.o)
                0x0001a82c                strncpy
 .text          0x0001a860       0x30 E:/IngeDev_8.18.0.5/toolchains/gnuArm4/arm-elf/lib/thumb/soft/interwork/libc.a(lib_a-strrchr.o)
                0x0001a860                strrchr
 .text          0x0001a890      0x128 E:/IngeDev_8.18.0.5/toolchains/gnuArm4/arm-elf/lib/thumb/soft/interwork/libc.a(lib_a-strtoul.o)
                0x0001a890                _strtoul_r
                0x0001a998                strtoul
 .text          0x0001a9b8        0x0 E:/IngeDev_8.18.0.5/toolchains/gnuArm4/arm-elf/lib/thumb/soft/interwork/libc.a(lib_a-ctype_.o)
 .text          0x0001a9b8        0x0 E:/IngeDev_8.18.0.5/toolchains/gnuArm4/arm-elf/lib/thumb/soft/interwork/libc.a(lib_a-impure.o)
 .text          0x0001a9b8       0x8c E:/IngeDev_8.18.0.5/toolchains/gnuArm4/lib/gcc/arm-elf/4.3.4/thumb/soft/interwork/libgcc.a(_udivsi3.o)
                0x0001a9b8                __udivsi3
                0x0001a9b8                __aeabi_uidiv
                0x0001aa34                __aeabi_uidivmod
 .text          0x0001aa44       0xa4 E:/IngeDev_8.18.0.5/toolchains/gnuArm4/lib/gcc/arm-elf/4.3.4/thumb/soft/interwork/libgcc.a(_divsi3.o)
                0x0001aa44                __aeabi_idiv
                0x0001aa44                __divsi3
                0x0001aad8                __aeabi_idivmod
 .text          0x0001aae8       0xc8 E:/IngeDev_8.18.0.5/toolchains/gnuArm4/lib/gcc/arm-elf/4.3.4/thumb/soft/interwork/libgcc.a(_umodsi3.o)
                0x0001aae8                __umodsi3
 .text          0x0001abb0       0xd8 E:/IngeDev_8.18.0.5/toolchains/gnuArm4/lib/gcc/arm-elf/4.3.4/thumb/soft/interwork/libgcc.a(_modsi3.o)
                0x0001abb0                __modsi3
 .text          0x0001ac88        0x4 E:/IngeDev_8.18.0.5/toolchains/gnuArm4/lib/gcc/arm-elf/4.3.4/thumb/soft/interwork/libgcc.a(_dvmd_tls.o)
                0x0001ac88                __aeabi_ldiv0
                0x0001ac88                __div0
                0x0001ac88                __aeabi_idiv0
 *(.gnu.linkonce.t.*)
 *(.strings .strings.*)
 *(.glue_7)
 .glue_7        0x00000000        0x0 linker stubs
 *(.glue_7t)
 .glue_7t       0x00000000        0x0 linker stubs
 *(.gcc_except_table)

.vfp11_veneer   0x0001ac8c        0x0
 .vfp11_veneer  0x00000000        0x0 linker stubs

.v4_bx          0x0001ac8c        0x0
 .v4_bx         0x00000000        0x0 linker stubs

.eh_frame
 *(.eh_frame)

.jcr
 *(.jcr)

.ctors          0x0001ac8c        0x0
                0x0001ac8c                __ctors_start = .
 *(SORT(.ctors.*))
 *(.ctors)
                0x0001ac8c                __ctors_end = .

.dtors          0x0001ac8c        0x0
                0x0001ac8c                __dtors_start = .
 *(SORT(.dtors.*))
 *(.dtors)
                0x0001ac8c                __dtors_end = .

.rodata         0x0001ac8c     0x3ccc
 *(.rodata .rodata.*)
 .rodata        0x0001ac8c       0x18 C:/Program Files/TeliumSDK/SDK11.16.8.02/SDKTPLUS/HW_T2/gnu_434/startfiles/cstartupTplus.o
 .rodata        0x0001aca4       0xb0 Obj/GNU_ARM_DEBUG_T2/Main.o
 .rodata        0x0001ad54      0x3d0 Obj/GNU_ARM_DEBUG_T2/Entry.o
 .rodata        0x0001b124      0x154 Obj/GNU_ARM_DEBUG_T2/Menu.o
 .rodata        0x0001b278      0x630 Obj/GNU_ARM_DEBUG_T2/ComGPRS.o
 .rodata        0x0001b8a8       0xb0 Obj/GNU_ARM_DEBUG_T2/Goal.o
 .rodata        0x0001b958      0x1bc Obj/GNU_ARM_DEBUG_T2/Mapapp.o
 .rodata        0x0001bb14      0x800 Obj/GNU_ARM_DEBUG_T2/FMG.o
 .rodata        0x0001c314      0x874 Obj/GNU_ARM_DEBUG_T2/Utility.o
 .rodata        0x0001cb88      0x174 Obj/GNU_ARM_DEBUG_T2/Timer.o
 .rodata        0x0001ccfc       0xf8 Obj/GNU_ARM_DEBUG_T2/transaction.o
 .rodata        0x0001cdf4      0x4a4 Obj/GNU_ARM_DEBUG_T2/globals.o
 .rodata        0x0001d298      0x464 Obj/GNU_ARM_DEBUG_T2/magnetic.o
 .rodata        0x0001d6fc      0xbc0 Obj/GNU_ARM_DEBUG_T2/schemes.o
                0x0001db48                zRootKeyPlainText
                0x0001db5c                zIso9564PinKey
                0x0001db70                zMacKey
 .rodata        0x0001e2bc       0x28 Obj/GNU_ARM_DEBUG_T2/amount.o
 .rodata        0x0001e2e4      0x19c Obj/GNU_ARM_DEBUG_T2/printer.o
 .rodata.str1.1
                0x00000000        0x0 C:/Program Files/TeliumSDK/SDK11.16.8.02/SDKTPLUS/HW_T2/gnu_434/lib/eft30tplus.lib(extenstp1.o)
                                  0x8 (size before relaxing)
 .rodata.str1.1
                0x00000000        0x8 C:/Program Files/TeliumSDK/SDK11.16.8.02/SDKTPLUS/HW_T2/gnu_434/lib/eft30tplus.lib(libgrtp1.o)
 .rodata.str1.1
                0x00000000        0x8 C:/Program Files/TeliumSDK/SDK11.16.8.02/SDKTPLUS/HW_T2/gnu_434/lib/eft30tplus.lib(paramtp1.o)
 .rodata.str1.1
                0x00000000        0x8 C:/Program Files/TeliumSDK/SDK11.16.8.02/SDKTPLUS/HW_T2/gnu_434/lib/eft30tplus.lib(pinpadtp1.o)
 .rodata.str1.1
                0x00000000        0x8 C:/Program Files/TeliumSDK/SDK11.16.8.02/SDKTPLUS/HW_T2/gnu_434/lib/eft30tplus.lib(toolstp1.o)
 .rodata.str1.1
                0x0001e480        0x5 C:/Program Files/TeliumSDK/SDK11.16.8.02/SDKTPLUS/HW_T2/gnu_434/lib/SECTPLUS.lib(SECLibOpenClose.o)
                                  0xd (size before relaxing)
 .rodata        0x0001e485        0xc C:/Program Files/TeliumSDK/SDK11.16.8.02/SDKTPLUS/HW_T2/gnu_434/lib/SECTPLUS.lib(SECLibOpenClose.o)
 .rodata.str1.1
                0x0001e491        0xc C:/Program Files/TeliumSDK/SDK11.16.8.02/SDKTPLUS/HW_T2/gnu_434/lib/SECTPLUS.lib(SEC1.o)
 .rodata.str1.1
                0x0001e49d        0xc C:/Program Files/TeliumSDK/SDK11.16.8.02/SDKTPLUS/HW_T2/gnu_434/lib/SECTPLUS.lib(SEC7.o)
 .rodata.str1.1
                0x0001e4a9        0xe C:/Program Files/TeliumSDK/SDK11.16.8.02/SDKTPLUS/HW_T2/gnu_434/lib/SECTPLUS.lib(SEC8.o)
 .rodata.str1.1
                0x0001e4b7        0xe C:/Program Files/TeliumSDK/SDK11.16.8.02/SDKTPLUS/HW_T2/gnu_434/lib/SECTPLUS.lib(SEC9.o)
 .rodata.str1.1
                0x0001e4c5       0x11 C:/Program Files/TeliumSDK/SDK11.16.8.02/SDKTPLUS/HW_T2/gnu_434/lib/SECTPLUS.lib(SEC10.o)
 .rodata.str1.1
                0x0001e4d6       0x11 C:/Program Files/TeliumSDK/SDK11.16.8.02/SDKTPLUS/HW_T2/gnu_434/lib/SECTPLUS.lib(SEC11.o)
 .rodata.str1.1
                0x0001e4e7       0x15 C:/Program Files/TeliumSDK/SDK11.16.8.02/SDKTPLUS/HW_T2/gnu_434/lib/SECTPLUS.lib(SEC19.o)
 .rodata.str1.1
                0x0001e4fc        0xf C:/Program Files/TeliumSDK/SDK11.16.8.02/SDKTPLUS/HW_T2/gnu_434/lib/SECTPLUS.lib(SEC20.o)
 .rodata.str1.1
                0x0001e50b        0xc C:/Program Files/TeliumSDK/SDK11.16.8.02/SDKTPLUS/HW_T2/gnu_434/lib/SECTPLUS.lib(SEC21.o)
 .rodata.str1.1
                0x0001e517       0x11 C:/Program Files/TeliumSDK/SDK11.16.8.02/SDKTPLUS/HW_T2/gnu_434/lib/SECTPLUS.lib(SEC22.o)
 .rodata.str1.1
                0x0001e528        0xd C:/Program Files/TeliumSDK/SDK11.16.8.02/SDKTPLUS/HW_T2/gnu_434/lib/SECTPLUS.lib(SEC23.o)
 .rodata.str1.1
                0x0001e535        0xc C:/Program Files/TeliumSDK/SDK11.16.8.02/SDKTPLUS/HW_T2/gnu_434/lib/SECTPLUS.lib(SEC24.o)
 .rodata.str1.1
                0x0001e541        0xf C:/Program Files/TeliumSDK/SDK11.16.8.02/SDKTPLUS/HW_T2/gnu_434/lib/SECTPLUS.lib(SEC34.o)
 .rodata.str1.1
                0x0001e550       0x11 C:/Program Files/TeliumSDK/SDK11.16.8.02/SDKTPLUS/HW_T2/gnu_434/lib/SECTPLUS.lib(SEC37.o)
 .rodata.str1.1
                0x0001e561        0xe C:/Program Files/TeliumSDK/SDK11.16.8.02/SDKTPLUS/HW_T2/gnu_434/lib/SECTPLUS.lib(SEC38.o)
 .rodata.str1.1
                0x0001e56f       0x10 C:/Program Files/TeliumSDK/SDK11.16.8.02/SDKTPLUS/HW_T2/gnu_434/lib/SECTPLUS.lib(SEC54.o)
 .rodata.str1.1
                0x0001e57f       0xbf C:/Program Files/TeliumSDK/SDK11.16.8.02/SDKTPLUS/HW_T2/gnu_434/lib/LinkLayerExeInterface_TPlus.lib(LinkLayerServices.o)
                                 0xc0 (size before relaxing)
 .rodata.str1.1
                0x0001e63e       0x5b C:/Program Files/TeliumSDK/SDK11.16.8.02/SDKTPLUS/HW_T2/gnu_434/lib/ExtraGPRS.lib(EXTRA_GPRS_link.o)
 .rodata.str1.1
                0x0001e699       0x59 C:/Program Files/TeliumSDK/SDK11.16.8.02/SDKTPLUS/HW_T2/gnu_434/lib/FMG_TPlus.lib(VGE_FMG.o)
                                 0x5e (size before relaxing)
 *fill*         0x0001e6f2        0x2 00
 .rodata        0x0001e6f4       0x44 C:/Program Files/TeliumSDK/SDK11.16.8.02/SDKTPLUS/HW_T2/gnu_434/lib/FMG_TPlus.lib(md5.o)
 .rodata.str1.1
                0x0001e738       0x96 C:/Program Files/TeliumSDK/SDK11.16.8.02/SDKTPLUS/HW_T2/gnu_434/lib/TlvTree_TPlus.lib(Serializer_Xml.o)
                                 0xa7 (size before relaxing)
 .rodata.str1.1
                0x0001e7ce       0x59 C:/Program Files/TeliumSDK/SDK11.16.8.02/SDKTPLUS/HW_T2/gnu_434/lib/GRAPHICLIB.LIB(GL_link.o)
                                 0x6a (size before relaxing)
 .rodata.str1.1
                0x0001e827       0x14 C:/Program Files/TeliumSDK/SDK11.16.8.02/SDKTPLUS/HW_T2/gnu_434/lib/XMLs_TPlus.lib(XMLs_ProcessData.o)
 .rodata.str1.1
                0x00000000        0x1 C:/Program Files/TeliumSDK/SDK11.16.8.02/SDKTPLUS/HW_T2/gnu_434/lib/XMLs_TPlus.lib(XMLs_Parser.o)
 *fill*         0x0001e83b        0x1 00
 .rodata        0x0001e83c       0x14 C:/Program Files/TeliumSDK/SDK11.16.8.02/SDKTPLUS/HW_T2/gnu_434/lib/XMLs_TPlus.lib(XMLs_Stream.o)
 .rodata        0x0001e850      0x101 E:/IngeDev_8.18.0.5/toolchains/gnuArm4/arm-elf/lib/thumb/soft/interwork/libc.a(lib_a-ctype_.o)
                0x0001e850                _ctype_
 *fill*         0x0001e951        0x3 00
 .rodata        0x0001e954        0x4 E:/IngeDev_8.18.0.5/toolchains/gnuArm4/arm-elf/lib/thumb/soft/interwork/libc.a(lib_a-impure.o)
                0x0001e954                _global_impure_ptr
 .rodata.str1.1
                0x00000000       0x14 E:/IngeDev_8.18.0.5/toolchains/gnuArm4/arm-elf/lib/thumb/soft/interwork/libc.a(lib_a-impure.o)
                                  0x2 (size before relaxing)
 *(.gnu.linkonce.r.*)
                0x0001e958                __text_end = .
                0x00200000                . = 0x200000

.data           0x00200000      0xe70 load address 0x0001e958
                0x00200000                __data_start = .
 *(.data .data.*)
 .data          0x00200000        0x8 C:/Program Files/TeliumSDK/SDK11.16.8.02/SDKTPLUS/HW_T2/gnu_434/startfiles/cstartupTplus.o
                0x00200000                __stack_chk_guard
                0x00200004                __dso_handle
 .data          0x00200008        0x0 C:/Program Files/TeliumSDK/SDK11.16.8.02/SDKTPLUS/HW_T2/gnu_434/startfiles/libcpatch.o
 .data          0x00200008        0x0 Obj/GNU_ARM_DEBUG_T2/Main.o
 .data          0x00200008      0x108 Obj/GNU_ARM_DEBUG_T2/Entry.o
 .data          0x00200110        0x0 Obj/GNU_ARM_DEBUG_T2/Menu.o
 .data          0x00200110        0xc Obj/GNU_ARM_DEBUG_T2/ComGPRS.o
 .data          0x0020011c        0x0 Obj/GNU_ARM_DEBUG_T2/Goal.o
 .data          0x0020011c        0x0 Obj/GNU_ARM_DEBUG_T2/Mapapp.o
 .data          0x0020011c        0x0 Obj/GNU_ARM_DEBUG_T2/FMG.o
 .data          0x0020011c       0x14 Obj/GNU_ARM_DEBUG_T2/Utility.o
 .data          0x00200130        0x0 Obj/GNU_ARM_DEBUG_T2/Timer.o
 .data          0x00200130      0x400 Obj/GNU_ARM_DEBUG_T2/iso8583.o
 .data          0x00200530        0x0 Obj/GNU_ARM_DEBUG_T2/transaction.o
 .data          0x00200530        0x0 Obj/GNU_ARM_DEBUG_T2/globals.o
 .data          0x00200530        0x0 Obj/GNU_ARM_DEBUG_T2/magnetic.o
 .data          0x00200530        0xc Obj/GNU_ARM_DEBUG_T2/schemes.o
 .data          0x0020053c        0x0 Obj/GNU_ARM_DEBUG_T2/amount.o
 .data          0x0020053c        0x0 Obj/GNU_ARM_DEBUG_T2/printer.o
 .data          0x0020053c        0x4 C:/Program Files/TeliumSDK/SDK11.16.8.02/SDKTPLUS/HW_T2/gnu_434/lib/eft30tplus.lib(DLLExist.o)
 .data          0x00200540        0x4 C:/Program Files/TeliumSDK/SDK11.16.8.02/SDKTPLUS/HW_T2/gnu_434/lib/eft30tplus.lib(d_tolong.o)
 .data          0x00200544        0x4 C:/Program Files/TeliumSDK/SDK11.16.8.02/SDKTPLUS/HW_T2/gnu_434/lib/eft30tplus.lib(stdcam0.o)
 .data          0x00200548        0x0 C:/Program Files/TeliumSDK/SDK11.16.8.02/SDKTPLUS/HW_T2/gnu_434/lib/eft30tplus.lib(extenstp1.o)
 .data          0x00200548        0x4 C:/Program Files/TeliumSDK/SDK11.16.8.02/SDKTPLUS/HW_T2/gnu_434/lib/eft30tplus.lib(DisplayFooter.o)
 .data          0x0020054c        0x4 C:/Program Files/TeliumSDK/SDK11.16.8.02/SDKTPLUS/HW_T2/gnu_434/lib/eft30tplus.lib(DisplayHeader.o)
 .data          0x00200550        0x4 C:/Program Files/TeliumSDK/SDK11.16.8.02/SDKTPLUS/HW_T2/gnu_434/lib/eft30tplus.lib(DisplayLeds.o)
 .data          0x00200554        0x4 C:/Program Files/TeliumSDK/SDK11.16.8.02/SDKTPLUS/HW_T2/gnu_434/lib/eft30tplus.lib(IsFooter.o)
 .data          0x00200558        0x4 C:/Program Files/TeliumSDK/SDK11.16.8.02/SDKTPLUS/HW_T2/gnu_434/lib/eft30tplus.lib(IsHeader.o)
 .data          0x0020055c        0x4 C:/Program Files/TeliumSDK/SDK11.16.8.02/SDKTPLUS/HW_T2/gnu_434/lib/eft30tplus.lib(DrawExtendedString.o)
 .data          0x00200560        0x4 C:/Program Files/TeliumSDK/SDK11.16.8.02/SDKTPLUS/HW_T2/gnu_434/lib/eft30tplus.lib(InitContexteGraphique.o)
 .data          0x00200564        0x4 C:/Program Files/TeliumSDK/SDK11.16.8.02/SDKTPLUS/HW_T2/gnu_434/lib/eft30tplus.lib(PaintGraphics.o)
 .data          0x00200568        0x4 C:/Program Files/TeliumSDK/SDK11.16.8.02/SDKTPLUS/HW_T2/gnu_434/lib/eft30tplus.lib(_DrawExtendedString.o)
 .data          0x0020056c        0x0 C:/Program Files/TeliumSDK/SDK11.16.8.02/SDKTPLUS/HW_T2/gnu_434/lib/eft30tplus.lib(libgrtp1.o)
 .data          0x0020056c        0x4 C:/Program Files/TeliumSDK/SDK11.16.8.02/SDKTPLUS/HW_T2/gnu_434/lib/eft30tplus.lib(PSQ_Est_pinpad.o)
 .data          0x00200570        0x4 C:/Program Files/TeliumSDK/SDK11.16.8.02/SDKTPLUS/HW_T2/gnu_434/lib/eft30tplus.lib(PSQ_donner_type_pinpad.o)
 .data          0x00200574        0x0 C:/Program Files/TeliumSDK/SDK11.16.8.02/SDKTPLUS/HW_T2/gnu_434/lib/eft30tplus.lib(paramtp1.o)
 .data          0x00200574        0x4 C:/Program Files/TeliumSDK/SDK11.16.8.02/SDKTPLUS/HW_T2/gnu_434/lib/eft30tplus.lib(IsPPSConnected.o)
 .data          0x00200578        0x4 C:/Program Files/TeliumSDK/SDK11.16.8.02/SDKTPLUS/HW_T2/gnu_434/lib/eft30tplus.lib(PPS_SendTerminalRefRequestCommand.o)
 .data          0x0020057c        0x4 C:/Program Files/TeliumSDK/SDK11.16.8.02/SDKTPLUS/HW_T2/gnu_434/lib/eft30tplus.lib(PPS_firstline.o)
 .data          0x00200580        0x4 C:/Program Files/TeliumSDK/SDK11.16.8.02/SDKTPLUS/HW_T2/gnu_434/lib/eft30tplus.lib(PPS_newline.o)
 .data          0x00200584        0x0 C:/Program Files/TeliumSDK/SDK11.16.8.02/SDKTPLUS/HW_T2/gnu_434/lib/eft30tplus.lib(pinpadtp1.o)
 .data          0x00200584        0x4 C:/Program Files/TeliumSDK/SDK11.16.8.02/SDKTPLUS/HW_T2/gnu_434/lib/eft30tplus.lib(PPS_Display.o)
 .data          0x00200588        0x4 C:/Program Files/TeliumSDK/SDK11.16.8.02/SDKTPLUS/HW_T2/gnu_434/lib/eft30tplus.lib(Telium_Read_date.o)
 .data          0x0020058c        0x4 C:/Program Files/TeliumSDK/SDK11.16.8.02/SDKTPLUS/HW_T2/gnu_434/lib/eft30tplus.lib(BoosterType.o)
 .data          0x00200590        0x4 C:/Program Files/TeliumSDK/SDK11.16.8.02/SDKTPLUS/HW_T2/gnu_434/lib/eft30tplus.lib(IsColorDisplay.o)
 .data          0x00200594        0x4 C:/Program Files/TeliumSDK/SDK11.16.8.02/SDKTPLUS/HW_T2/gnu_434/lib/eft30tplus.lib(IsISO1.o)
 .data          0x00200598        0x4 C:/Program Files/TeliumSDK/SDK11.16.8.02/SDKTPLUS/HW_T2/gnu_434/lib/eft30tplus.lib(IsISO2.o)
 .data          0x0020059c        0x4 C:/Program Files/TeliumSDK/SDK11.16.8.02/SDKTPLUS/HW_T2/gnu_434/lib/eft30tplus.lib(IsISO3.o)
 .data          0x002005a0        0x4 C:/Program Files/TeliumSDK/SDK11.16.8.02/SDKTPLUS/HW_T2/gnu_434/lib/eft30tplus.lib(IsPrinter.o)
 .data          0x002005a4        0x4 C:/Program Files/TeliumSDK/SDK11.16.8.02/SDKTPLUS/HW_T2/gnu_434/lib/eft30tplus.lib(Telium_ServiceRegister.o)
 .data          0x002005a8        0x0 C:/Program Files/TeliumSDK/SDK11.16.8.02/SDKTPLUS/HW_T2/gnu_434/lib/eft30tplus.lib(Telium_Atoi.o)
 .data          0x002005a8        0x0 C:/Program Files/TeliumSDK/SDK11.16.8.02/SDKTPLUS/HW_T2/gnu_434/lib/eft30tplus.lib(Telium_Pprintf.o)
 .data          0x002005a8        0x0 C:/Program Files/TeliumSDK/SDK11.16.8.02/SDKTPLUS/HW_T2/gnu_434/lib/eft30tplus.lib(Telium_Printf.o)
 .data          0x002005a8        0x0 C:/Program Files/TeliumSDK/SDK11.16.8.02/SDKTPLUS/HW_T2/gnu_434/lib/eft30tplus.lib(Telium_Stdprt.o)
 .data          0x002005a8        0x0 C:/Program Files/TeliumSDK/SDK11.16.8.02/SDKTPLUS/HW_T2/gnu_434/lib/eft30tplus.lib(Telium_Sprintf.o)
 .data          0x002005a8        0x0 C:/Program Files/TeliumSDK/SDK11.16.8.02/SDKTPLUS/HW_T2/gnu_434/lib/eft30tplus.lib(sprintf.o)
 .data          0x002005a8        0x4 C:/Program Files/TeliumSDK/SDK11.16.8.02/SDKTPLUS/HW_T2/gnu_434/lib/eft30tplus.lib(TM_InitContexteGraphique.o)
 .data          0x002005ac        0x0 C:/Program Files/TeliumSDK/SDK11.16.8.02/SDKTPLUS/HW_T2/gnu_434/lib/eft30tplus.lib(toolstp1.o)
 .data          0x002005ac        0x0 C:/Program Files/TeliumSDK/SDK11.16.8.02/SDKTPLUS/HW_T2/gnu_434/lib/TRAP_TELIUM_PLUS.LIB(ApplicationGetCurrent.o)
 .data          0x002005ac        0x0 C:/Program Files/TeliumSDK/SDK11.16.8.02/SDKTPLUS/HW_T2/gnu_434/lib/TRAP_TELIUM_PLUS.LIB(FS_close.o)
 .data          0x002005ac        0x0 C:/Program Files/TeliumSDK/SDK11.16.8.02/SDKTPLUS/HW_T2/gnu_434/lib/TRAP_TELIUM_PLUS.LIB(FS_dskcreate.o)
 .data          0x002005ac        0x0 C:/Program Files/TeliumSDK/SDK11.16.8.02/SDKTPLUS/HW_T2/gnu_434/lib/TRAP_TELIUM_PLUS.LIB(FS_length.o)
 .data          0x002005ac        0x0 C:/Program Files/TeliumSDK/SDK11.16.8.02/SDKTPLUS/HW_T2/gnu_434/lib/TRAP_TELIUM_PLUS.LIB(FS_mount.o)
 .data          0x002005ac        0x0 C:/Program Files/TeliumSDK/SDK11.16.8.02/SDKTPLUS/HW_T2/gnu_434/lib/TRAP_TELIUM_PLUS.LIB(FS_open.o)
 .data          0x002005ac        0x0 C:/Program Files/TeliumSDK/SDK11.16.8.02/SDKTPLUS/HW_T2/gnu_434/lib/TRAP_TELIUM_PLUS.LIB(FS_read.o)
 .data          0x002005ac        0x0 C:/Program Files/TeliumSDK/SDK11.16.8.02/SDKTPLUS/HW_T2/gnu_434/lib/TRAP_TELIUM_PLUS.LIB(FS_unmount.o)
 .data          0x002005ac        0x0 C:/Program Files/TeliumSDK/SDK11.16.8.02/SDKTPLUS/HW_T2/gnu_434/lib/TRAP_TELIUM_PLUS.LIB(ObjectGetDescriptor.o)
 .data          0x002005ac        0x0 C:/Program Files/TeliumSDK/SDK11.16.8.02/SDKTPLUS/HW_T2/gnu_434/lib/TRAP_TELIUM_PLUS.LIB(ObjectGetInfo.o)
 .data          0x002005ac        0x0 C:/Program Files/TeliumSDK/SDK11.16.8.02/SDKTPLUS/HW_T2/gnu_434/lib/TRAP_TELIUM_PLUS.LIB(Telium_Exit.o)
 .data          0x002005ac        0x0 C:/Program Files/TeliumSDK/SDK11.16.8.02/SDKTPLUS/HW_T2/gnu_434/lib/TRAP_TELIUM_PLUS.LIB(Telium_Fclose.o)
 .data          0x002005ac        0x0 C:/Program Files/TeliumSDK/SDK11.16.8.02/SDKTPLUS/HW_T2/gnu_434/lib/TRAP_TELIUM_PLUS.LIB(Telium_Fopen.o)
 .data          0x002005ac        0x0 C:/Program Files/TeliumSDK/SDK11.16.8.02/SDKTPLUS/HW_T2/gnu_434/lib/TRAP_TELIUM_PLUS.LIB(Telium_Getc.o)
 .data          0x002005ac        0x0 C:/Program Files/TeliumSDK/SDK11.16.8.02/SDKTPLUS/HW_T2/gnu_434/lib/TRAP_TELIUM_PLUS.LIB(Telium_Is_iso1.o)
 .data          0x002005ac        0x0 C:/Program Files/TeliumSDK/SDK11.16.8.02/SDKTPLUS/HW_T2/gnu_434/lib/TRAP_TELIUM_PLUS.LIB(Telium_Is_iso2.o)
 .data          0x002005ac        0x0 C:/Program Files/TeliumSDK/SDK11.16.8.02/SDKTPLUS/HW_T2/gnu_434/lib/TRAP_TELIUM_PLUS.LIB(Telium_Is_iso3.o)
 .data          0x002005ac        0x0 C:/Program Files/TeliumSDK/SDK11.16.8.02/SDKTPLUS/HW_T2/gnu_434/lib/TRAP_TELIUM_PLUS.LIB(Telium_Reset_buf.o)
 .data          0x002005ac        0x0 C:/Program Files/TeliumSDK/SDK11.16.8.02/SDKTPLUS/HW_T2/gnu_434/lib/TRAP_TELIUM_PLUS.LIB(Telium_Status.o)
 .data          0x002005ac        0x0 C:/Program Files/TeliumSDK/SDK11.16.8.02/SDKTPLUS/HW_T2/gnu_434/lib/TRAP_TELIUM_PLUS.LIB(Telium_Stdin.o)
 .data          0x002005ac        0x0 C:/Program Files/TeliumSDK/SDK11.16.8.02/SDKTPLUS/HW_T2/gnu_434/lib/TRAP_TELIUM_PLUS.LIB(Telium_Stdout.o)
 .data          0x002005ac        0x0 C:/Program Files/TeliumSDK/SDK11.16.8.02/SDKTPLUS/HW_T2/gnu_434/lib/TRAP_TELIUM_PLUS.LIB(Telium_Stdperif.o)
 .data          0x002005ac        0x0 C:/Program Files/TeliumSDK/SDK11.16.8.02/SDKTPLUS/HW_T2/gnu_434/lib/TRAP_TELIUM_PLUS.LIB(Telium_Ttestall.o)
 .data          0x002005ac        0x0 C:/Program Files/TeliumSDK/SDK11.16.8.02/SDKTPLUS/HW_T2/gnu_434/lib/TRAP_TELIUM_PLUS.LIB(Telium_Vfprintf.o)
 .data          0x002005ac        0x0 C:/Program Files/TeliumSDK/SDK11.16.8.02/SDKTPLUS/HW_T2/gnu_434/lib/TRAP_TELIUM_PLUS.LIB(Telium_Vsprintf.o)
 .data          0x002005ac        0x0 C:/Program Files/TeliumSDK/SDK11.16.8.02/SDKTPLUS/HW_T2/gnu_434/lib/TRAP_TELIUM_PLUS.LIB(buzzer.o)
 .data          0x002005ac        0x0 C:/Program Files/TeliumSDK/SDK11.16.8.02/SDKTPLUS/HW_T2/gnu_434/lib/TRAP_TELIUM_PLUS.LIB(first_init.o)
 .data          0x002005ac        0x0 C:/Program Files/TeliumSDK/SDK11.16.8.02/SDKTPLUS/HW_T2/gnu_434/lib/TRAP_TELIUM_PLUS.LIB(raz_init.o)
 .data          0x002005ac        0x0 C:/Program Files/TeliumSDK/SDK11.16.8.02/SDKTPLUS/HW_T2/gnu_434/lib/TRAP_TELIUM_PLUS.LIB(ufree.o)
 .data          0x002005ac        0x0 C:/Program Files/TeliumSDK/SDK11.16.8.02/SDKTPLUS/HW_T2/gnu_434/lib/TRAP_TELIUM_PLUS.LIB(umalloc.o)
 .data          0x002005ac        0x0 C:/Program Files/TeliumSDK/SDK11.16.8.02/SDKTPLUS/HW_T2/gnu_434/lib/TRAP_TELIUM_PLUS.LIB(urealloc.o)
 .data          0x002005ac        0x0 C:/Program Files/TeliumSDK/SDK11.16.8.02/SDKTPLUS/HW_T2/gnu_434/lib/SECTPLUS.lib(SECLibOpenClose.o)
 .data          0x002005ac        0x0 C:/Program Files/TeliumSDK/SDK11.16.8.02/SDKTPLUS/HW_T2/gnu_434/lib/SECTPLUS.lib(SEC1.o)
 .data          0x002005ac        0x0 C:/Program Files/TeliumSDK/SDK11.16.8.02/SDKTPLUS/HW_T2/gnu_434/lib/SECTPLUS.lib(SEC7.o)
 .data          0x002005ac        0x0 C:/Program Files/TeliumSDK/SDK11.16.8.02/SDKTPLUS/HW_T2/gnu_434/lib/SECTPLUS.lib(SEC8.o)
 .data          0x002005ac        0x0 C:/Program Files/TeliumSDK/SDK11.16.8.02/SDKTPLUS/HW_T2/gnu_434/lib/SECTPLUS.lib(SEC9.o)
 .data          0x002005ac        0x0 C:/Program Files/TeliumSDK/SDK11.16.8.02/SDKTPLUS/HW_T2/gnu_434/lib/SECTPLUS.lib(SEC10.o)
 .data          0x002005ac        0x0 C:/Program Files/TeliumSDK/SDK11.16.8.02/SDKTPLUS/HW_T2/gnu_434/lib/SECTPLUS.lib(SEC11.o)
 .data          0x002005ac        0x0 C:/Program Files/TeliumSDK/SDK11.16.8.02/SDKTPLUS/HW_T2/gnu_434/lib/SECTPLUS.lib(SEC19.o)
 .data          0x002005ac        0x0 C:/Program Files/TeliumSDK/SDK11.16.8.02/SDKTPLUS/HW_T2/gnu_434/lib/SECTPLUS.lib(SEC20.o)
 .data          0x002005ac        0x0 C:/Program Files/TeliumSDK/SDK11.16.8.02/SDKTPLUS/HW_T2/gnu_434/lib/SECTPLUS.lib(SEC21.o)
 .data          0x002005ac        0x0 C:/Program Files/TeliumSDK/SDK11.16.8.02/SDKTPLUS/HW_T2/gnu_434/lib/SECTPLUS.lib(SEC22.o)
 .data          0x002005ac        0x0 C:/Program Files/TeliumSDK/SDK11.16.8.02/SDKTPLUS/HW_T2/gnu_434/lib/SECTPLUS.lib(SEC23.o)
 .data          0x002005ac        0x0 C:/Program Files/TeliumSDK/SDK11.16.8.02/SDKTPLUS/HW_T2/gnu_434/lib/SECTPLUS.lib(SEC24.o)
 .data          0x002005ac        0x0 C:/Program Files/TeliumSDK/SDK11.16.8.02/SDKTPLUS/HW_T2/gnu_434/lib/SECTPLUS.lib(SEC34.o)
 .data          0x002005ac        0x0 C:/Program Files/TeliumSDK/SDK11.16.8.02/SDKTPLUS/HW_T2/gnu_434/lib/SECTPLUS.lib(SEC37.o)
 .data          0x002005ac        0x0 C:/Program Files/TeliumSDK/SDK11.16.8.02/SDKTPLUS/HW_T2/gnu_434/lib/SECTPLUS.lib(SEC38.o)
 .data          0x002005ac        0x0 C:/Program Files/TeliumSDK/SDK11.16.8.02/SDKTPLUS/HW_T2/gnu_434/lib/SECTPLUS.lib(SEC54.o)
 .data          0x002005ac        0x0 C:/Program Files/TeliumSDK/SDK11.16.8.02/SDKTPLUS/HW_T2/gnu_434/lib/LinkLayerExeInterface_TPlus.lib(LinkLayerServices.o)
 *fill*         0x002005ac        0x4 00
 .data          0x002005b0       0x10 C:/Program Files/TeliumSDK/SDK11.16.8.02/SDKTPLUS/HW_T2/gnu_434/lib/ExtraGPRS.lib(gprs_GetInformation.o)
 .data          0x002005c0       0x10 C:/Program Files/TeliumSDK/SDK11.16.8.02/SDKTPLUS/HW_T2/gnu_434/lib/ExtraGPRS.lib(gprs_SetPinModeFree.o)
 .data          0x002005d0       0x10 C:/Program Files/TeliumSDK/SDK11.16.8.02/SDKTPLUS/HW_T2/gnu_434/lib/ExtraGPRS.lib(gprs_SubmitPuk.o)
 .data          0x002005e0        0x0 C:/Program Files/TeliumSDK/SDK11.16.8.02/SDKTPLUS/HW_T2/gnu_434/lib/ExtraGPRS.lib(EXTRA_GPRS_asm_link.o)
 .data          0x002005e0        0x0 C:/Program Files/TeliumSDK/SDK11.16.8.02/SDKTPLUS/HW_T2/gnu_434/lib/ExtraGPRS.lib(EXTRA_GPRS_link.o)
 .data          0x002005e0        0x0 C:/Program Files/TeliumSDK/SDK11.16.8.02/SDKTPLUS/HW_T2/gnu_434/lib/GTL_TPlus.lib(GTL_StdTimer.o)
 .data          0x002005e0        0xc C:/Program Files/TeliumSDK/SDK11.16.8.02/SDKTPLUS/HW_T2/gnu_434/lib/FMG_TPlus.lib(VGE_FMG.o)
                0x002005e0                g_FileType
 .data          0x002005ec        0x0 C:/Program Files/TeliumSDK/SDK11.16.8.02/SDKTPLUS/HW_T2/gnu_434/lib/FMG_TPlus.lib(md5.o)
 .data          0x002005ec        0x0 C:/Program Files/TeliumSDK/SDK11.16.8.02/SDKTPLUS/HW_T2/gnu_434/lib/TlvTree_TPlus.lib(Proxy.o)
 .data          0x002005ec        0x0 C:/Program Files/TeliumSDK/SDK11.16.8.02/SDKTPLUS/HW_T2/gnu_434/lib/TlvTree_TPlus.lib(Serializer.o)
 .data          0x002005ec        0x0 C:/Program Files/TeliumSDK/SDK11.16.8.02/SDKTPLUS/HW_T2/gnu_434/lib/TlvTree_TPlus.lib(Internal.o)
 .data          0x002005ec        0x0 C:/Program Files/TeliumSDK/SDK11.16.8.02/SDKTPLUS/HW_T2/gnu_434/lib/TlvTree_TPlus.lib(Serializer_Default.o)
 .data          0x002005ec        0x0 C:/Program Files/TeliumSDK/SDK11.16.8.02/SDKTPLUS/HW_T2/gnu_434/lib/TlvTree_TPlus.lib(Serializer_Xml.o)
 *fill*         0x002005ec        0x4 00
 .data          0x002005f0       0x10 C:/Program Files/TeliumSDK/SDK11.16.8.02/SDKTPLUS/HW_T2/gnu_434/lib/GRAPHICLIB.LIB(GL_Button_Create.o)
 .data          0x00200600       0x10 C:/Program Files/TeliumSDK/SDK11.16.8.02/SDKTPLUS/HW_T2/gnu_434/lib/GRAPHICLIB.LIB(GL_Dialog_Amount.o)
 .data          0x00200610       0x10 C:/Program Files/TeliumSDK/SDK11.16.8.02/SDKTPLUS/HW_T2/gnu_434/lib/GRAPHICLIB.LIB(GL_Dialog_Choice.o)
 .data          0x00200620       0x10 C:/Program Files/TeliumSDK/SDK11.16.8.02/SDKTPLUS/HW_T2/gnu_434/lib/GRAPHICLIB.LIB(GL_Dialog_Menu.o)
 .data          0x00200630       0x10 C:/Program Files/TeliumSDK/SDK11.16.8.02/SDKTPLUS/HW_T2/gnu_434/lib/GRAPHICLIB.LIB(GL_Dialog_Message.o)
 .data          0x00200640       0x10 C:/Program Files/TeliumSDK/SDK11.16.8.02/SDKTPLUS/HW_T2/gnu_434/lib/GRAPHICLIB.LIB(GL_Dialog_Password.o)
 .data          0x00200650       0x10 C:/Program Files/TeliumSDK/SDK11.16.8.02/SDKTPLUS/HW_T2/gnu_434/lib/GRAPHICLIB.LIB(GL_Dialog_Progress.o)
 .data          0x00200660       0x10 C:/Program Files/TeliumSDK/SDK11.16.8.02/SDKTPLUS/HW_T2/gnu_434/lib/GRAPHICLIB.LIB(GL_Dialog_Text.o)
 .data          0x00200670       0x10 C:/Program Files/TeliumSDK/SDK11.16.8.02/SDKTPLUS/HW_T2/gnu_434/lib/GRAPHICLIB.LIB(GL_Dialog_VirtualKeyboard.o)
 .data          0x00200680       0x10 C:/Program Files/TeliumSDK/SDK11.16.8.02/SDKTPLUS/HW_T2/gnu_434/lib/GRAPHICLIB.LIB(GL_Document_Create.o)
 .data          0x00200690       0x10 C:/Program Files/TeliumSDK/SDK11.16.8.02/SDKTPLUS/HW_T2/gnu_434/lib/GRAPHICLIB.LIB(GL_Document_Print.o)
 .data          0x002006a0       0x10 C:/Program Files/TeliumSDK/SDK11.16.8.02/SDKTPLUS/HW_T2/gnu_434/lib/GRAPHICLIB.LIB(GL_Drawing_Clear.o)
 .data          0x002006b0       0x10 C:/Program Files/TeliumSDK/SDK11.16.8.02/SDKTPLUS/HW_T2/gnu_434/lib/GRAPHICLIB.LIB(GL_Drawing_Create.o)
 .data          0x002006c0       0x10 C:/Program Files/TeliumSDK/SDK11.16.8.02/SDKTPLUS/HW_T2/gnu_434/lib/GRAPHICLIB.LIB(GL_Drawing_DrawEllipse.o)
 .data          0x002006d0       0x10 C:/Program Files/TeliumSDK/SDK11.16.8.02/SDKTPLUS/HW_T2/gnu_434/lib/GRAPHICLIB.LIB(GL_Drawing_DrawLine.o)
 .data          0x002006e0       0x10 C:/Program Files/TeliumSDK/SDK11.16.8.02/SDKTPLUS/HW_T2/gnu_434/lib/GRAPHICLIB.LIB(GL_Drawing_DrawRect.o)
 .data          0x002006f0       0x10 C:/Program Files/TeliumSDK/SDK11.16.8.02/SDKTPLUS/HW_T2/gnu_434/lib/GRAPHICLIB.LIB(GL_Drawing_DrawText.o)
 .data          0x00200700       0x10 C:/Program Files/TeliumSDK/SDK11.16.8.02/SDKTPLUS/HW_T2/gnu_434/lib/GRAPHICLIB.LIB(GL_Drawing_SetBrush.o)
 .data          0x00200710       0x10 C:/Program Files/TeliumSDK/SDK11.16.8.02/SDKTPLUS/HW_T2/gnu_434/lib/GRAPHICLIB.LIB(GL_Drawing_SetFont.o)
 .data          0x00200720       0x10 C:/Program Files/TeliumSDK/SDK11.16.8.02/SDKTPLUS/HW_T2/gnu_434/lib/GRAPHICLIB.LIB(GL_Drawing_SetPen.o)
 .data          0x00200730       0x10 C:/Program Files/TeliumSDK/SDK11.16.8.02/SDKTPLUS/HW_T2/gnu_434/lib/GRAPHICLIB.LIB(GL_GraphicLib_BindSingleKey.o)
 .data          0x00200740        0x4 C:/Program Files/TeliumSDK/SDK11.16.8.02/SDKTPLUS/HW_T2/gnu_434/lib/GRAPHICLIB.LIB(GL_GraphicLib_Create.o)
 *fill*         0x00200744        0xc 00
 .data          0x00200750       0x10 C:/Program Files/TeliumSDK/SDK11.16.8.02/SDKTPLUS/HW_T2/gnu_434/lib/GRAPHICLIB.LIB(GL_GraphicLib_IsTouchPresent.o)
 .data          0x00200760       0x10 C:/Program Files/TeliumSDK/SDK11.16.8.02/SDKTPLUS/HW_T2/gnu_434/lib/GRAPHICLIB.LIB(GL_GraphicLib_SetCharset.o)
 .data          0x00200770       0x10 C:/Program Files/TeliumSDK/SDK11.16.8.02/SDKTPLUS/HW_T2/gnu_434/lib/GRAPHICLIB.LIB(GL_GraphicLib_UnbindKey.o)
 .data          0x00200780       0x10 C:/Program Files/TeliumSDK/SDK11.16.8.02/SDKTPLUS/HW_T2/gnu_434/lib/GRAPHICLIB.LIB(GL_Label_Create.o)
 .data          0x00200790       0x10 C:/Program Files/TeliumSDK/SDK11.16.8.02/SDKTPLUS/HW_T2/gnu_434/lib/GRAPHICLIB.LIB(GL_Layout_Create.o)
 .data          0x002007a0       0x10 C:/Program Files/TeliumSDK/SDK11.16.8.02/SDKTPLUS/HW_T2/gnu_434/lib/GRAPHICLIB.LIB(GL_Message_GetKey.o)
 .data          0x002007b0       0x10 C:/Program Files/TeliumSDK/SDK11.16.8.02/SDKTPLUS/HW_T2/gnu_434/lib/GRAPHICLIB.LIB(GL_Message_GetWidget.o)
 .data          0x002007c0       0x10 C:/Program Files/TeliumSDK/SDK11.16.8.02/SDKTPLUS/HW_T2/gnu_434/lib/GRAPHICLIB.LIB(GL_Message_SetResult.o)
 .data          0x002007d0       0x10 C:/Program Files/TeliumSDK/SDK11.16.8.02/SDKTPLUS/HW_T2/gnu_434/lib/GRAPHICLIB.LIB(GL_Message_SetUserData.o)
 .data          0x002007e0       0x10 C:/Program Files/TeliumSDK/SDK11.16.8.02/SDKTPLUS/HW_T2/gnu_434/lib/GRAPHICLIB.LIB(GL_Picture_Create.o)
 .data          0x002007f0       0x10 C:/Program Files/TeliumSDK/SDK11.16.8.02/SDKTPLUS/HW_T2/gnu_434/lib/GRAPHICLIB.LIB(GL_Print_Create.o)
 .data          0x00200800       0x10 C:/Program Files/TeliumSDK/SDK11.16.8.02/SDKTPLUS/HW_T2/gnu_434/lib/GRAPHICLIB.LIB(GL_Timer_Create.o)
 .data          0x00200810       0x10 C:/Program Files/TeliumSDK/SDK11.16.8.02/SDKTPLUS/HW_T2/gnu_434/lib/GRAPHICLIB.LIB(GL_Timer_SetInterval.o)
 .data          0x00200820       0x10 C:/Program Files/TeliumSDK/SDK11.16.8.02/SDKTPLUS/HW_T2/gnu_434/lib/GRAPHICLIB.LIB(GL_Timer_Stop.o)
 .data          0x00200830       0x10 C:/Program Files/TeliumSDK/SDK11.16.8.02/SDKTPLUS/HW_T2/gnu_434/lib/GRAPHICLIB.LIB(GL_Widget_Destroy.o)
 .data          0x00200840       0x10 C:/Program Files/TeliumSDK/SDK11.16.8.02/SDKTPLUS/HW_T2/gnu_434/lib/GRAPHICLIB.LIB(GL_Widget_GetUserData.o)
 .data          0x00200850       0x10 C:/Program Files/TeliumSDK/SDK11.16.8.02/SDKTPLUS/HW_T2/gnu_434/lib/GRAPHICLIB.LIB(GL_Widget_RegisterCallback.o)
 .data          0x00200860       0x10 C:/Program Files/TeliumSDK/SDK11.16.8.02/SDKTPLUS/HW_T2/gnu_434/lib/GRAPHICLIB.LIB(GL_Widget_SearchId.o)
 .data          0x00200870       0x10 C:/Program Files/TeliumSDK/SDK11.16.8.02/SDKTPLUS/HW_T2/gnu_434/lib/GRAPHICLIB.LIB(GL_Widget_SetBackAlign.o)
 .data          0x00200880       0x10 C:/Program Files/TeliumSDK/SDK11.16.8.02/SDKTPLUS/HW_T2/gnu_434/lib/GRAPHICLIB.LIB(GL_Widget_SetBackColor.o)
 .data          0x00200890       0x10 C:/Program Files/TeliumSDK/SDK11.16.8.02/SDKTPLUS/HW_T2/gnu_434/lib/GRAPHICLIB.LIB(GL_Widget_SetBorders.o)
 .data          0x002008a0       0x10 C:/Program Files/TeliumSDK/SDK11.16.8.02/SDKTPLUS/HW_T2/gnu_434/lib/GRAPHICLIB.LIB(GL_Widget_SetExpand.o)
 .data          0x002008b0       0x10 C:/Program Files/TeliumSDK/SDK11.16.8.02/SDKTPLUS/HW_T2/gnu_434/lib/GRAPHICLIB.LIB(GL_Widget_SetFocusable.o)
 .data          0x002008c0       0x10 C:/Program Files/TeliumSDK/SDK11.16.8.02/SDKTPLUS/HW_T2/gnu_434/lib/GRAPHICLIB.LIB(GL_Widget_SetFontName.o)
 .data          0x002008d0       0x10 C:/Program Files/TeliumSDK/SDK11.16.8.02/SDKTPLUS/HW_T2/gnu_434/lib/GRAPHICLIB.LIB(GL_Widget_SetFontScale.o)
 .data          0x002008e0       0x10 C:/Program Files/TeliumSDK/SDK11.16.8.02/SDKTPLUS/HW_T2/gnu_434/lib/GRAPHICLIB.LIB(GL_Widget_SetFontStyle.o)
 .data          0x002008f0       0x10 C:/Program Files/TeliumSDK/SDK11.16.8.02/SDKTPLUS/HW_T2/gnu_434/lib/GRAPHICLIB.LIB(GL_Widget_SetForeColor.o)
 .data          0x00200900       0x10 C:/Program Files/TeliumSDK/SDK11.16.8.02/SDKTPLUS/HW_T2/gnu_434/lib/GRAPHICLIB.LIB(GL_Widget_SetGrow.o)
 .data          0x00200910       0x10 C:/Program Files/TeliumSDK/SDK11.16.8.02/SDKTPLUS/HW_T2/gnu_434/lib/GRAPHICLIB.LIB(GL_Widget_SetId.o)
 .data          0x00200920       0x10 C:/Program Files/TeliumSDK/SDK11.16.8.02/SDKTPLUS/HW_T2/gnu_434/lib/GRAPHICLIB.LIB(GL_Widget_SetItem.o)
 .data          0x00200930       0x10 C:/Program Files/TeliumSDK/SDK11.16.8.02/SDKTPLUS/HW_T2/gnu_434/lib/GRAPHICLIB.LIB(GL_Widget_SetMargins.o)
 .data          0x00200940       0x10 C:/Program Files/TeliumSDK/SDK11.16.8.02/SDKTPLUS/HW_T2/gnu_434/lib/GRAPHICLIB.LIB(GL_Widget_SetMinSize.o)
 .data          0x00200950       0x10 C:/Program Files/TeliumSDK/SDK11.16.8.02/SDKTPLUS/HW_T2/gnu_434/lib/GRAPHICLIB.LIB(GL_Widget_SetShortcut.o)
 .data          0x00200960       0x10 C:/Program Files/TeliumSDK/SDK11.16.8.02/SDKTPLUS/HW_T2/gnu_434/lib/GRAPHICLIB.LIB(GL_Widget_SetShrink.o)
 .data          0x00200970       0x10 C:/Program Files/TeliumSDK/SDK11.16.8.02/SDKTPLUS/HW_T2/gnu_434/lib/GRAPHICLIB.LIB(GL_Widget_SetSize.o)
 .data          0x00200980       0x10 C:/Program Files/TeliumSDK/SDK11.16.8.02/SDKTPLUS/HW_T2/gnu_434/lib/GRAPHICLIB.LIB(GL_Widget_SetSource.o)
 .data          0x00200990       0x10 C:/Program Files/TeliumSDK/SDK11.16.8.02/SDKTPLUS/HW_T2/gnu_434/lib/GRAPHICLIB.LIB(GL_Widget_SetText.o)
 .data          0x002009a0       0x10 C:/Program Files/TeliumSDK/SDK11.16.8.02/SDKTPLUS/HW_T2/gnu_434/lib/GRAPHICLIB.LIB(GL_Widget_SetTextAlign.o)
 .data          0x002009b0       0x10 C:/Program Files/TeliumSDK/SDK11.16.8.02/SDKTPLUS/HW_T2/gnu_434/lib/GRAPHICLIB.LIB(GL_Widget_SetTextPaddings.o)
 .data          0x002009c0       0x10 C:/Program Files/TeliumSDK/SDK11.16.8.02/SDKTPLUS/HW_T2/gnu_434/lib/GRAPHICLIB.LIB(GL_Widget_SetTransformation.o)
 .data          0x002009d0       0x10 C:/Program Files/TeliumSDK/SDK11.16.8.02/SDKTPLUS/HW_T2/gnu_434/lib/GRAPHICLIB.LIB(GL_Widget_SetVisible.o)
 .data          0x002009e0       0x10 C:/Program Files/TeliumSDK/SDK11.16.8.02/SDKTPLUS/HW_T2/gnu_434/lib/GRAPHICLIB.LIB(GL_Widget_SetWrap.o)
 .data          0x002009f0       0x10 C:/Program Files/TeliumSDK/SDK11.16.8.02/SDKTPLUS/HW_T2/gnu_434/lib/GRAPHICLIB.LIB(GL_Widget_UnregisterCallback.o)
 .data          0x00200a00       0x10 C:/Program Files/TeliumSDK/SDK11.16.8.02/SDKTPLUS/HW_T2/gnu_434/lib/GRAPHICLIB.LIB(GL_Window_Create.o)
 .data          0x00200a10       0x10 C:/Program Files/TeliumSDK/SDK11.16.8.02/SDKTPLUS/HW_T2/gnu_434/lib/GRAPHICLIB.LIB(GL_Window_Dispatch.o)
 .data          0x00200a20       0x10 C:/Program Files/TeliumSDK/SDK11.16.8.02/SDKTPLUS/HW_T2/gnu_434/lib/GRAPHICLIB.LIB(GL_Window_GetResult.o)
 .data          0x00200a30       0x10 C:/Program Files/TeliumSDK/SDK11.16.8.02/SDKTPLUS/HW_T2/gnu_434/lib/GRAPHICLIB.LIB(GL_Window_MainLoop.o)
 .data          0x00200a40        0x0 C:/Program Files/TeliumSDK/SDK11.16.8.02/SDKTPLUS/HW_T2/gnu_434/lib/GRAPHICLIB.LIB(GL_link.o)
 .data          0x00200a40        0x0 C:/Program Files/TeliumSDK/SDK11.16.8.02/SDKTPLUS/HW_T2/gnu_434/lib/GRAPHICLIB.LIB(gl_asm_link.o)
 .data          0x00200a40        0x0 C:/Program Files/TeliumSDK/SDK11.16.8.02/SDKTPLUS/HW_T2/gnu_434/lib/OSLAYER.LIB(OSL_Dll_Close.o)
 .data          0x00200a40        0x0 C:/Program Files/TeliumSDK/SDK11.16.8.02/SDKTPLUS/HW_T2/gnu_434/lib/OSLAYER.LIB(OSL_Dll_GetSymbolByName.o)
 .data          0x00200a40        0x0 C:/Program Files/TeliumSDK/SDK11.16.8.02/SDKTPLUS/HW_T2/gnu_434/lib/OSLAYER.LIB(OSL_Dll_Open.o)
 .data          0x00200a40        0x0 C:/Program Files/TeliumSDK/SDK11.16.8.02/SDKTPLUS/HW_T2/gnu_434/lib/OSLAYER.LIB(OSL_Dll_OpenByAppliType.o)
 .data          0x00200a40        0x0 C:/Program Files/TeliumSDK/SDK11.16.8.02/SDKTPLUS/HW_T2/gnu_434/lib/OSLAYER.LIB(OSL_TimeStp_ElapsedMs.o)
 .data          0x00200a40        0x0 C:/Program Files/TeliumSDK/SDK11.16.8.02/SDKTPLUS/HW_T2/gnu_434/lib/OSLAYER.LIB(OSL_TimeStp_Now.o)
 .data          0x00200a40        0x4 C:/Program Files/TeliumSDK/SDK11.16.8.02/SDKTPLUS/HW_T2/gnu_434/lib/eft30tplus.lib(Telium_ServiceCall.o)
 .data          0x00200a44        0x0 C:/Program Files/TeliumSDK/SDK11.16.8.02/SDKTPLUS/HW_T2/gnu_434/lib/TRAP_TELIUM_PLUS.LIB(FS_exist.o)
 .data          0x00200a44        0x0 C:/Program Files/TeliumSDK/SDK11.16.8.02/SDKTPLUS/HW_T2/gnu_434/lib/TRAP_TELIUM_PLUS.LIB(FS_rename.o)
 .data          0x00200a44        0x0 C:/Program Files/TeliumSDK/SDK11.16.8.02/SDKTPLUS/HW_T2/gnu_434/lib/TRAP_TELIUM_PLUS.LIB(FS_seek.o)
 .data          0x00200a44        0x0 C:/Program Files/TeliumSDK/SDK11.16.8.02/SDKTPLUS/HW_T2/gnu_434/lib/TRAP_TELIUM_PLUS.LIB(FS_unlink.o)
 .data          0x00200a44        0x0 C:/Program Files/TeliumSDK/SDK11.16.8.02/SDKTPLUS/HW_T2/gnu_434/lib/TRAP_TELIUM_PLUS.LIB(FS_write.o)
 .data          0x00200a44        0x0 C:/Program Files/TeliumSDK/SDK11.16.8.02/SDKTPLUS/HW_T2/gnu_434/lib/TRAP_TELIUM_PLUS.LIB(ObjectLoad.o)
 .data          0x00200a44        0x0 C:/Program Files/TeliumSDK/SDK11.16.8.02/SDKTPLUS/HW_T2/gnu_434/lib/TRAP_TELIUM_PLUS.LIB(PageAlloc.o)
 .data          0x00200a44        0x0 C:/Program Files/TeliumSDK/SDK11.16.8.02/SDKTPLUS/HW_T2/gnu_434/lib/TRAP_TELIUM_PLUS.LIB(PageFree.o)
 .data          0x00200a44        0x0 C:/Program Files/TeliumSDK/SDK11.16.8.02/SDKTPLUS/HW_T2/gnu_434/lib/TRAP_TELIUM_PLUS.LIB(TMT_Retrieve_Clock.o)
 .data          0x00200a44        0x0 C:/Program Files/TeliumSDK/SDK11.16.8.02/SDKTPLUS/HW_T2/gnu_434/lib/TRAP_TELIUM_PLUS.LIB(upload_diagnostic_txt.o)
 .data          0x00200a44        0x0 C:/Program Files/TeliumSDK/SDK11.16.8.02/SDKTPLUS/HW_T2/gnu_434/lib/XMLs_TPlus.lib(XMLs_Attributes.o)
 .data          0x00200a44        0x0 C:/Program Files/TeliumSDK/SDK11.16.8.02/SDKTPLUS/HW_T2/gnu_434/lib/XMLs_TPlus.lib(XMLs_Common.o)
 .data          0x00200a44        0x0 C:/Program Files/TeliumSDK/SDK11.16.8.02/SDKTPLUS/HW_T2/gnu_434/lib/XMLs_TPlus.lib(XMLs_Options.o)
 .data          0x00200a44        0x0 C:/Program Files/TeliumSDK/SDK11.16.8.02/SDKTPLUS/HW_T2/gnu_434/lib/XMLs_TPlus.lib(XMLs_ProcessData.o)
 .data          0x00200a44        0x0 C:/Program Files/TeliumSDK/SDK11.16.8.02/SDKTPLUS/HW_T2/gnu_434/lib/XMLs_TPlus.lib(XMLs.o)
 .data          0x00200a44        0x0 C:/Program Files/TeliumSDK/SDK11.16.8.02/SDKTPLUS/HW_T2/gnu_434/lib/XMLs_TPlus.lib(XMLs_Buffer.o)
 .data          0x00200a44        0x0 C:/Program Files/TeliumSDK/SDK11.16.8.02/SDKTPLUS/HW_T2/gnu_434/lib/XMLs_TPlus.lib(XMLs_Parser.o)
 .data          0x00200a44        0x0 C:/Program Files/TeliumSDK/SDK11.16.8.02/SDKTPLUS/HW_T2/gnu_434/lib/XMLs_TPlus.lib(XMLs_Stream.o)
 .data          0x00200a44        0x0 E:/IngeDev_8.18.0.5/toolchains/gnuArm4/arm-elf/lib/thumb/soft/interwork/libc.a(lib_a-memcmp.o)
 .data          0x00200a44        0x0 E:/IngeDev_8.18.0.5/toolchains/gnuArm4/arm-elf/lib/thumb/soft/interwork/libc.a(lib_a-memcpy.o)
 .data          0x00200a44        0x0 E:/IngeDev_8.18.0.5/toolchains/gnuArm4/arm-elf/lib/thumb/soft/interwork/libc.a(lib_a-memmove.o)
 .data          0x00200a44        0x0 E:/IngeDev_8.18.0.5/toolchains/gnuArm4/arm-elf/lib/thumb/soft/interwork/libc.a(lib_a-memset.o)
 .data          0x00200a44        0x0 E:/IngeDev_8.18.0.5/toolchains/gnuArm4/arm-elf/lib/thumb/soft/interwork/libc.a(lib_a-strcasecmp.o)
 .data          0x00200a44        0x0 E:/IngeDev_8.18.0.5/toolchains/gnuArm4/arm-elf/lib/thumb/soft/interwork/libc.a(lib_a-strcat.o)
 .data          0x00200a44        0x0 E:/IngeDev_8.18.0.5/toolchains/gnuArm4/arm-elf/lib/thumb/soft/interwork/libc.a(lib_a-strchr.o)
 .data          0x00200a44        0x0 E:/IngeDev_8.18.0.5/toolchains/gnuArm4/arm-elf/lib/thumb/soft/interwork/libc.a(lib_a-strcmp.o)
 .data          0x00200a44        0x0 E:/IngeDev_8.18.0.5/toolchains/gnuArm4/arm-elf/lib/thumb/soft/interwork/libc.a(lib_a-strcpy.o)
 .data          0x00200a44        0x0 E:/IngeDev_8.18.0.5/toolchains/gnuArm4/arm-elf/lib/thumb/soft/interwork/libc.a(lib_a-strlen.o)
 .data          0x00200a44        0x0 E:/IngeDev_8.18.0.5/toolchains/gnuArm4/arm-elf/lib/thumb/soft/interwork/libc.a(lib_a-strncpy.o)
 .data          0x00200a44        0x0 E:/IngeDev_8.18.0.5/toolchains/gnuArm4/arm-elf/lib/thumb/soft/interwork/libc.a(lib_a-strrchr.o)
 .data          0x00200a44        0x0 E:/IngeDev_8.18.0.5/toolchains/gnuArm4/arm-elf/lib/thumb/soft/interwork/libc.a(lib_a-strtoul.o)
 .data          0x00200a44        0x4 E:/IngeDev_8.18.0.5/toolchains/gnuArm4/arm-elf/lib/thumb/soft/interwork/libc.a(lib_a-ctype_.o)
                0x00200a44                __ctype_ptr__
 .data          0x00200a48      0x428 E:/IngeDev_8.18.0.5/toolchains/gnuArm4/arm-elf/lib/thumb/soft/interwork/libc.a(lib_a-impure.o)
                0x00200a48                _impure_ptr
 .data          0x00200e70        0x0 E:/IngeDev_8.18.0.5/toolchains/gnuArm4/lib/gcc/arm-elf/4.3.4/thumb/soft/interwork/libgcc.a(_udivsi3.o)
 .data          0x00200e70        0x0 E:/IngeDev_8.18.0.5/toolchains/gnuArm4/lib/gcc/arm-elf/4.3.4/thumb/soft/interwork/libgcc.a(_divsi3.o)
 .data          0x00200e70        0x0 E:/IngeDev_8.18.0.5/toolchains/gnuArm4/lib/gcc/arm-elf/4.3.4/thumb/soft/interwork/libgcc.a(_umodsi3.o)
 .data          0x00200e70        0x0 E:/IngeDev_8.18.0.5/toolchains/gnuArm4/lib/gcc/arm-elf/4.3.4/thumb/soft/interwork/libgcc.a(_modsi3.o)
 .data          0x00200e70        0x0 E:/IngeDev_8.18.0.5/toolchains/gnuArm4/lib/gcc/arm-elf/4.3.4/thumb/soft/interwork/libgcc.a(_dvmd_tls.o)
 *(.gnu.linkonce.d.*)
                0x00200e70                __data_end = .

.bss            0x00200e70    0x13d88 load address 0x0001f7c8
                0x00200e70                __bss_start = .
 *(.bss .bss.*)
 .bss           0x00200e70        0x0 C:/Program Files/TeliumSDK/SDK11.16.8.02/SDKTPLUS/HW_T2/gnu_434/startfiles/cstartupTplus.o
 .bss           0x00200e70        0x0 C:/Program Files/TeliumSDK/SDK11.16.8.02/SDKTPLUS/HW_T2/gnu_434/startfiles/libcpatch.o
 .bss           0x00200e70        0x0 Obj/GNU_ARM_DEBUG_T2/Main.o
 .bss           0x00200e70       0x54 Obj/GNU_ARM_DEBUG_T2/Entry.o
                0x00200e70                gGoalGraphicLibInstance
 .bss           0x00200ec4       0x10 Obj/GNU_ARM_DEBUG_T2/Menu.o
                0x00200ecc                hTsc
                0x00200ed0                hPrn
 .bss           0x00200ed4        0x0 Obj/GNU_ARM_DEBUG_T2/ComGPRS.o
 .bss           0x00200ed4        0x0 Obj/GNU_ARM_DEBUG_T2/Goal.o
 .bss           0x00200ed4        0x0 Obj/GNU_ARM_DEBUG_T2/Mapapp.o
 .bss           0x00200ed4       0x24 Obj/GNU_ARM_DEBUG_T2/FMG.o
 .bss           0x00200ef8       0x10 Obj/GNU_ARM_DEBUG_T2/Utility.o
 .bss           0x00200f08       0x20 Obj/GNU_ARM_DEBUG_T2/Timer.o
 .bss           0x00200f28        0x0 Obj/GNU_ARM_DEBUG_T2/iso8583.o
 .bss           0x00200f28        0x8 Obj/GNU_ARM_DEBUG_T2/transaction.o
 .bss           0x00200f30       0x28 Obj/GNU_ARM_DEBUG_T2/globals.o
 .bss           0x00200f58        0x0 Obj/GNU_ARM_DEBUG_T2/magnetic.o
 .bss           0x00200f58        0x0 Obj/GNU_ARM_DEBUG_T2/schemes.o
 .bss           0x00200f58        0x0 Obj/GNU_ARM_DEBUG_T2/amount.o
 .bss           0x00200f58        0x0 Obj/GNU_ARM_DEBUG_T2/printer.o
 .bss           0x00200f58        0x0 C:/Program Files/TeliumSDK/SDK11.16.8.02/SDKTPLUS/HW_T2/gnu_434/lib/eft30tplus.lib(DLLExist.o)
 .bss           0x00200f58        0x0 C:/Program Files/TeliumSDK/SDK11.16.8.02/SDKTPLUS/HW_T2/gnu_434/lib/eft30tplus.lib(d_tolong.o)
 .bss           0x00200f58        0x0 C:/Program Files/TeliumSDK/SDK11.16.8.02/SDKTPLUS/HW_T2/gnu_434/lib/eft30tplus.lib(stdcam0.o)
 .bss           0x00200f58        0x8 C:/Program Files/TeliumSDK/SDK11.16.8.02/SDKTPLUS/HW_T2/gnu_434/lib/eft30tplus.lib(extenstp1.o)
                0x00200f58                DllGetProcAddress3
                0x00200f5c                extens_Dll
 .bss           0x00200f60        0x0 C:/Program Files/TeliumSDK/SDK11.16.8.02/SDKTPLUS/HW_T2/gnu_434/lib/eft30tplus.lib(DisplayFooter.o)
 .bss           0x00200f60        0x0 C:/Program Files/TeliumSDK/SDK11.16.8.02/SDKTPLUS/HW_T2/gnu_434/lib/eft30tplus.lib(DisplayHeader.o)
 .bss           0x00200f60        0x0 C:/Program Files/TeliumSDK/SDK11.16.8.02/SDKTPLUS/HW_T2/gnu_434/lib/eft30tplus.lib(DisplayLeds.o)
 .bss           0x00200f60        0x0 C:/Program Files/TeliumSDK/SDK11.16.8.02/SDKTPLUS/HW_T2/gnu_434/lib/eft30tplus.lib(IsFooter.o)
 .bss           0x00200f60        0x0 C:/Program Files/TeliumSDK/SDK11.16.8.02/SDKTPLUS/HW_T2/gnu_434/lib/eft30tplus.lib(IsHeader.o)
 .bss           0x00200f60        0x0 C:/Program Files/TeliumSDK/SDK11.16.8.02/SDKTPLUS/HW_T2/gnu_434/lib/eft30tplus.lib(DrawExtendedString.o)
 .bss           0x00200f60        0x0 C:/Program Files/TeliumSDK/SDK11.16.8.02/SDKTPLUS/HW_T2/gnu_434/lib/eft30tplus.lib(InitContexteGraphique.o)
 .bss           0x00200f60        0x0 C:/Program Files/TeliumSDK/SDK11.16.8.02/SDKTPLUS/HW_T2/gnu_434/lib/eft30tplus.lib(PaintGraphics.o)
 .bss           0x00200f60        0x0 C:/Program Files/TeliumSDK/SDK11.16.8.02/SDKTPLUS/HW_T2/gnu_434/lib/eft30tplus.lib(_DrawExtendedString.o)
 .bss           0x00200f60        0x8 C:/Program Files/TeliumSDK/SDK11.16.8.02/SDKTPLUS/HW_T2/gnu_434/lib/eft30tplus.lib(libgrtp1.o)
                0x00200f60                DllGetProcAddress6
                0x00200f64                libgr_Dll
 .bss           0x00200f68        0x0 C:/Program Files/TeliumSDK/SDK11.16.8.02/SDKTPLUS/HW_T2/gnu_434/lib/eft30tplus.lib(PSQ_Est_pinpad.o)
 .bss           0x00200f68        0x0 C:/Program Files/TeliumSDK/SDK11.16.8.02/SDKTPLUS/HW_T2/gnu_434/lib/eft30tplus.lib(PSQ_donner_type_pinpad.o)
 .bss           0x00200f68        0x8 C:/Program Files/TeliumSDK/SDK11.16.8.02/SDKTPLUS/HW_T2/gnu_434/lib/eft30tplus.lib(paramtp1.o)
                0x00200f68                DllGetProcAddress7
                0x00200f6c                param_Dll
 .bss           0x00200f70        0x0 C:/Program Files/TeliumSDK/SDK11.16.8.02/SDKTPLUS/HW_T2/gnu_434/lib/eft30tplus.lib(IsPPSConnected.o)
 .bss           0x00200f70        0x0 C:/Program Files/TeliumSDK/SDK11.16.8.02/SDKTPLUS/HW_T2/gnu_434/lib/eft30tplus.lib(PPS_SendTerminalRefRequestCommand.o)
 .bss           0x00200f70        0x0 C:/Program Files/TeliumSDK/SDK11.16.8.02/SDKTPLUS/HW_T2/gnu_434/lib/eft30tplus.lib(PPS_firstline.o)
 .bss           0x00200f70        0x0 C:/Program Files/TeliumSDK/SDK11.16.8.02/SDKTPLUS/HW_T2/gnu_434/lib/eft30tplus.lib(PPS_newline.o)
 .bss           0x00200f70        0x8 C:/Program Files/TeliumSDK/SDK11.16.8.02/SDKTPLUS/HW_T2/gnu_434/lib/eft30tplus.lib(pinpadtp1.o)
                0x00200f70                DllGetProcAddress9
                0x00200f74                pinpadDll
 .bss           0x00200f78        0x0 C:/Program Files/TeliumSDK/SDK11.16.8.02/SDKTPLUS/HW_T2/gnu_434/lib/eft30tplus.lib(PPS_Display.o)
 .bss           0x00200f78        0x0 C:/Program Files/TeliumSDK/SDK11.16.8.02/SDKTPLUS/HW_T2/gnu_434/lib/eft30tplus.lib(Telium_Read_date.o)
 .bss           0x00200f78        0x0 C:/Program Files/TeliumSDK/SDK11.16.8.02/SDKTPLUS/HW_T2/gnu_434/lib/eft30tplus.lib(BoosterType.o)
 .bss           0x00200f78        0x0 C:/Program Files/TeliumSDK/SDK11.16.8.02/SDKTPLUS/HW_T2/gnu_434/lib/eft30tplus.lib(IsColorDisplay.o)
 .bss           0x00200f78        0x0 C:/Program Files/TeliumSDK/SDK11.16.8.02/SDKTPLUS/HW_T2/gnu_434/lib/eft30tplus.lib(IsISO1.o)
 .bss           0x00200f78        0x0 C:/Program Files/TeliumSDK/SDK11.16.8.02/SDKTPLUS/HW_T2/gnu_434/lib/eft30tplus.lib(IsISO2.o)
 .bss           0x00200f78        0x0 C:/Program Files/TeliumSDK/SDK11.16.8.02/SDKTPLUS/HW_T2/gnu_434/lib/eft30tplus.lib(IsISO3.o)
 .bss           0x00200f78        0x0 C:/Program Files/TeliumSDK/SDK11.16.8.02/SDKTPLUS/HW_T2/gnu_434/lib/eft30tplus.lib(IsPrinter.o)
 .bss           0x00200f78        0x0 C:/Program Files/TeliumSDK/SDK11.16.8.02/SDKTPLUS/HW_T2/gnu_434/lib/eft30tplus.lib(Telium_ServiceRegister.o)
 .bss           0x00200f78        0x0 C:/Program Files/TeliumSDK/SDK11.16.8.02/SDKTPLUS/HW_T2/gnu_434/lib/eft30tplus.lib(Telium_Atoi.o)
 .bss           0x00200f78        0x0 C:/Program Files/TeliumSDK/SDK11.16.8.02/SDKTPLUS/HW_T2/gnu_434/lib/eft30tplus.lib(Telium_Pprintf.o)
 .bss           0x00200f78        0x0 C:/Program Files/TeliumSDK/SDK11.16.8.02/SDKTPLUS/HW_T2/gnu_434/lib/eft30tplus.lib(Telium_Printf.o)
 .bss           0x00200f78        0x0 C:/Program Files/TeliumSDK/SDK11.16.8.02/SDKTPLUS/HW_T2/gnu_434/lib/eft30tplus.lib(Telium_Stdprt.o)
 .bss           0x00200f78        0x0 C:/Program Files/TeliumSDK/SDK11.16.8.02/SDKTPLUS/HW_T2/gnu_434/lib/eft30tplus.lib(Telium_Sprintf.o)
 .bss           0x00200f78        0x0 C:/Program Files/TeliumSDK/SDK11.16.8.02/SDKTPLUS/HW_T2/gnu_434/lib/eft30tplus.lib(sprintf.o)
 .bss           0x00200f78        0x0 C:/Program Files/TeliumSDK/SDK11.16.8.02/SDKTPLUS/HW_T2/gnu_434/lib/eft30tplus.lib(TM_InitContexteGraphique.o)
 .bss           0x00200f78        0x8 C:/Program Files/TeliumSDK/SDK11.16.8.02/SDKTPLUS/HW_T2/gnu_434/lib/eft30tplus.lib(toolstp1.o)
                0x00200f78                toolsDll
                0x00200f7c                DllGetProcAddressTools
 .bss           0x00200f80        0x0 C:/Program Files/TeliumSDK/SDK11.16.8.02/SDKTPLUS/HW_T2/gnu_434/lib/TRAP_TELIUM_PLUS.LIB(ApplicationGetCurrent.o)
 .bss           0x00200f80        0x0 C:/Program Files/TeliumSDK/SDK11.16.8.02/SDKTPLUS/HW_T2/gnu_434/lib/TRAP_TELIUM_PLUS.LIB(FS_close.o)
 .bss           0x00200f80        0x0 C:/Program Files/TeliumSDK/SDK11.16.8.02/SDKTPLUS/HW_T2/gnu_434/lib/TRAP_TELIUM_PLUS.LIB(FS_dskcreate.o)
 .bss           0x00200f80        0x0 C:/Program Files/TeliumSDK/SDK11.16.8.02/SDKTPLUS/HW_T2/gnu_434/lib/TRAP_TELIUM_PLUS.LIB(FS_length.o)
 .bss           0x00200f80        0x0 C:/Program Files/TeliumSDK/SDK11.16.8.02/SDKTPLUS/HW_T2/gnu_434/lib/TRAP_TELIUM_PLUS.LIB(FS_mount.o)
 .bss           0x00200f80        0x0 C:/Program Files/TeliumSDK/SDK11.16.8.02/SDKTPLUS/HW_T2/gnu_434/lib/TRAP_TELIUM_PLUS.LIB(FS_open.o)
 .bss           0x00200f80        0x0 C:/Program Files/TeliumSDK/SDK11.16.8.02/SDKTPLUS/HW_T2/gnu_434/lib/TRAP_TELIUM_PLUS.LIB(FS_read.o)
 .bss           0x00200f80        0x0 C:/Program Files/TeliumSDK/SDK11.16.8.02/SDKTPLUS/HW_T2/gnu_434/lib/TRAP_TELIUM_PLUS.LIB(FS_unmount.o)
 .bss           0x00200f80        0x0 C:/Program Files/TeliumSDK/SDK11.16.8.02/SDKTPLUS/HW_T2/gnu_434/lib/TRAP_TELIUM_PLUS.LIB(ObjectGetDescriptor.o)
 .bss           0x00200f80        0x0 C:/Program Files/TeliumSDK/SDK11.16.8.02/SDKTPLUS/HW_T2/gnu_434/lib/TRAP_TELIUM_PLUS.LIB(ObjectGetInfo.o)
 .bss           0x00200f80        0x0 C:/Program Files/TeliumSDK/SDK11.16.8.02/SDKTPLUS/HW_T2/gnu_434/lib/TRAP_TELIUM_PLUS.LIB(Telium_Exit.o)
 .bss           0x00200f80        0x0 C:/Program Files/TeliumSDK/SDK11.16.8.02/SDKTPLUS/HW_T2/gnu_434/lib/TRAP_TELIUM_PLUS.LIB(Telium_Fclose.o)
 .bss           0x00200f80        0x0 C:/Program Files/TeliumSDK/SDK11.16.8.02/SDKTPLUS/HW_T2/gnu_434/lib/TRAP_TELIUM_PLUS.LIB(Telium_Fopen.o)
 .bss           0x00200f80        0x0 C:/Program Files/TeliumSDK/SDK11.16.8.02/SDKTPLUS/HW_T2/gnu_434/lib/TRAP_TELIUM_PLUS.LIB(Telium_Getc.o)
 .bss           0x00200f80        0x0 C:/Program Files/TeliumSDK/SDK11.16.8.02/SDKTPLUS/HW_T2/gnu_434/lib/TRAP_TELIUM_PLUS.LIB(Telium_Is_iso1.o)
 .bss           0x00200f80        0x0 C:/Program Files/TeliumSDK/SDK11.16.8.02/SDKTPLUS/HW_T2/gnu_434/lib/TRAP_TELIUM_PLUS.LIB(Telium_Is_iso2.o)
 .bss           0x00200f80        0x0 C:/Program Files/TeliumSDK/SDK11.16.8.02/SDKTPLUS/HW_T2/gnu_434/lib/TRAP_TELIUM_PLUS.LIB(Telium_Is_iso3.o)
 .bss           0x00200f80        0x0 C:/Program Files/TeliumSDK/SDK11.16.8.02/SDKTPLUS/HW_T2/gnu_434/lib/TRAP_TELIUM_PLUS.LIB(Telium_Reset_buf.o)
 .bss           0x00200f80        0x0 C:/Program Files/TeliumSDK/SDK11.16.8.02/SDKTPLUS/HW_T2/gnu_434/lib/TRAP_TELIUM_PLUS.LIB(Telium_Status.o)
 .bss           0x00200f80        0x0 C:/Program Files/TeliumSDK/SDK11.16.8.02/SDKTPLUS/HW_T2/gnu_434/lib/TRAP_TELIUM_PLUS.LIB(Telium_Stdin.o)
 .bss           0x00200f80        0x0 C:/Program Files/TeliumSDK/SDK11.16.8.02/SDKTPLUS/HW_T2/gnu_434/lib/TRAP_TELIUM_PLUS.LIB(Telium_Stdout.o)
 .bss           0x00200f80        0x0 C:/Program Files/TeliumSDK/SDK11.16.8.02/SDKTPLUS/HW_T2/gnu_434/lib/TRAP_TELIUM_PLUS.LIB(Telium_Stdperif.o)
 .bss           0x00200f80        0x0 C:/Program Files/TeliumSDK/SDK11.16.8.02/SDKTPLUS/HW_T2/gnu_434/lib/TRAP_TELIUM_PLUS.LIB(Telium_Ttestall.o)
 .bss           0x00200f80        0x0 C:/Program Files/TeliumSDK/SDK11.16.8.02/SDKTPLUS/HW_T2/gnu_434/lib/TRAP_TELIUM_PLUS.LIB(Telium_Vfprintf.o)
 .bss           0x00200f80        0x0 C:/Program Files/TeliumSDK/SDK11.16.8.02/SDKTPLUS/HW_T2/gnu_434/lib/TRAP_TELIUM_PLUS.LIB(Telium_Vsprintf.o)
 .bss           0x00200f80        0x0 C:/Program Files/TeliumSDK/SDK11.16.8.02/SDKTPLUS/HW_T2/gnu_434/lib/TRAP_TELIUM_PLUS.LIB(buzzer.o)
 .bss           0x00200f80        0x0 C:/Program Files/TeliumSDK/SDK11.16.8.02/SDKTPLUS/HW_T2/gnu_434/lib/TRAP_TELIUM_PLUS.LIB(first_init.o)
 .bss           0x00200f80        0x0 C:/Program Files/TeliumSDK/SDK11.16.8.02/SDKTPLUS/HW_T2/gnu_434/lib/TRAP_TELIUM_PLUS.LIB(raz_init.o)
 .bss           0x00200f80        0x0 C:/Program Files/TeliumSDK/SDK11.16.8.02/SDKTPLUS/HW_T2/gnu_434/lib/TRAP_TELIUM_PLUS.LIB(ufree.o)
 .bss           0x00200f80        0x0 C:/Program Files/TeliumSDK/SDK11.16.8.02/SDKTPLUS/HW_T2/gnu_434/lib/TRAP_TELIUM_PLUS.LIB(umalloc.o)
 .bss           0x00200f80        0x0 C:/Program Files/TeliumSDK/SDK11.16.8.02/SDKTPLUS/HW_T2/gnu_434/lib/TRAP_TELIUM_PLUS.LIB(urealloc.o)
 .bss           0x00200f80        0x4 C:/Program Files/TeliumSDK/SDK11.16.8.02/SDKTPLUS/HW_T2/gnu_434/lib/SECTPLUS.lib(SECLibOpenClose.o)
                0x00200f80                __SEC_DllGetProcAddress
 .bss           0x00200f84        0x4 C:/Program Files/TeliumSDK/SDK11.16.8.02/SDKTPLUS/HW_T2/gnu_434/lib/SECTPLUS.lib(SEC1.o)
 .bss           0x00200f88        0x4 C:/Program Files/TeliumSDK/SDK11.16.8.02/SDKTPLUS/HW_T2/gnu_434/lib/SECTPLUS.lib(SEC7.o)
 .bss           0x00200f8c        0x4 C:/Program Files/TeliumSDK/SDK11.16.8.02/SDKTPLUS/HW_T2/gnu_434/lib/SECTPLUS.lib(SEC8.o)
 .bss           0x00200f90        0x4 C:/Program Files/TeliumSDK/SDK11.16.8.02/SDKTPLUS/HW_T2/gnu_434/lib/SECTPLUS.lib(SEC9.o)
 .bss           0x00200f94        0x4 C:/Program Files/TeliumSDK/SDK11.16.8.02/SDKTPLUS/HW_T2/gnu_434/lib/SECTPLUS.lib(SEC10.o)
 .bss           0x00200f98        0x4 C:/Program Files/TeliumSDK/SDK11.16.8.02/SDKTPLUS/HW_T2/gnu_434/lib/SECTPLUS.lib(SEC11.o)
 .bss           0x00200f9c        0x4 C:/Program Files/TeliumSDK/SDK11.16.8.02/SDKTPLUS/HW_T2/gnu_434/lib/SECTPLUS.lib(SEC19.o)
 .bss           0x00200fa0        0x4 C:/Program Files/TeliumSDK/SDK11.16.8.02/SDKTPLUS/HW_T2/gnu_434/lib/SECTPLUS.lib(SEC20.o)
 .bss           0x00200fa4        0x4 C:/Program Files/TeliumSDK/SDK11.16.8.02/SDKTPLUS/HW_T2/gnu_434/lib/SECTPLUS.lib(SEC21.o)
 .bss           0x00200fa8        0x4 C:/Program Files/TeliumSDK/SDK11.16.8.02/SDKTPLUS/HW_T2/gnu_434/lib/SECTPLUS.lib(SEC22.o)
 .bss           0x00200fac        0x4 C:/Program Files/TeliumSDK/SDK11.16.8.02/SDKTPLUS/HW_T2/gnu_434/lib/SECTPLUS.lib(SEC23.o)
 .bss           0x00200fb0        0x4 C:/Program Files/TeliumSDK/SDK11.16.8.02/SDKTPLUS/HW_T2/gnu_434/lib/SECTPLUS.lib(SEC24.o)
 .bss           0x00200fb4        0x4 C:/Program Files/TeliumSDK/SDK11.16.8.02/SDKTPLUS/HW_T2/gnu_434/lib/SECTPLUS.lib(SEC34.o)
 .bss           0x00200fb8        0x4 C:/Program Files/TeliumSDK/SDK11.16.8.02/SDKTPLUS/HW_T2/gnu_434/lib/SECTPLUS.lib(SEC37.o)
 .bss           0x00200fbc        0x4 C:/Program Files/TeliumSDK/SDK11.16.8.02/SDKTPLUS/HW_T2/gnu_434/lib/SECTPLUS.lib(SEC38.o)
 .bss           0x00200fc0        0x4 C:/Program Files/TeliumSDK/SDK11.16.8.02/SDKTPLUS/HW_T2/gnu_434/lib/SECTPLUS.lib(SEC54.o)
 .bss           0x00200fc4        0x0 C:/Program Files/TeliumSDK/SDK11.16.8.02/SDKTPLUS/HW_T2/gnu_434/lib/LinkLayerExeInterface_TPlus.lib(LinkLayerServices.o)
 .bss           0x00200fc4        0x0 C:/Program Files/TeliumSDK/SDK11.16.8.02/SDKTPLUS/HW_T2/gnu_434/lib/ExtraGPRS.lib(gprs_GetInformation.o)
 .bss           0x00200fc4        0x0 C:/Program Files/TeliumSDK/SDK11.16.8.02/SDKTPLUS/HW_T2/gnu_434/lib/ExtraGPRS.lib(gprs_SetPinModeFree.o)
 .bss           0x00200fc4        0x0 C:/Program Files/TeliumSDK/SDK11.16.8.02/SDKTPLUS/HW_T2/gnu_434/lib/ExtraGPRS.lib(gprs_SubmitPuk.o)
 .bss           0x00200fc4        0x0 C:/Program Files/TeliumSDK/SDK11.16.8.02/SDKTPLUS/HW_T2/gnu_434/lib/ExtraGPRS.lib(EXTRA_GPRS_asm_link.o)
 .bss           0x00200fc4        0x8 C:/Program Files/TeliumSDK/SDK11.16.8.02/SDKTPLUS/HW_T2/gnu_434/lib/ExtraGPRS.lib(EXTRA_GPRS_link.o)
 .bss           0x00200fcc        0x0 C:/Program Files/TeliumSDK/SDK11.16.8.02/SDKTPLUS/HW_T2/gnu_434/lib/GTL_TPlus.lib(GTL_StdTimer.o)
 .bss           0x00200fcc       0x11 C:/Program Files/TeliumSDK/SDK11.16.8.02/SDKTPLUS/HW_T2/gnu_434/lib/FMG_TPlus.lib(VGE_FMG.o)
 .bss           0x00200fdd        0x0 C:/Program Files/TeliumSDK/SDK11.16.8.02/SDKTPLUS/HW_T2/gnu_434/lib/FMG_TPlus.lib(md5.o)
 .bss           0x00200fdd        0x0 C:/Program Files/TeliumSDK/SDK11.16.8.02/SDKTPLUS/HW_T2/gnu_434/lib/TlvTree_TPlus.lib(Proxy.o)
 .bss           0x00200fdd        0x0 C:/Program Files/TeliumSDK/SDK11.16.8.02/SDKTPLUS/HW_T2/gnu_434/lib/TlvTree_TPlus.lib(Serializer.o)
 .bss           0x00200fdd        0x0 C:/Program Files/TeliumSDK/SDK11.16.8.02/SDKTPLUS/HW_T2/gnu_434/lib/TlvTree_TPlus.lib(Internal.o)
 .bss           0x00200fdd        0x0 C:/Program Files/TeliumSDK/SDK11.16.8.02/SDKTPLUS/HW_T2/gnu_434/lib/TlvTree_TPlus.lib(Serializer_Default.o)
 .bss           0x00200fdd        0x0 C:/Program Files/TeliumSDK/SDK11.16.8.02/SDKTPLUS/HW_T2/gnu_434/lib/TlvTree_TPlus.lib(Serializer_Xml.o)
 .bss           0x00200fdd        0x0 C:/Program Files/TeliumSDK/SDK11.16.8.02/SDKTPLUS/HW_T2/gnu_434/lib/GRAPHICLIB.LIB(GL_Button_Create.o)
 .bss           0x00200fdd        0x0 C:/Program Files/TeliumSDK/SDK11.16.8.02/SDKTPLUS/HW_T2/gnu_434/lib/GRAPHICLIB.LIB(GL_Dialog_Amount.o)
 .bss           0x00200fdd        0x0 C:/Program Files/TeliumSDK/SDK11.16.8.02/SDKTPLUS/HW_T2/gnu_434/lib/GRAPHICLIB.LIB(GL_Dialog_Choice.o)
 .bss           0x00200fdd        0x0 C:/Program Files/TeliumSDK/SDK11.16.8.02/SDKTPLUS/HW_T2/gnu_434/lib/GRAPHICLIB.LIB(GL_Dialog_Menu.o)
 .bss           0x00200fdd        0x0 C:/Program Files/TeliumSDK/SDK11.16.8.02/SDKTPLUS/HW_T2/gnu_434/lib/GRAPHICLIB.LIB(GL_Dialog_Message.o)
 .bss           0x00200fdd        0x0 C:/Program Files/TeliumSDK/SDK11.16.8.02/SDKTPLUS/HW_T2/gnu_434/lib/GRAPHICLIB.LIB(GL_Dialog_Password.o)
 .bss           0x00200fdd        0x0 C:/Program Files/TeliumSDK/SDK11.16.8.02/SDKTPLUS/HW_T2/gnu_434/lib/GRAPHICLIB.LIB(GL_Dialog_Progress.o)
 .bss           0x00200fdd        0x0 C:/Program Files/TeliumSDK/SDK11.16.8.02/SDKTPLUS/HW_T2/gnu_434/lib/GRAPHICLIB.LIB(GL_Dialog_Text.o)
 .bss           0x00200fdd        0x0 C:/Program Files/TeliumSDK/SDK11.16.8.02/SDKTPLUS/HW_T2/gnu_434/lib/GRAPHICLIB.LIB(GL_Dialog_VirtualKeyboard.o)
 .bss           0x00200fdd        0x0 C:/Program Files/TeliumSDK/SDK11.16.8.02/SDKTPLUS/HW_T2/gnu_434/lib/GRAPHICLIB.LIB(GL_Document_Create.o)
 .bss           0x00200fdd        0x0 C:/Program Files/TeliumSDK/SDK11.16.8.02/SDKTPLUS/HW_T2/gnu_434/lib/GRAPHICLIB.LIB(GL_Document_Print.o)
 .bss           0x00200fdd        0x0 C:/Program Files/TeliumSDK/SDK11.16.8.02/SDKTPLUS/HW_T2/gnu_434/lib/GRAPHICLIB.LIB(GL_Drawing_Clear.o)
 .bss           0x00200fdd        0x0 C:/Program Files/TeliumSDK/SDK11.16.8.02/SDKTPLUS/HW_T2/gnu_434/lib/GRAPHICLIB.LIB(GL_Drawing_Create.o)
 .bss           0x00200fdd        0x0 C:/Program Files/TeliumSDK/SDK11.16.8.02/SDKTPLUS/HW_T2/gnu_434/lib/GRAPHICLIB.LIB(GL_Drawing_DrawEllipse.o)
 .bss           0x00200fdd        0x0 C:/Program Files/TeliumSDK/SDK11.16.8.02/SDKTPLUS/HW_T2/gnu_434/lib/GRAPHICLIB.LIB(GL_Drawing_DrawLine.o)
 .bss           0x00200fdd        0x0 C:/Program Files/TeliumSDK/SDK11.16.8.02/SDKTPLUS/HW_T2/gnu_434/lib/GRAPHICLIB.LIB(GL_Drawing_DrawRect.o)
 .bss           0x00200fdd        0x0 C:/Program Files/TeliumSDK/SDK11.16.8.02/SDKTPLUS/HW_T2/gnu_434/lib/GRAPHICLIB.LIB(GL_Drawing_DrawText.o)
 .bss           0x00200fdd        0x0 C:/Program Files/TeliumSDK/SDK11.16.8.02/SDKTPLUS/HW_T2/gnu_434/lib/GRAPHICLIB.LIB(GL_Drawing_SetBrush.o)
 .bss           0x00200fdd        0x0 C:/Program Files/TeliumSDK/SDK11.16.8.02/SDKTPLUS/HW_T2/gnu_434/lib/GRAPHICLIB.LIB(GL_Drawing_SetFont.o)
 .bss           0x00200fdd        0x0 C:/Program Files/TeliumSDK/SDK11.16.8.02/SDKTPLUS/HW_T2/gnu_434/lib/GRAPHICLIB.LIB(GL_Drawing_SetPen.o)
 .bss           0x00200fdd        0x0 C:/Program Files/TeliumSDK/SDK11.16.8.02/SDKTPLUS/HW_T2/gnu_434/lib/GRAPHICLIB.LIB(GL_GraphicLib_BindSingleKey.o)
 *fill*         0x00200fdd        0x3 00
 .bss           0x00200fe0        0x4 C:/Program Files/TeliumSDK/SDK11.16.8.02/SDKTPLUS/HW_T2/gnu_434/lib/GRAPHICLIB.LIB(GL_GraphicLib_Create.o)
 .bss           0x00200fe4        0x0 C:/Program Files/TeliumSDK/SDK11.16.8.02/SDKTPLUS/HW_T2/gnu_434/lib/GRAPHICLIB.LIB(GL_GraphicLib_IsTouchPresent.o)
 .bss           0x00200fe4        0x0 C:/Program Files/TeliumSDK/SDK11.16.8.02/SDKTPLUS/HW_T2/gnu_434/lib/GRAPHICLIB.LIB(GL_GraphicLib_SetCharset.o)
 .bss           0x00200fe4        0x0 C:/Program Files/TeliumSDK/SDK11.16.8.02/SDKTPLUS/HW_T2/gnu_434/lib/GRAPHICLIB.LIB(GL_GraphicLib_UnbindKey.o)
 .bss           0x00200fe4        0x0 C:/Program Files/TeliumSDK/SDK11.16.8.02/SDKTPLUS/HW_T2/gnu_434/lib/GRAPHICLIB.LIB(GL_Label_Create.o)
 .bss           0x00200fe4        0x0 C:/Program Files/TeliumSDK/SDK11.16.8.02/SDKTPLUS/HW_T2/gnu_434/lib/GRAPHICLIB.LIB(GL_Layout_Create.o)
 .bss           0x00200fe4        0x0 C:/Program Files/TeliumSDK/SDK11.16.8.02/SDKTPLUS/HW_T2/gnu_434/lib/GRAPHICLIB.LIB(GL_Message_GetKey.o)
 .bss           0x00200fe4        0x0 C:/Program Files/TeliumSDK/SDK11.16.8.02/SDKTPLUS/HW_T2/gnu_434/lib/GRAPHICLIB.LIB(GL_Message_GetWidget.o)
 .bss           0x00200fe4        0x0 C:/Program Files/TeliumSDK/SDK11.16.8.02/SDKTPLUS/HW_T2/gnu_434/lib/GRAPHICLIB.LIB(GL_Message_SetResult.o)
 .bss           0x00200fe4        0x0 C:/Program Files/TeliumSDK/SDK11.16.8.02/SDKTPLUS/HW_T2/gnu_434/lib/GRAPHICLIB.LIB(GL_Message_SetUserData.o)
 .bss           0x00200fe4        0x0 C:/Program Files/TeliumSDK/SDK11.16.8.02/SDKTPLUS/HW_T2/gnu_434/lib/GRAPHICLIB.LIB(GL_Picture_Create.o)
 .bss           0x00200fe4        0x0 C:/Program Files/TeliumSDK/SDK11.16.8.02/SDKTPLUS/HW_T2/gnu_434/lib/GRAPHICLIB.LIB(GL_Print_Create.o)
 .bss           0x00200fe4        0x0 C:/Program Files/TeliumSDK/SDK11.16.8.02/SDKTPLUS/HW_T2/gnu_434/lib/GRAPHICLIB.LIB(GL_Timer_Create.o)
 .bss           0x00200fe4        0x0 C:/Program Files/TeliumSDK/SDK11.16.8.02/SDKTPLUS/HW_T2/gnu_434/lib/GRAPHICLIB.LIB(GL_Timer_SetInterval.o)
 .bss           0x00200fe4        0x0 C:/Program Files/TeliumSDK/SDK11.16.8.02/SDKTPLUS/HW_T2/gnu_434/lib/GRAPHICLIB.LIB(GL_Timer_Stop.o)
 .bss           0x00200fe4        0x0 C:/Program Files/TeliumSDK/SDK11.16.8.02/SDKTPLUS/HW_T2/gnu_434/lib/GRAPHICLIB.LIB(GL_Widget_Destroy.o)
 .bss           0x00200fe4        0x0 C:/Program Files/TeliumSDK/SDK11.16.8.02/SDKTPLUS/HW_T2/gnu_434/lib/GRAPHICLIB.LIB(GL_Widget_GetUserData.o)
 .bss           0x00200fe4        0x0 C:/Program Files/TeliumSDK/SDK11.16.8.02/SDKTPLUS/HW_T2/gnu_434/lib/GRAPHICLIB.LIB(GL_Widget_RegisterCallback.o)
 .bss           0x00200fe4        0x0 C:/Program Files/TeliumSDK/SDK11.16.8.02/SDKTPLUS/HW_T2/gnu_434/lib/GRAPHICLIB.LIB(GL_Widget_SearchId.o)
 .bss           0x00200fe4        0x0 C:/Program Files/TeliumSDK/SDK11.16.8.02/SDKTPLUS/HW_T2/gnu_434/lib/GRAPHICLIB.LIB(GL_Widget_SetBackAlign.o)
 .bss           0x00200fe4        0x0 C:/Program Files/TeliumSDK/SDK11.16.8.02/SDKTPLUS/HW_T2/gnu_434/lib/GRAPHICLIB.LIB(GL_Widget_SetBackColor.o)
 .bss           0x00200fe4        0x0 C:/Program Files/TeliumSDK/SDK11.16.8.02/SDKTPLUS/HW_T2/gnu_434/lib/GRAPHICLIB.LIB(GL_Widget_SetBorders.o)
 .bss           0x00200fe4        0x0 C:/Program Files/TeliumSDK/SDK11.16.8.02/SDKTPLUS/HW_T2/gnu_434/lib/GRAPHICLIB.LIB(GL_Widget_SetExpand.o)
 .bss           0x00200fe4        0x0 C:/Program Files/TeliumSDK/SDK11.16.8.02/SDKTPLUS/HW_T2/gnu_434/lib/GRAPHICLIB.LIB(GL_Widget_SetFocusable.o)
 .bss           0x00200fe4        0x0 C:/Program Files/TeliumSDK/SDK11.16.8.02/SDKTPLUS/HW_T2/gnu_434/lib/GRAPHICLIB.LIB(GL_Widget_SetFontName.o)
 .bss           0x00200fe4        0x0 C:/Program Files/TeliumSDK/SDK11.16.8.02/SDKTPLUS/HW_T2/gnu_434/lib/GRAPHICLIB.LIB(GL_Widget_SetFontScale.o)
 .bss           0x00200fe4        0x0 C:/Program Files/TeliumSDK/SDK11.16.8.02/SDKTPLUS/HW_T2/gnu_434/lib/GRAPHICLIB.LIB(GL_Widget_SetFontStyle.o)
 .bss           0x00200fe4        0x0 C:/Program Files/TeliumSDK/SDK11.16.8.02/SDKTPLUS/HW_T2/gnu_434/lib/GRAPHICLIB.LIB(GL_Widget_SetForeColor.o)
 .bss           0x00200fe4        0x0 C:/Program Files/TeliumSDK/SDK11.16.8.02/SDKTPLUS/HW_T2/gnu_434/lib/GRAPHICLIB.LIB(GL_Widget_SetGrow.o)
 .bss           0x00200fe4        0x0 C:/Program Files/TeliumSDK/SDK11.16.8.02/SDKTPLUS/HW_T2/gnu_434/lib/GRAPHICLIB.LIB(GL_Widget_SetId.o)
 .bss           0x00200fe4        0x0 C:/Program Files/TeliumSDK/SDK11.16.8.02/SDKTPLUS/HW_T2/gnu_434/lib/GRAPHICLIB.LIB(GL_Widget_SetItem.o)
 .bss           0x00200fe4        0x0 C:/Program Files/TeliumSDK/SDK11.16.8.02/SDKTPLUS/HW_T2/gnu_434/lib/GRAPHICLIB.LIB(GL_Widget_SetMargins.o)
 .bss           0x00200fe4        0x0 C:/Program Files/TeliumSDK/SDK11.16.8.02/SDKTPLUS/HW_T2/gnu_434/lib/GRAPHICLIB.LIB(GL_Widget_SetMinSize.o)
 .bss           0x00200fe4        0x0 C:/Program Files/TeliumSDK/SDK11.16.8.02/SDKTPLUS/HW_T2/gnu_434/lib/GRAPHICLIB.LIB(GL_Widget_SetShortcut.o)
 .bss           0x00200fe4        0x0 C:/Program Files/TeliumSDK/SDK11.16.8.02/SDKTPLUS/HW_T2/gnu_434/lib/GRAPHICLIB.LIB(GL_Widget_SetShrink.o)
 .bss           0x00200fe4        0x0 C:/Program Files/TeliumSDK/SDK11.16.8.02/SDKTPLUS/HW_T2/gnu_434/lib/GRAPHICLIB.LIB(GL_Widget_SetSize.o)
 .bss           0x00200fe4        0x0 C:/Program Files/TeliumSDK/SDK11.16.8.02/SDKTPLUS/HW_T2/gnu_434/lib/GRAPHICLIB.LIB(GL_Widget_SetSource.o)
 .bss           0x00200fe4        0x0 C:/Program Files/TeliumSDK/SDK11.16.8.02/SDKTPLUS/HW_T2/gnu_434/lib/GRAPHICLIB.LIB(GL_Widget_SetText.o)
 .bss           0x00200fe4        0x0 C:/Program Files/TeliumSDK/SDK11.16.8.02/SDKTPLUS/HW_T2/gnu_434/lib/GRAPHICLIB.LIB(GL_Widget_SetTextAlign.o)
 .bss           0x00200fe4        0x0 C:/Program Files/TeliumSDK/SDK11.16.8.02/SDKTPLUS/HW_T2/gnu_434/lib/GRAPHICLIB.LIB(GL_Widget_SetTextPaddings.o)
 .bss           0x00200fe4        0x0 C:/Program Files/TeliumSDK/SDK11.16.8.02/SDKTPLUS/HW_T2/gnu_434/lib/GRAPHICLIB.LIB(GL_Widget_SetTransformation.o)
 .bss           0x00200fe4        0x0 C:/Program Files/TeliumSDK/SDK11.16.8.02/SDKTPLUS/HW_T2/gnu_434/lib/GRAPHICLIB.LIB(GL_Widget_SetVisible.o)
 .bss           0x00200fe4        0x0 C:/Program Files/TeliumSDK/SDK11.16.8.02/SDKTPLUS/HW_T2/gnu_434/lib/GRAPHICLIB.LIB(GL_Widget_SetWrap.o)
 .bss           0x00200fe4        0x0 C:/Program Files/TeliumSDK/SDK11.16.8.02/SDKTPLUS/HW_T2/gnu_434/lib/GRAPHICLIB.LIB(GL_Widget_UnregisterCallback.o)
 .bss           0x00200fe4        0x0 C:/Program Files/TeliumSDK/SDK11.16.8.02/SDKTPLUS/HW_T2/gnu_434/lib/GRAPHICLIB.LIB(GL_Window_Create.o)
 .bss           0x00200fe4        0x0 C:/Program Files/TeliumSDK/SDK11.16.8.02/SDKTPLUS/HW_T2/gnu_434/lib/GRAPHICLIB.LIB(GL_Window_Dispatch.o)
 .bss           0x00200fe4        0x0 C:/Program Files/TeliumSDK/SDK11.16.8.02/SDKTPLUS/HW_T2/gnu_434/lib/GRAPHICLIB.LIB(GL_Window_GetResult.o)
 .bss           0x00200fe4        0x0 C:/Program Files/TeliumSDK/SDK11.16.8.02/SDKTPLUS/HW_T2/gnu_434/lib/GRAPHICLIB.LIB(GL_Window_MainLoop.o)
 .bss           0x00200fe4        0x8 C:/Program Files/TeliumSDK/SDK11.16.8.02/SDKTPLUS/HW_T2/gnu_434/lib/GRAPHICLIB.LIB(GL_link.o)
 .bss           0x00200fec        0x0 C:/Program Files/TeliumSDK/SDK11.16.8.02/SDKTPLUS/HW_T2/gnu_434/lib/GRAPHICLIB.LIB(gl_asm_link.o)
 .bss           0x00200fec        0x0 C:/Program Files/TeliumSDK/SDK11.16.8.02/SDKTPLUS/HW_T2/gnu_434/lib/OSLAYER.LIB(OSL_Dll_Close.o)
 .bss           0x00200fec        0x0 C:/Program Files/TeliumSDK/SDK11.16.8.02/SDKTPLUS/HW_T2/gnu_434/lib/OSLAYER.LIB(OSL_Dll_GetSymbolByName.o)
 .bss           0x00200fec        0x0 C:/Program Files/TeliumSDK/SDK11.16.8.02/SDKTPLUS/HW_T2/gnu_434/lib/OSLAYER.LIB(OSL_Dll_Open.o)
 .bss           0x00200fec        0x0 C:/Program Files/TeliumSDK/SDK11.16.8.02/SDKTPLUS/HW_T2/gnu_434/lib/OSLAYER.LIB(OSL_Dll_OpenByAppliType.o)
 .bss           0x00200fec        0x0 C:/Program Files/TeliumSDK/SDK11.16.8.02/SDKTPLUS/HW_T2/gnu_434/lib/OSLAYER.LIB(OSL_TimeStp_ElapsedMs.o)
 .bss           0x00200fec        0x0 C:/Program Files/TeliumSDK/SDK11.16.8.02/SDKTPLUS/HW_T2/gnu_434/lib/OSLAYER.LIB(OSL_TimeStp_Now.o)
 .bss           0x00200fec        0x0 C:/Program Files/TeliumSDK/SDK11.16.8.02/SDKTPLUS/HW_T2/gnu_434/lib/eft30tplus.lib(Telium_ServiceCall.o)
 .bss           0x00200fec        0x0 C:/Program Files/TeliumSDK/SDK11.16.8.02/SDKTPLUS/HW_T2/gnu_434/lib/TRAP_TELIUM_PLUS.LIB(FS_exist.o)
 .bss           0x00200fec        0x0 C:/Program Files/TeliumSDK/SDK11.16.8.02/SDKTPLUS/HW_T2/gnu_434/lib/TRAP_TELIUM_PLUS.LIB(FS_rename.o)
 .bss           0x00200fec        0x0 C:/Program Files/TeliumSDK/SDK11.16.8.02/SDKTPLUS/HW_T2/gnu_434/lib/TRAP_TELIUM_PLUS.LIB(FS_seek.o)
 .bss           0x00200fec        0x0 C:/Program Files/TeliumSDK/SDK11.16.8.02/SDKTPLUS/HW_T2/gnu_434/lib/TRAP_TELIUM_PLUS.LIB(FS_unlink.o)
 .bss           0x00200fec        0x0 C:/Program Files/TeliumSDK/SDK11.16.8.02/SDKTPLUS/HW_T2/gnu_434/lib/TRAP_TELIUM_PLUS.LIB(FS_write.o)
 .bss           0x00200fec        0x0 C:/Program Files/TeliumSDK/SDK11.16.8.02/SDKTPLUS/HW_T2/gnu_434/lib/TRAP_TELIUM_PLUS.LIB(ObjectLoad.o)
 .bss           0x00200fec        0x0 C:/Program Files/TeliumSDK/SDK11.16.8.02/SDKTPLUS/HW_T2/gnu_434/lib/TRAP_TELIUM_PLUS.LIB(PageAlloc.o)
 .bss           0x00200fec        0x0 C:/Program Files/TeliumSDK/SDK11.16.8.02/SDKTPLUS/HW_T2/gnu_434/lib/TRAP_TELIUM_PLUS.LIB(PageFree.o)
 .bss           0x00200fec        0x0 C:/Program Files/TeliumSDK/SDK11.16.8.02/SDKTPLUS/HW_T2/gnu_434/lib/TRAP_TELIUM_PLUS.LIB(TMT_Retrieve_Clock.o)
 .bss           0x00200fec        0x0 C:/Program Files/TeliumSDK/SDK11.16.8.02/SDKTPLUS/HW_T2/gnu_434/lib/TRAP_TELIUM_PLUS.LIB(upload_diagnostic_txt.o)
 .bss           0x00200fec        0x0 C:/Program Files/TeliumSDK/SDK11.16.8.02/SDKTPLUS/HW_T2/gnu_434/lib/XMLs_TPlus.lib(XMLs_Attributes.o)
 .bss           0x00200fec        0x0 C:/Program Files/TeliumSDK/SDK11.16.8.02/SDKTPLUS/HW_T2/gnu_434/lib/XMLs_TPlus.lib(XMLs_Common.o)
 .bss           0x00200fec        0x0 C:/Program Files/TeliumSDK/SDK11.16.8.02/SDKTPLUS/HW_T2/gnu_434/lib/XMLs_TPlus.lib(XMLs_Options.o)
 .bss           0x00200fec        0x0 C:/Program Files/TeliumSDK/SDK11.16.8.02/SDKTPLUS/HW_T2/gnu_434/lib/XMLs_TPlus.lib(XMLs_ProcessData.o)
 .bss           0x00200fec        0x0 C:/Program Files/TeliumSDK/SDK11.16.8.02/SDKTPLUS/HW_T2/gnu_434/lib/XMLs_TPlus.lib(XMLs.o)
 .bss           0x00200fec        0x0 C:/Program Files/TeliumSDK/SDK11.16.8.02/SDKTPLUS/HW_T2/gnu_434/lib/XMLs_TPlus.lib(XMLs_Buffer.o)
 .bss           0x00200fec        0x0 C:/Program Files/TeliumSDK/SDK11.16.8.02/SDKTPLUS/HW_T2/gnu_434/lib/XMLs_TPlus.lib(XMLs_Parser.o)
 .bss           0x00200fec        0x0 C:/Program Files/TeliumSDK/SDK11.16.8.02/SDKTPLUS/HW_T2/gnu_434/lib/XMLs_TPlus.lib(XMLs_Stream.o)
 .bss           0x00200fec        0x0 E:/IngeDev_8.18.0.5/toolchains/gnuArm4/arm-elf/lib/thumb/soft/interwork/libc.a(lib_a-memcmp.o)
 .bss           0x00200fec        0x0 E:/IngeDev_8.18.0.5/toolchains/gnuArm4/arm-elf/lib/thumb/soft/interwork/libc.a(lib_a-memcpy.o)
 .bss           0x00200fec        0x0 E:/IngeDev_8.18.0.5/toolchains/gnuArm4/arm-elf/lib/thumb/soft/interwork/libc.a(lib_a-memmove.o)
 .bss           0x00200fec        0x0 E:/IngeDev_8.18.0.5/toolchains/gnuArm4/arm-elf/lib/thumb/soft/interwork/libc.a(lib_a-memset.o)
 .bss           0x00200fec        0x0 E:/IngeDev_8.18.0.5/toolchains/gnuArm4/arm-elf/lib/thumb/soft/interwork/libc.a(lib_a-strcasecmp.o)
 .bss           0x00200fec        0x0 E:/IngeDev_8.18.0.5/toolchains/gnuArm4/arm-elf/lib/thumb/soft/interwork/libc.a(lib_a-strcat.o)
 .bss           0x00200fec        0x0 E:/IngeDev_8.18.0.5/toolchains/gnuArm4/arm-elf/lib/thumb/soft/interwork/libc.a(lib_a-strchr.o)
 .bss           0x00200fec        0x0 E:/IngeDev_8.18.0.5/toolchains/gnuArm4/arm-elf/lib/thumb/soft/interwork/libc.a(lib_a-strcmp.o)
 .bss           0x00200fec        0x0 E:/IngeDev_8.18.0.5/toolchains/gnuArm4/arm-elf/lib/thumb/soft/interwork/libc.a(lib_a-strcpy.o)
 .bss           0x00200fec        0x0 E:/IngeDev_8.18.0.5/toolchains/gnuArm4/arm-elf/lib/thumb/soft/interwork/libc.a(lib_a-strlen.o)
 .bss           0x00200fec        0x0 E:/IngeDev_8.18.0.5/toolchains/gnuArm4/arm-elf/lib/thumb/soft/interwork/libc.a(lib_a-strncpy.o)
 .bss           0x00200fec        0x0 E:/IngeDev_8.18.0.5/toolchains/gnuArm4/arm-elf/lib/thumb/soft/interwork/libc.a(lib_a-strrchr.o)
 .bss           0x00200fec        0x0 E:/IngeDev_8.18.0.5/toolchains/gnuArm4/arm-elf/lib/thumb/soft/interwork/libc.a(lib_a-strtoul.o)
 .bss           0x00200fec        0x0 E:/IngeDev_8.18.0.5/toolchains/gnuArm4/arm-elf/lib/thumb/soft/interwork/libc.a(lib_a-ctype_.o)
 .bss           0x00200fec        0x0 E:/IngeDev_8.18.0.5/toolchains/gnuArm4/arm-elf/lib/thumb/soft/interwork/libc.a(lib_a-impure.o)
 .bss           0x00200fec        0x0 E:/IngeDev_8.18.0.5/toolchains/gnuArm4/lib/gcc/arm-elf/4.3.4/thumb/soft/interwork/libgcc.a(_udivsi3.o)
 .bss           0x00200fec        0x0 E:/IngeDev_8.18.0.5/toolchains/gnuArm4/lib/gcc/arm-elf/4.3.4/thumb/soft/interwork/libgcc.a(_divsi3.o)
 .bss           0x00200fec        0x0 E:/IngeDev_8.18.0.5/toolchains/gnuArm4/lib/gcc/arm-elf/4.3.4/thumb/soft/interwork/libgcc.a(_umodsi3.o)
 .bss           0x00200fec        0x0 E:/IngeDev_8.18.0.5/toolchains/gnuArm4/lib/gcc/arm-elf/4.3.4/thumb/soft/interwork/libgcc.a(_modsi3.o)
 .bss           0x00200fec        0x0 E:/IngeDev_8.18.0.5/toolchains/gnuArm4/lib/gcc/arm-elf/4.3.4/thumb/soft/interwork/libgcc.a(_dvmd_tls.o)
 *(.gnu.linkonce.b.*)
 *(COMMON)
 COMMON         0x00200fec        0xc Obj/GNU_ARM_DEBUG_T2/Menu.o
                0x00200fec                sSavedStatusLeds
                0x00200ff0                sSavedStatusFooter
                0x00200ff4                sSavedStatusHeader
 COMMON         0x00200ff8    0x12de2 Obj/GNU_ARM_DEBUG_T2/Mapapp.o
                0x00200ff8                isoField018
                0x00200ffd                isoField053
                0x0020100e                isoField107
                0x002013f6                isoField045
                0x00201400                isoField098
                0x002017e8                isoField011
                0x002017ef                billerReceipt
                0x00201bd7                isoField128
                0x00201fbf                isoField061
                0x00202023                isoField065
                0x0020240b                isoField048
                0x002027f3                isoField111
                0x00202bdb                isoField094
                0x00202fc3                isoField029
                0x00202fcd                isoField016
                0x00202fd2                isoField063
                0x002033ba                isoField060
                0x0020341e                isoField055
                0x0020361f                isoField106
                0x00203a07                isoField037
                0x00203a20                isoField126
                0x00203e08                isoField073
                0x002041f0                isoField031
                0x002041fa                isoField075
                0x002045e2                isoField006
                0x002045e6                isoField082
                0x002049ce                isoField086
                0x00204db6                isoField032
                0x00204e1a                isoMnuItm
                0x00204e2d                billerRef
                0x00205215                isoField025
                0x00205218                isoField123
                0x00205600                isoField109
                0x002059e8                isoField049
                0x002059f5                isoField043
                0x00205a46                isoField091
                0x00205e2e                isoField104
                0x00206216                isoField101
                0x002065fe                isoField084
                0x002069e6                isoField047
                0x00206dce                isoField004
                0x00206ddb                isoField113
                0x002071c3                isoField125
                0x002075ab                isoField071
                0x00207993                isoField079
                0x00207d7b                isoField121
                0x00208163                isoField041
                0x0020816c                isoField092
                0x00208554                isoField013
                0x00208559                isoField008
                0x00208562                isoField038
                0x0020856f                isoField014
                0x00208574                isoField085
                0x0020895c                isoField076
                0x00208d44                isoField024
                0x00208d49                isoField124
                0x00209131                isoField087
                0x00209519                isoField042
                0x00209538                isoField000
                0x0020953f                isoField039
                0x00209544                isoField007
                0x00209553                isoField119
                0x0020993b                isoField044
                0x00209945                isoField070
                0x00209d2d                isoField069
                0x0020a115                isoDrCr
                0x0020a117                isoField022
                0x0020a11c                isoField057
                0x0020a180                isoField100
                0x0020a568                isoField026
                0x0020a56b                isoField012
                0x0020a572                isoField127
                0x0020a95a                isoField090
                0x0020ad42                isoField023
                0x0020ad47                isoField068
                0x0020b12f                isoField054
                0x0020b517                isoField117
                0x0020b900                hostGateway
                0x0020b902                isoField072
                0x0020bcea                isoField099
                0x0020c0d2                isoField064
                0x0020c0db                isoField017
                0x0020c0e0                isoField108
                0x0020c4c8                isoField093
                0x0020c8b0                isoField020
                0x0020c8b4                isoField066
                0x0020cc9c                isoField102
                0x0020d084                invoiceNo
                0x0020d08b                isoField074
                0x0020d473                isoField120
                0x0020d85b                isoField058
                0x0020d8bf                isoField122
                0x0020dca7                isoField059
                0x0020dd0b                isoField056
                0x0020dd6f                isoField010
                0x0020dd78                isoField015
                0x0020dd7f                isoField083
                0x0020e167                isoField080
                0x0020e54f                isoField040
                0x0020e556                isoField116
                0x0020e93e                isoField030
                0x0020e948                orgMnuItm
                0x0020e94a                isoField095
                0x0020ed32                isoField005
                0x0020ed3f                isoField089
                0x0020f127                isoField050
                0x0020f12c                LoggedInUser
                0x0020f514                isoField105
                0x0020f8fc                isoField046
                0x0020f960                isoField002
                0x0020f9c4                isoField027
                0x0020f9c7                isoField021
                0x0020f9cb                isoField067
                0x0020fdb3                isoField052
                0x0020fdc4                isoField035
                0x0020fe28                isoField097
                0x00210210                BillerPayerName
                0x002105f8                isoField114
                0x002109e0                isoField028
                0x002109ea                isoField062
                0x002111ed                isoField110
                0x002115d5                isoField078
                0x002119bd                isoField036
                0x00211a21                isoField033
                0x00211a2b                isoField112
                0x00211e13                isoField019
                0x00211e17                isoField103
                0x002121ff                isoField001
                0x00212263                BillerServiceName
                0x0021264b                isoField081
                0x00212a33                isoField118
                0x00212e1b                isoField003
                0x00212e22                isoField088
                0x0021320a                isoField034
                0x00213214                isoField077
                0x002135fc                isoField051
                0x00213601                isoField009
                0x0021360a                isoField096
                0x002139f2                isoField115
 *fill*         0x00213dda        0x2 00
 COMMON         0x00213ddc        0x4 Obj/GNU_ARM_DEBUG_T2/globals.o
                0x00213ddc                beg
 COMMON         0x00213de0        0x4 C:/Program Files/TeliumSDK/SDK11.16.8.02/SDKTPLUS/HW_T2/gnu_434/lib/SECTPLUS.lib(SECLibOpenClose.o)
                0x00213de0                st_hdll
 COMMON         0x00213de4      0xe14 C:/Program Files/TeliumSDK/SDK11.16.8.02/SDKTPLUS/HW_T2/gnu_434/lib/FMG_TPlus.lib(VGE_FMG.o)
                0x00213de4                g_sFileManagement
                0x00214bf8                __bss_end = .
                0x00214bf8                PROVIDE (end, .)
LOAD C:/Program Files/TeliumSDK/SDK11.16.8.02/SDKTPLUS/HW_T2/gnu_434/startfiles/cstartupTplus.o
LOAD C:/Program Files/TeliumSDK/SDK11.16.8.02/SDKTPLUS/HW_T2/gnu_434/startfiles/libcpatch.o
LOAD Obj/GNU_ARM_DEBUG_T2/Main.o
LOAD Obj/GNU_ARM_DEBUG_T2/Entry.o
LOAD Obj/GNU_ARM_DEBUG_T2/Menu.o
LOAD Obj/GNU_ARM_DEBUG_T2/ComGPRS.o
LOAD Obj/GNU_ARM_DEBUG_T2/Goal.o
LOAD Obj/GNU_ARM_DEBUG_T2/Mapapp.o
LOAD Obj/GNU_ARM_DEBUG_T2/FMG.o
LOAD Obj/GNU_ARM_DEBUG_T2/Utility.o
LOAD Obj/GNU_ARM_DEBUG_T2/Timer.o
LOAD Obj/GNU_ARM_DEBUG_T2/iso8583.o
LOAD Obj/GNU_ARM_DEBUG_T2/transaction.o
LOAD Obj/GNU_ARM_DEBUG_T2/globals.o
LOAD Obj/GNU_ARM_DEBUG_T2/magnetic.o
LOAD Obj/GNU_ARM_DEBUG_T2/schemes.o
LOAD Obj/GNU_ARM_DEBUG_T2/amount.o
LOAD Obj/GNU_ARM_DEBUG_T2/printer.o
START GROUP
LOAD C:/Program Files/TeliumSDK/SDK11.16.8.02/SDKTPLUS/HW_T2/gnu_434/lib/BarCode_TPlus.lib
LOAD C:/Program Files/TeliumSDK/SDK11.16.8.02/SDKTPLUS/HW_T2/gnu_434/lib/eft30tplus.lib
LOAD C:/Program Files/TeliumSDK/SDK11.16.8.02/SDKTPLUS/HW_T2/gnu_434/lib/TRAP_TELIUM_PLUS.LIB
LOAD C:/Program Files/TeliumSDK/SDK11.16.8.02/SDKTPLUS/HW_T2/gnu_434/lib/BCR_TPlus.lib
LOAD C:/Program Files/TeliumSDK/SDK11.16.8.02/SDKTPLUS/HW_T2/gnu_434/lib/SECTPLUS.lib
LOAD C:/Program Files/TeliumSDK/SDK11.16.8.02/SDKTPLUS/HW_T2/gnu_434/lib/SEC_extend.lib
LOAD C:/Program Files/TeliumSDK/SDK11.16.8.02/SDKTPLUS/HW_T2/gnu_434/lib/Digest_TPlus.lib
LOAD C:/Program Files/TeliumSDK/SDK11.16.8.02/SDKTPLUS/HW_T2/gnu_434/lib/dll_wifi_TPlus.lib
LOAD C:/Program Files/TeliumSDK/SDK11.16.8.02/SDKTPLUS/HW_T2/gnu_434/lib/IP_TPlus.lib
LOAD C:/Program Files/TeliumSDK/SDK11.16.8.02/SDKTPLUS/HW_T2/gnu_434/lib/LIBGRAPHICS.LIB
LOAD C:/Program Files/TeliumSDK/SDK11.16.8.02/SDKTPLUS/HW_T2/gnu_434/lib/LinkLayerExeInterface_TPlus.lib
LOAD C:/Program Files/TeliumSDK/SDK11.16.8.02/SDKTPLUS/HW_T2/gnu_434/lib/SNMP_Tplus.lib
LOAD C:/Program Files/TeliumSDK/SDK11.16.8.02/SDKTPLUS/HW_T2/gnu_434/lib/SSL_TPlus.lib
LOAD C:/Program Files/TeliumSDK/SDK11.16.8.02/SDKTPLUS/HW_T2/gnu_434/lib/gps_dll.lib
LOAD C:/Program Files/TeliumSDK/SDK11.16.8.02/SDKTPLUS/HW_T2/gnu_434/lib/IPA280_TPlus.lib
LOAD C:/Program Files/TeliumSDK/SDK11.16.8.02/SDKTPLUS/HW_T2/gnu_434/lib/ExtraGPRS.lib
LOAD C:/Program Files/TeliumSDK/SDK11.16.8.02/SDKTPLUS/HW_T2/gnu_434/lib/Mifare_TPlus.lib
LOAD C:/Program Files/TeliumSDK/SDK11.16.8.02/SDKTPLUS/HW_T2/gnu_434/lib/TPass_TPlus.lib
LOAD C:/Program Files/TeliumSDK/SDK11.16.8.02/SDKTPLUS/HW_T2/gnu_434/lib/GTL_TPlus.lib
LOAD C:/Program Files/TeliumSDK/SDK11.16.8.02/SDKTPLUS/HW_T2/gnu_434/lib/SNTP.lib
LOAD C:/Program Files/TeliumSDK/SDK11.16.8.02/SDKTPLUS/HW_T2/gnu_434/lib/XMLs_TPlus.lib
LOAD C:/Program Files/TeliumSDK/SDK11.16.8.02/SDKTPLUS/HW_T2/gnu_434/lib/FMG_TPlus.lib
LOAD C:/Program Files/TeliumSDK/SDK11.16.8.02/SDKTPLUS/HW_T2/gnu_434/lib/TlvTree_TPlus.lib
LOAD C:/Program Files/TeliumSDK/SDK11.16.8.02/SDKTPLUS/HW_T2/gnu_434/lib/GRAPHICLIB.LIB
LOAD C:/Program Files/TeliumSDK/SDK11.16.8.02/SDKTPLUS/HW_T2/gnu_434/lib/FTP_TPlus.lib
LOAD C:/Program Files/TeliumSDK/SDK11.16.8.02/SDKTPLUS/HW_T2/gnu_434/lib/OSLAYER.LIB
LOAD C:/Program Files/TeliumSDK/SDK11.16.8.02/SDKTPLUS/HW_T2/gnu_434/lib/LIBOS.LIB
LOAD C:/Program Files/TeliumSDK/SDK11.16.8.02/SDKTPLUS/HW_T2/gnu_434/lib/NDEF_TPlus.LIB
LOAD C:/Program Files/TeliumSDK/SDK11.16.8.02/SDKTPLUS/HW_T2/gnu_434/lib/BarCode_TPlus.lib
LOAD C:/Program Files/TeliumSDK/SDK11.16.8.02/SDKTPLUS/HW_T2/gnu_434/lib/eft30tplus.lib
LOAD C:/Program Files/TeliumSDK/SDK11.16.8.02/SDKTPLUS/HW_T2/gnu_434/lib/TRAP_TELIUM_PLUS.LIB
LOAD C:/Program Files/TeliumSDK/SDK11.16.8.02/SDKTPLUS/HW_T2/gnu_434/lib/BCR_TPlus.lib
LOAD C:/Program Files/TeliumSDK/SDK11.16.8.02/SDKTPLUS/HW_T2/gnu_434/lib/SECTPLUS.lib
LOAD C:/Program Files/TeliumSDK/SDK11.16.8.02/SDKTPLUS/HW_T2/gnu_434/lib/SEC_extend.lib
LOAD C:/Program Files/TeliumSDK/SDK11.16.8.02/SDKTPLUS/HW_T2/gnu_434/lib/Digest_TPlus.lib
LOAD C:/Program Files/TeliumSDK/SDK11.16.8.02/SDKTPLUS/HW_T2/gnu_434/lib/dll_wifi_TPlus.lib
LOAD C:/Program Files/TeliumSDK/SDK11.16.8.02/SDKTPLUS/HW_T2/gnu_434/lib/IP_TPlus.lib
LOAD C:/Program Files/TeliumSDK/SDK11.16.8.02/SDKTPLUS/HW_T2/gnu_434/lib/LinkLayerExeInterface_TPlus.lib
LOAD C:/Program Files/TeliumSDK/SDK11.16.8.02/SDKTPLUS/HW_T2/gnu_434/lib/SNMP_Tplus.lib
LOAD C:/Program Files/TeliumSDK/SDK11.16.8.02/SDKTPLUS/HW_T2/gnu_434/lib/SSL_TPlus.lib
LOAD C:/Program Files/TeliumSDK/SDK11.16.8.02/SDKTPLUS/HW_T2/gnu_434/lib/gps_dll.lib
LOAD C:/Program Files/TeliumSDK/SDK11.16.8.02/SDKTPLUS/HW_T2/gnu_434/lib/IPA280_TPlus.lib
LOAD C:/Program Files/TeliumSDK/SDK11.16.8.02/SDKTPLUS/HW_T2/gnu_434/lib/ExtraGPRS.lib
LOAD C:/Program Files/TeliumSDK/SDK11.16.8.02/SDKTPLUS/HW_T2/gnu_434/lib/Mifare_TPlus.lib
LOAD C:/Program Files/TeliumSDK/SDK11.16.8.02/SDKTPLUS/HW_T2/gnu_434/lib/TPass_TPlus.lib
LOAD C:/Program Files/TeliumSDK/SDK11.16.8.02/SDKTPLUS/HW_T2/gnu_434/lib/GTL_TPlus.lib
LOAD C:/Program Files/TeliumSDK/SDK11.16.8.02/SDKTPLUS/HW_T2/gnu_434/lib/NDEF_TPlus.LIB
LOAD C:/Program Files/TeliumSDK/SDK11.16.8.02/SDKTPLUS/HW_T2/gnu_434/lib/SNTP.lib
LOAD C:/Program Files/TeliumSDK/SDK11.16.8.02/SDKTPLUS/HW_T2/gnu_434/lib/XMLs_TPlus.lib
LOAD C:/Program Files/TeliumSDK/SDK11.16.8.02/SDKTPLUS/HW_T2/gnu_434/lib/FMG_TPlus.lib
LOAD C:/Program Files/TeliumSDK/SDK11.16.8.02/SDKTPLUS/HW_T2/gnu_434/lib/TlvTree_TPlus.lib
LOAD C:/Program Files/TeliumSDK/SDK11.16.8.02/SDKTPLUS/HW_T2/gnu_434/lib/FTP_TPlus.lib
LOAD C:/Program Files/TeliumSDK/SDK11.16.8.02/SDKTPLUS/HW_T2/gnu_434/lib/OSLAYER.LIB
LOAD C:/Program Files/TeliumSDK/SDK11.16.8.02/SDKTPLUS/HW_T2/gnu_434/lib/LIBOS.LIB
LOAD C:/Program Files/TeliumSDK/SDK11.16.8.02/SDKTPLUS/HW_T2/gnu_434/lib/libTmsCall_TPlus.lib
LOAD C:/Program Files/TeliumSDK/SDK11.16.8.02/SDKTPLUS/HW_T2/gnu_434/lib/LIBGRAPHICS.LIB
LOAD C:/Program Files/TeliumSDK/SDK11.16.8.02/SDKTPLUS/HW_T2/gnu_434/lib/GRAPHICLIB.LIB
LOAD C:/Program Files/TeliumSDK/add-on SQLite 1.12.0.00/SDKTPLUS/HW_T2/gnu_434/lib/SQLITELIB.lib
LOAD E:/IngeDev_8.18.0.5/toolchains/gnuArm4/arm-elf/lib/thumb/soft/interwork/libsupc++.a
LOAD E:/IngeDev_8.18.0.5/toolchains/gnuArm4/arm-elf/lib/thumb/soft/interwork/libc.a
LOAD E:/IngeDev_8.18.0.5/toolchains/gnuArm4/lib/gcc/arm-elf/4.3.4/thumb/soft/interwork/libgcc.a
END GROUP
OUTPUT(Obj/GNU_ARM_DEBUG_T2/TRAINAPP.axf elf32-littlearm)

.ARM.attributes
                0x00000000       0x10
 .ARM.attributes
                0x00000000       0x10 C:/Program Files/TeliumSDK/SDK11.16.8.02/SDKTPLUS/HW_T2/gnu_434/startfiles/cstartupTplus.o
 .ARM.attributes
                0x00000010       0x10 Obj/GNU_ARM_DEBUG_T2/Main.o
 .ARM.attributes
                0x00000020       0x10 Obj/GNU_ARM_DEBUG_T2/Entry.o
 .ARM.attributes
                0x00000030       0x10 Obj/GNU_ARM_DEBUG_T2/Menu.o
 .ARM.attributes
                0x00000040       0x10 Obj/GNU_ARM_DEBUG_T2/ComGPRS.o
 .ARM.attributes
                0x00000050       0x10 Obj/GNU_ARM_DEBUG_T2/Goal.o
 .ARM.attributes
                0x00000060       0x10 Obj/GNU_ARM_DEBUG_T2/Mapapp.o
 .ARM.attributes
                0x00000070       0x10 Obj/GNU_ARM_DEBUG_T2/FMG.o
 .ARM.attributes
                0x00000080       0x10 Obj/GNU_ARM_DEBUG_T2/Utility.o
 .ARM.attributes
                0x00000090       0x10 Obj/GNU_ARM_DEBUG_T2/Timer.o
 .ARM.attributes
                0x000000a0       0x10 Obj/GNU_ARM_DEBUG_T2/iso8583.o
 .ARM.attributes
                0x000000b0       0x10 Obj/GNU_ARM_DEBUG_T2/transaction.o
 .ARM.attributes
                0x000000c0       0x10 Obj/GNU_ARM_DEBUG_T2/globals.o
 .ARM.attributes
                0x000000d0       0x10 Obj/GNU_ARM_DEBUG_T2/magnetic.o
 .ARM.attributes
                0x000000e0       0x10 Obj/GNU_ARM_DEBUG_T2/schemes.o
 .ARM.attributes
                0x000000f0       0x10 Obj/GNU_ARM_DEBUG_T2/amount.o
 .ARM.attributes
                0x00000100       0x10 Obj/GNU_ARM_DEBUG_T2/printer.o
 .ARM.attributes
                0x00000110       0x10 C:/Program Files/TeliumSDK/SDK11.16.8.02/SDKTPLUS/HW_T2/gnu_434/lib/eft30tplus.lib(DLLExist.o)
 .ARM.attributes
                0x00000120       0x10 C:/Program Files/TeliumSDK/SDK11.16.8.02/SDKTPLUS/HW_T2/gnu_434/lib/eft30tplus.lib(d_tolong.o)
 .ARM.attributes
                0x00000130       0x10 C:/Program Files/TeliumSDK/SDK11.16.8.02/SDKTPLUS/HW_T2/gnu_434/lib/eft30tplus.lib(stdcam0.o)
 .ARM.attributes
                0x00000140       0x10 C:/Program Files/TeliumSDK/SDK11.16.8.02/SDKTPLUS/HW_T2/gnu_434/lib/eft30tplus.lib(extenstp1.o)
 .ARM.attributes
                0x00000150       0x10 C:/Program Files/TeliumSDK/SDK11.16.8.02/SDKTPLUS/HW_T2/gnu_434/lib/eft30tplus.lib(DisplayFooter.o)
 .ARM.attributes
                0x00000160       0x10 C:/Program Files/TeliumSDK/SDK11.16.8.02/SDKTPLUS/HW_T2/gnu_434/lib/eft30tplus.lib(DisplayHeader.o)
 .ARM.attributes
                0x00000170       0x10 C:/Program Files/TeliumSDK/SDK11.16.8.02/SDKTPLUS/HW_T2/gnu_434/lib/eft30tplus.lib(DisplayLeds.o)
 .ARM.attributes
                0x00000180       0x10 C:/Program Files/TeliumSDK/SDK11.16.8.02/SDKTPLUS/HW_T2/gnu_434/lib/eft30tplus.lib(IsFooter.o)
 .ARM.attributes
                0x00000190       0x10 C:/Program Files/TeliumSDK/SDK11.16.8.02/SDKTPLUS/HW_T2/gnu_434/lib/eft30tplus.lib(IsHeader.o)
 .ARM.attributes
                0x000001a0       0x10 C:/Program Files/TeliumSDK/SDK11.16.8.02/SDKTPLUS/HW_T2/gnu_434/lib/eft30tplus.lib(DrawExtendedString.o)
 .ARM.attributes
                0x000001b0       0x10 C:/Program Files/TeliumSDK/SDK11.16.8.02/SDKTPLUS/HW_T2/gnu_434/lib/eft30tplus.lib(InitContexteGraphique.o)
 .ARM.attributes
                0x000001c0       0x10 C:/Program Files/TeliumSDK/SDK11.16.8.02/SDKTPLUS/HW_T2/gnu_434/lib/eft30tplus.lib(PaintGraphics.o)
 .ARM.attributes
                0x000001d0       0x10 C:/Program Files/TeliumSDK/SDK11.16.8.02/SDKTPLUS/HW_T2/gnu_434/lib/eft30tplus.lib(_DrawExtendedString.o)
 .ARM.attributes
                0x000001e0       0x10 C:/Program Files/TeliumSDK/SDK11.16.8.02/SDKTPLUS/HW_T2/gnu_434/lib/eft30tplus.lib(libgrtp1.o)
 .ARM.attributes
                0x000001f0       0x10 C:/Program Files/TeliumSDK/SDK11.16.8.02/SDKTPLUS/HW_T2/gnu_434/lib/eft30tplus.lib(PSQ_Est_pinpad.o)
 .ARM.attributes
                0x00000200       0x10 C:/Program Files/TeliumSDK/SDK11.16.8.02/SDKTPLUS/HW_T2/gnu_434/lib/eft30tplus.lib(PSQ_donner_type_pinpad.o)
 .ARM.attributes
                0x00000210       0x10 C:/Program Files/TeliumSDK/SDK11.16.8.02/SDKTPLUS/HW_T2/gnu_434/lib/eft30tplus.lib(paramtp1.o)
 .ARM.attributes
                0x00000220       0x10 C:/Program Files/TeliumSDK/SDK11.16.8.02/SDKTPLUS/HW_T2/gnu_434/lib/eft30tplus.lib(IsPPSConnected.o)
 .ARM.attributes
                0x00000230       0x10 C:/Program Files/TeliumSDK/SDK11.16.8.02/SDKTPLUS/HW_T2/gnu_434/lib/eft30tplus.lib(PPS_SendTerminalRefRequestCommand.o)
 .ARM.attributes
                0x00000240       0x10 C:/Program Files/TeliumSDK/SDK11.16.8.02/SDKTPLUS/HW_T2/gnu_434/lib/eft30tplus.lib(PPS_firstline.o)
 .ARM.attributes
                0x00000250       0x10 C:/Program Files/TeliumSDK/SDK11.16.8.02/SDKTPLUS/HW_T2/gnu_434/lib/eft30tplus.lib(PPS_newline.o)
 .ARM.attributes
                0x00000260       0x10 C:/Program Files/TeliumSDK/SDK11.16.8.02/SDKTPLUS/HW_T2/gnu_434/lib/eft30tplus.lib(pinpadtp1.o)
 .ARM.attributes
                0x00000270       0x10 C:/Program Files/TeliumSDK/SDK11.16.8.02/SDKTPLUS/HW_T2/gnu_434/lib/eft30tplus.lib(PPS_Display.o)
 .ARM.attributes
                0x00000280       0x10 C:/Program Files/TeliumSDK/SDK11.16.8.02/SDKTPLUS/HW_T2/gnu_434/lib/eft30tplus.lib(Telium_Read_date.o)
 .ARM.attributes
                0x00000290       0x10 C:/Program Files/TeliumSDK/SDK11.16.8.02/SDKTPLUS/HW_T2/gnu_434/lib/eft30tplus.lib(BoosterType.o)
 .ARM.attributes
                0x000002a0       0x10 C:/Program Files/TeliumSDK/SDK11.16.8.02/SDKTPLUS/HW_T2/gnu_434/lib/eft30tplus.lib(IsColorDisplay.o)
 .ARM.attributes
                0x000002b0       0x10 C:/Program Files/TeliumSDK/SDK11.16.8.02/SDKTPLUS/HW_T2/gnu_434/lib/eft30tplus.lib(IsISO1.o)
 .ARM.attributes
                0x000002c0       0x10 C:/Program Files/TeliumSDK/SDK11.16.8.02/SDKTPLUS/HW_T2/gnu_434/lib/eft30tplus.lib(IsISO2.o)
 .ARM.attributes
                0x000002d0       0x10 C:/Program Files/TeliumSDK/SDK11.16.8.02/SDKTPLUS/HW_T2/gnu_434/lib/eft30tplus.lib(IsISO3.o)
 .ARM.attributes
                0x000002e0       0x10 C:/Program Files/TeliumSDK/SDK11.16.8.02/SDKTPLUS/HW_T2/gnu_434/lib/eft30tplus.lib(IsPrinter.o)
 .ARM.attributes
                0x000002f0       0x10 C:/Program Files/TeliumSDK/SDK11.16.8.02/SDKTPLUS/HW_T2/gnu_434/lib/eft30tplus.lib(Telium_ServiceRegister.o)
 .ARM.attributes
                0x00000300       0x10 C:/Program Files/TeliumSDK/SDK11.16.8.02/SDKTPLUS/HW_T2/gnu_434/lib/eft30tplus.lib(Telium_Atoi.o)
 .ARM.attributes
                0x00000310       0x10 C:/Program Files/TeliumSDK/SDK11.16.8.02/SDKTPLUS/HW_T2/gnu_434/lib/eft30tplus.lib(Telium_Pprintf.o)
 .ARM.attributes
                0x00000320       0x10 C:/Program Files/TeliumSDK/SDK11.16.8.02/SDKTPLUS/HW_T2/gnu_434/lib/eft30tplus.lib(Telium_Printf.o)
 .ARM.attributes
                0x00000330       0x10 C:/Program Files/TeliumSDK/SDK11.16.8.02/SDKTPLUS/HW_T2/gnu_434/lib/eft30tplus.lib(Telium_Stdprt.o)
 .ARM.attributes
                0x00000340       0x10 C:/Program Files/TeliumSDK/SDK11.16.8.02/SDKTPLUS/HW_T2/gnu_434/lib/eft30tplus.lib(Telium_Sprintf.o)
 .ARM.attributes
                0x00000350       0x10 C:/Program Files/TeliumSDK/SDK11.16.8.02/SDKTPLUS/HW_T2/gnu_434/lib/eft30tplus.lib(sprintf.o)
 .ARM.attributes
                0x00000360       0x10 C:/Program Files/TeliumSDK/SDK11.16.8.02/SDKTPLUS/HW_T2/gnu_434/lib/eft30tplus.lib(TM_InitContexteGraphique.o)
 .ARM.attributes
                0x00000370       0x10 C:/Program Files/TeliumSDK/SDK11.16.8.02/SDKTPLUS/HW_T2/gnu_434/lib/eft30tplus.lib(toolstp1.o)
 .ARM.attributes
                0x00000380       0x10 C:/Program Files/TeliumSDK/SDK11.16.8.02/SDKTPLUS/HW_T2/gnu_434/lib/TRAP_TELIUM_PLUS.LIB(ApplicationGetCurrent.o)
 .ARM.attributes
                0x00000390       0x10 C:/Program Files/TeliumSDK/SDK11.16.8.02/SDKTPLUS/HW_T2/gnu_434/lib/TRAP_TELIUM_PLUS.LIB(FS_close.o)
 .ARM.attributes
                0x000003a0       0x10 C:/Program Files/TeliumSDK/SDK11.16.8.02/SDKTPLUS/HW_T2/gnu_434/lib/TRAP_TELIUM_PLUS.LIB(FS_dskcreate.o)
 .ARM.attributes
                0x000003b0       0x10 C:/Program Files/TeliumSDK/SDK11.16.8.02/SDKTPLUS/HW_T2/gnu_434/lib/TRAP_TELIUM_PLUS.LIB(FS_length.o)
 .ARM.attributes
                0x000003c0       0x10 C:/Program Files/TeliumSDK/SDK11.16.8.02/SDKTPLUS/HW_T2/gnu_434/lib/TRAP_TELIUM_PLUS.LIB(FS_mount.o)
 .ARM.attributes
                0x000003d0       0x10 C:/Program Files/TeliumSDK/SDK11.16.8.02/SDKTPLUS/HW_T2/gnu_434/lib/TRAP_TELIUM_PLUS.LIB(FS_open.o)
 .ARM.attributes
                0x000003e0       0x10 C:/Program Files/TeliumSDK/SDK11.16.8.02/SDKTPLUS/HW_T2/gnu_434/lib/TRAP_TELIUM_PLUS.LIB(FS_read.o)
 .ARM.attributes
                0x000003f0       0x10 C:/Program Files/TeliumSDK/SDK11.16.8.02/SDKTPLUS/HW_T2/gnu_434/lib/TRAP_TELIUM_PLUS.LIB(FS_unmount.o)
 .ARM.attributes
                0x00000400       0x10 C:/Program Files/TeliumSDK/SDK11.16.8.02/SDKTPLUS/HW_T2/gnu_434/lib/TRAP_TELIUM_PLUS.LIB(ObjectGetDescriptor.o)
 .ARM.attributes
                0x00000410       0x10 C:/Program Files/TeliumSDK/SDK11.16.8.02/SDKTPLUS/HW_T2/gnu_434/lib/TRAP_TELIUM_PLUS.LIB(ObjectGetInfo.o)
 .ARM.attributes
                0x00000420       0x10 C:/Program Files/TeliumSDK/SDK11.16.8.02/SDKTPLUS/HW_T2/gnu_434/lib/TRAP_TELIUM_PLUS.LIB(Telium_Exit.o)
 .ARM.attributes
                0x00000430       0x10 C:/Program Files/TeliumSDK/SDK11.16.8.02/SDKTPLUS/HW_T2/gnu_434/lib/TRAP_TELIUM_PLUS.LIB(Telium_Fclose.o)
 .ARM.attributes
                0x00000440       0x10 C:/Program Files/TeliumSDK/SDK11.16.8.02/SDKTPLUS/HW_T2/gnu_434/lib/TRAP_TELIUM_PLUS.LIB(Telium_Fopen.o)
 .ARM.attributes
                0x00000450       0x10 C:/Program Files/TeliumSDK/SDK11.16.8.02/SDKTPLUS/HW_T2/gnu_434/lib/TRAP_TELIUM_PLUS.LIB(Telium_Getc.o)
 .ARM.attributes
                0x00000460       0x10 C:/Program Files/TeliumSDK/SDK11.16.8.02/SDKTPLUS/HW_T2/gnu_434/lib/TRAP_TELIUM_PLUS.LIB(Telium_Is_iso1.o)
 .ARM.attributes
                0x00000470       0x10 C:/Program Files/TeliumSDK/SDK11.16.8.02/SDKTPLUS/HW_T2/gnu_434/lib/TRAP_TELIUM_PLUS.LIB(Telium_Is_iso2.o)
 .ARM.attributes
                0x00000480       0x10 C:/Program Files/TeliumSDK/SDK11.16.8.02/SDKTPLUS/HW_T2/gnu_434/lib/TRAP_TELIUM_PLUS.LIB(Telium_Is_iso3.o)
 .ARM.attributes
                0x00000490       0x10 C:/Program Files/TeliumSDK/SDK11.16.8.02/SDKTPLUS/HW_T2/gnu_434/lib/TRAP_TELIUM_PLUS.LIB(Telium_Reset_buf.o)
 .ARM.attributes
                0x000004a0       0x10 C:/Program Files/TeliumSDK/SDK11.16.8.02/SDKTPLUS/HW_T2/gnu_434/lib/TRAP_TELIUM_PLUS.LIB(Telium_Status.o)
 .ARM.attributes
                0x000004b0       0x10 C:/Program Files/TeliumSDK/SDK11.16.8.02/SDKTPLUS/HW_T2/gnu_434/lib/TRAP_TELIUM_PLUS.LIB(Telium_Stdin.o)
 .ARM.attributes
                0x000004c0       0x10 C:/Program Files/TeliumSDK/SDK11.16.8.02/SDKTPLUS/HW_T2/gnu_434/lib/TRAP_TELIUM_PLUS.LIB(Telium_Stdout.o)
 .ARM.attributes
                0x000004d0       0x10 C:/Program Files/TeliumSDK/SDK11.16.8.02/SDKTPLUS/HW_T2/gnu_434/lib/TRAP_TELIUM_PLUS.LIB(Telium_Stdperif.o)
 .ARM.attributes
                0x000004e0       0x10 C:/Program Files/TeliumSDK/SDK11.16.8.02/SDKTPLUS/HW_T2/gnu_434/lib/TRAP_TELIUM_PLUS.LIB(Telium_Ttestall.o)
 .ARM.attributes
                0x000004f0       0x10 C:/Program Files/TeliumSDK/SDK11.16.8.02/SDKTPLUS/HW_T2/gnu_434/lib/TRAP_TELIUM_PLUS.LIB(Telium_Vfprintf.o)
 .ARM.attributes
                0x00000500       0x10 C:/Program Files/TeliumSDK/SDK11.16.8.02/SDKTPLUS/HW_T2/gnu_434/lib/TRAP_TELIUM_PLUS.LIB(Telium_Vsprintf.o)
 .ARM.attributes
                0x00000510       0x10 C:/Program Files/TeliumSDK/SDK11.16.8.02/SDKTPLUS/HW_T2/gnu_434/lib/TRAP_TELIUM_PLUS.LIB(buzzer.o)
 .ARM.attributes
                0x00000520       0x10 C:/Program Files/TeliumSDK/SDK11.16.8.02/SDKTPLUS/HW_T2/gnu_434/lib/TRAP_TELIUM_PLUS.LIB(first_init.o)
 .ARM.attributes
                0x00000530       0x10 C:/Program Files/TeliumSDK/SDK11.16.8.02/SDKTPLUS/HW_T2/gnu_434/lib/TRAP_TELIUM_PLUS.LIB(raz_init.o)
 .ARM.attributes
                0x00000540       0x10 C:/Program Files/TeliumSDK/SDK11.16.8.02/SDKTPLUS/HW_T2/gnu_434/lib/TRAP_TELIUM_PLUS.LIB(ufree.o)
 .ARM.attributes
                0x00000550       0x10 C:/Program Files/TeliumSDK/SDK11.16.8.02/SDKTPLUS/HW_T2/gnu_434/lib/TRAP_TELIUM_PLUS.LIB(umalloc.o)
 .ARM.attributes
                0x00000560       0x10 C:/Program Files/TeliumSDK/SDK11.16.8.02/SDKTPLUS/HW_T2/gnu_434/lib/TRAP_TELIUM_PLUS.LIB(urealloc.o)
 .ARM.attributes
                0x00000570       0x10 C:/Program Files/TeliumSDK/SDK11.16.8.02/SDKTPLUS/HW_T2/gnu_434/lib/SECTPLUS.lib(SECLibOpenClose.o)
 .ARM.attributes
                0x00000580       0x10 C:/Program Files/TeliumSDK/SDK11.16.8.02/SDKTPLUS/HW_T2/gnu_434/lib/SECTPLUS.lib(SEC1.o)
 .ARM.attributes
                0x00000590       0x10 C:/Program Files/TeliumSDK/SDK11.16.8.02/SDKTPLUS/HW_T2/gnu_434/lib/SECTPLUS.lib(SEC7.o)
 .ARM.attributes
                0x000005a0       0x10 C:/Program Files/TeliumSDK/SDK11.16.8.02/SDKTPLUS/HW_T2/gnu_434/lib/SECTPLUS.lib(SEC8.o)
 .ARM.attributes
                0x000005b0       0x10 C:/Program Files/TeliumSDK/SDK11.16.8.02/SDKTPLUS/HW_T2/gnu_434/lib/SECTPLUS.lib(SEC9.o)
 .ARM.attributes
                0x000005c0       0x10 C:/Program Files/TeliumSDK/SDK11.16.8.02/SDKTPLUS/HW_T2/gnu_434/lib/SECTPLUS.lib(SEC10.o)
 .ARM.attributes
                0x000005d0       0x10 C:/Program Files/TeliumSDK/SDK11.16.8.02/SDKTPLUS/HW_T2/gnu_434/lib/SECTPLUS.lib(SEC11.o)
 .ARM.attributes
                0x000005e0       0x10 C:/Program Files/TeliumSDK/SDK11.16.8.02/SDKTPLUS/HW_T2/gnu_434/lib/SECTPLUS.lib(SEC19.o)
 .ARM.attributes
                0x000005f0       0x10 C:/Program Files/TeliumSDK/SDK11.16.8.02/SDKTPLUS/HW_T2/gnu_434/lib/SECTPLUS.lib(SEC20.o)
 .ARM.attributes
                0x00000600       0x10 C:/Program Files/TeliumSDK/SDK11.16.8.02/SDKTPLUS/HW_T2/gnu_434/lib/SECTPLUS.lib(SEC21.o)
 .ARM.attributes
                0x00000610       0x10 C:/Program Files/TeliumSDK/SDK11.16.8.02/SDKTPLUS/HW_T2/gnu_434/lib/SECTPLUS.lib(SEC22.o)
 .ARM.attributes
                0x00000620       0x10 C:/Program Files/TeliumSDK/SDK11.16.8.02/SDKTPLUS/HW_T2/gnu_434/lib/SECTPLUS.lib(SEC23.o)
 .ARM.attributes
                0x00000630       0x10 C:/Program Files/TeliumSDK/SDK11.16.8.02/SDKTPLUS/HW_T2/gnu_434/lib/SECTPLUS.lib(SEC24.o)
 .ARM.attributes
                0x00000640       0x10 C:/Program Files/TeliumSDK/SDK11.16.8.02/SDKTPLUS/HW_T2/gnu_434/lib/SECTPLUS.lib(SEC34.o)
 .ARM.attributes
                0x00000650       0x10 C:/Program Files/TeliumSDK/SDK11.16.8.02/SDKTPLUS/HW_T2/gnu_434/lib/SECTPLUS.lib(SEC37.o)
 .ARM.attributes
                0x00000660       0x10 C:/Program Files/TeliumSDK/SDK11.16.8.02/SDKTPLUS/HW_T2/gnu_434/lib/SECTPLUS.lib(SEC38.o)
 .ARM.attributes
                0x00000670       0x10 C:/Program Files/TeliumSDK/SDK11.16.8.02/SDKTPLUS/HW_T2/gnu_434/lib/SECTPLUS.lib(SEC54.o)
 .ARM.attributes
                0x00000680       0x10 C:/Program Files/TeliumSDK/SDK11.16.8.02/SDKTPLUS/HW_T2/gnu_434/lib/LinkLayerExeInterface_TPlus.lib(LinkLayerServices.o)
 .ARM.attributes
                0x00000690       0x10 C:/Program Files/TeliumSDK/SDK11.16.8.02/SDKTPLUS/HW_T2/gnu_434/lib/ExtraGPRS.lib(gprs_GetInformation.o)
 .ARM.attributes
                0x000006a0       0x10 C:/Program Files/TeliumSDK/SDK11.16.8.02/SDKTPLUS/HW_T2/gnu_434/lib/ExtraGPRS.lib(gprs_SetPinModeFree.o)
 .ARM.attributes
                0x000006b0       0x10 C:/Program Files/TeliumSDK/SDK11.16.8.02/SDKTPLUS/HW_T2/gnu_434/lib/ExtraGPRS.lib(gprs_SubmitPuk.o)
 .ARM.attributes
                0x000006c0       0x10 C:/Program Files/TeliumSDK/SDK11.16.8.02/SDKTPLUS/HW_T2/gnu_434/lib/ExtraGPRS.lib(EXTRA_GPRS_asm_link.o)
 .ARM.attributes
                0x000006d0       0x10 C:/Program Files/TeliumSDK/SDK11.16.8.02/SDKTPLUS/HW_T2/gnu_434/lib/ExtraGPRS.lib(EXTRA_GPRS_link.o)
 .ARM.attributes
                0x000006e0       0x10 C:/Program Files/TeliumSDK/SDK11.16.8.02/SDKTPLUS/HW_T2/gnu_434/lib/GTL_TPlus.lib(GTL_StdTimer.o)
 .ARM.attributes
                0x000006f0       0x10 C:/Program Files/TeliumSDK/SDK11.16.8.02/SDKTPLUS/HW_T2/gnu_434/lib/FMG_TPlus.lib(VGE_FMG.o)
 .ARM.attributes
                0x00000700       0x10 C:/Program Files/TeliumSDK/SDK11.16.8.02/SDKTPLUS/HW_T2/gnu_434/lib/FMG_TPlus.lib(md5.o)
 .ARM.attributes
                0x00000710       0x10 C:/Program Files/TeliumSDK/SDK11.16.8.02/SDKTPLUS/HW_T2/gnu_434/lib/TlvTree_TPlus.lib(Proxy.o)
 .ARM.attributes
                0x00000720       0x10 C:/Program Files/TeliumSDK/SDK11.16.8.02/SDKTPLUS/HW_T2/gnu_434/lib/TlvTree_TPlus.lib(Serializer.o)
 .ARM.attributes
                0x00000730       0x10 C:/Program Files/TeliumSDK/SDK11.16.8.02/SDKTPLUS/HW_T2/gnu_434/lib/TlvTree_TPlus.lib(Internal.o)
 .ARM.attributes
                0x00000740       0x10 C:/Program Files/TeliumSDK/SDK11.16.8.02/SDKTPLUS/HW_T2/gnu_434/lib/TlvTree_TPlus.lib(Serializer_Default.o)
 .ARM.attributes
                0x00000750       0x10 C:/Program Files/TeliumSDK/SDK11.16.8.02/SDKTPLUS/HW_T2/gnu_434/lib/TlvTree_TPlus.lib(Serializer_Xml.o)
 .ARM.attributes
                0x00000760       0x10 C:/Program Files/TeliumSDK/SDK11.16.8.02/SDKTPLUS/HW_T2/gnu_434/lib/GRAPHICLIB.LIB(GL_Button_Create.o)
 .ARM.attributes
                0x00000770       0x10 C:/Program Files/TeliumSDK/SDK11.16.8.02/SDKTPLUS/HW_T2/gnu_434/lib/GRAPHICLIB.LIB(GL_Dialog_Amount.o)
 .ARM.attributes
                0x00000780       0x10 C:/Program Files/TeliumSDK/SDK11.16.8.02/SDKTPLUS/HW_T2/gnu_434/lib/GRAPHICLIB.LIB(GL_Dialog_Choice.o)
 .ARM.attributes
                0x00000790       0x10 C:/Program Files/TeliumSDK/SDK11.16.8.02/SDKTPLUS/HW_T2/gnu_434/lib/GRAPHICLIB.LIB(GL_Dialog_Menu.o)
 .ARM.attributes
                0x000007a0       0x10 C:/Program Files/TeliumSDK/SDK11.16.8.02/SDKTPLUS/HW_T2/gnu_434/lib/GRAPHICLIB.LIB(GL_Dialog_Message.o)
 .ARM.attributes
                0x000007b0       0x10 C:/Program Files/TeliumSDK/SDK11.16.8.02/SDKTPLUS/HW_T2/gnu_434/lib/GRAPHICLIB.LIB(GL_Dialog_Password.o)
 .ARM.attributes
                0x000007c0       0x10 C:/Program Files/TeliumSDK/SDK11.16.8.02/SDKTPLUS/HW_T2/gnu_434/lib/GRAPHICLIB.LIB(GL_Dialog_Progress.o)
 .ARM.attributes
                0x000007d0       0x10 C:/Program Files/TeliumSDK/SDK11.16.8.02/SDKTPLUS/HW_T2/gnu_434/lib/GRAPHICLIB.LIB(GL_Dialog_Text.o)
 .ARM.attributes
                0x000007e0       0x10 C:/Program Files/TeliumSDK/SDK11.16.8.02/SDKTPLUS/HW_T2/gnu_434/lib/GRAPHICLIB.LIB(GL_Dialog_VirtualKeyboard.o)
 .ARM.attributes
                0x000007f0       0x10 C:/Program Files/TeliumSDK/SDK11.16.8.02/SDKTPLUS/HW_T2/gnu_434/lib/GRAPHICLIB.LIB(GL_Document_Create.o)
 .ARM.attributes
                0x00000800       0x10 C:/Program Files/TeliumSDK/SDK11.16.8.02/SDKTPLUS/HW_T2/gnu_434/lib/GRAPHICLIB.LIB(GL_Document_Print.o)
 .ARM.attributes
                0x00000810       0x10 C:/Program Files/TeliumSDK/SDK11.16.8.02/SDKTPLUS/HW_T2/gnu_434/lib/GRAPHICLIB.LIB(GL_Drawing_Clear.o)
 .ARM.attributes
                0x00000820       0x10 C:/Program Files/TeliumSDK/SDK11.16.8.02/SDKTPLUS/HW_T2/gnu_434/lib/GRAPHICLIB.LIB(GL_Drawing_Create.o)
 .ARM.attributes
                0x00000830       0x10 C:/Program Files/TeliumSDK/SDK11.16.8.02/SDKTPLUS/HW_T2/gnu_434/lib/GRAPHICLIB.LIB(GL_Drawing_DrawEllipse.o)
 .ARM.attributes
                0x00000840       0x10 C:/Program Files/TeliumSDK/SDK11.16.8.02/SDKTPLUS/HW_T2/gnu_434/lib/GRAPHICLIB.LIB(GL_Drawing_DrawLine.o)
 .ARM.attributes
                0x00000850       0x10 C:/Program Files/TeliumSDK/SDK11.16.8.02/SDKTPLUS/HW_T2/gnu_434/lib/GRAPHICLIB.LIB(GL_Drawing_DrawRect.o)
 .ARM.attributes
                0x00000860       0x10 C:/Program Files/TeliumSDK/SDK11.16.8.02/SDKTPLUS/HW_T2/gnu_434/lib/GRAPHICLIB.LIB(GL_Drawing_DrawText.o)
 .ARM.attributes
                0x00000870       0x10 C:/Program Files/TeliumSDK/SDK11.16.8.02/SDKTPLUS/HW_T2/gnu_434/lib/GRAPHICLIB.LIB(GL_Drawing_SetBrush.o)
 .ARM.attributes
                0x00000880       0x10 C:/Program Files/TeliumSDK/SDK11.16.8.02/SDKTPLUS/HW_T2/gnu_434/lib/GRAPHICLIB.LIB(GL_Drawing_SetFont.o)
 .ARM.attributes
                0x00000890       0x10 C:/Program Files/TeliumSDK/SDK11.16.8.02/SDKTPLUS/HW_T2/gnu_434/lib/GRAPHICLIB.LIB(GL_Drawing_SetPen.o)
 .ARM.attributes
                0x000008a0       0x10 C:/Program Files/TeliumSDK/SDK11.16.8.02/SDKTPLUS/HW_T2/gnu_434/lib/GRAPHICLIB.LIB(GL_GraphicLib_BindSingleKey.o)
 .ARM.attributes
                0x000008b0       0x10 C:/Program Files/TeliumSDK/SDK11.16.8.02/SDKTPLUS/HW_T2/gnu_434/lib/GRAPHICLIB.LIB(GL_GraphicLib_Create.o)
 .ARM.attributes
                0x000008c0       0x10 C:/Program Files/TeliumSDK/SDK11.16.8.02/SDKTPLUS/HW_T2/gnu_434/lib/GRAPHICLIB.LIB(GL_GraphicLib_IsTouchPresent.o)
 .ARM.attributes
                0x000008d0       0x10 C:/Program Files/TeliumSDK/SDK11.16.8.02/SDKTPLUS/HW_T2/gnu_434/lib/GRAPHICLIB.LIB(GL_GraphicLib_SetCharset.o)
 .ARM.attributes
                0x000008e0       0x10 C:/Program Files/TeliumSDK/SDK11.16.8.02/SDKTPLUS/HW_T2/gnu_434/lib/GRAPHICLIB.LIB(GL_GraphicLib_UnbindKey.o)
 .ARM.attributes
                0x000008f0       0x10 C:/Program Files/TeliumSDK/SDK11.16.8.02/SDKTPLUS/HW_T2/gnu_434/lib/GRAPHICLIB.LIB(GL_Label_Create.o)
 .ARM.attributes
                0x00000900       0x10 C:/Program Files/TeliumSDK/SDK11.16.8.02/SDKTPLUS/HW_T2/gnu_434/lib/GRAPHICLIB.LIB(GL_Layout_Create.o)
 .ARM.attributes
                0x00000910       0x10 C:/Program Files/TeliumSDK/SDK11.16.8.02/SDKTPLUS/HW_T2/gnu_434/lib/GRAPHICLIB.LIB(GL_Message_GetKey.o)
 .ARM.attributes
                0x00000920       0x10 C:/Program Files/TeliumSDK/SDK11.16.8.02/SDKTPLUS/HW_T2/gnu_434/lib/GRAPHICLIB.LIB(GL_Message_GetWidget.o)
 .ARM.attributes
                0x00000930       0x10 C:/Program Files/TeliumSDK/SDK11.16.8.02/SDKTPLUS/HW_T2/gnu_434/lib/GRAPHICLIB.LIB(GL_Message_SetResult.o)
 .ARM.attributes
                0x00000940       0x10 C:/Program Files/TeliumSDK/SDK11.16.8.02/SDKTPLUS/HW_T2/gnu_434/lib/GRAPHICLIB.LIB(GL_Message_SetUserData.o)
 .ARM.attributes
                0x00000950       0x10 C:/Program Files/TeliumSDK/SDK11.16.8.02/SDKTPLUS/HW_T2/gnu_434/lib/GRAPHICLIB.LIB(GL_Picture_Create.o)
 .ARM.attributes
                0x00000960       0x10 C:/Program Files/TeliumSDK/SDK11.16.8.02/SDKTPLUS/HW_T2/gnu_434/lib/GRAPHICLIB.LIB(GL_Print_Create.o)
 .ARM.attributes
                0x00000970       0x10 C:/Program Files/TeliumSDK/SDK11.16.8.02/SDKTPLUS/HW_T2/gnu_434/lib/GRAPHICLIB.LIB(GL_Timer_Create.o)
 .ARM.attributes
                0x00000980       0x10 C:/Program Files/TeliumSDK/SDK11.16.8.02/SDKTPLUS/HW_T2/gnu_434/lib/GRAPHICLIB.LIB(GL_Timer_SetInterval.o)
 .ARM.attributes
                0x00000990       0x10 C:/Program Files/TeliumSDK/SDK11.16.8.02/SDKTPLUS/HW_T2/gnu_434/lib/GRAPHICLIB.LIB(GL_Timer_Stop.o)
 .ARM.attributes
                0x000009a0       0x10 C:/Program Files/TeliumSDK/SDK11.16.8.02/SDKTPLUS/HW_T2/gnu_434/lib/GRAPHICLIB.LIB(GL_Widget_Destroy.o)
 .ARM.attributes
                0x000009b0       0x10 C:/Program Files/TeliumSDK/SDK11.16.8.02/SDKTPLUS/HW_T2/gnu_434/lib/GRAPHICLIB.LIB(GL_Widget_GetUserData.o)
 .ARM.attributes
                0x000009c0       0x10 C:/Program Files/TeliumSDK/SDK11.16.8.02/SDKTPLUS/HW_T2/gnu_434/lib/GRAPHICLIB.LIB(GL_Widget_RegisterCallback.o)
 .ARM.attributes
                0x000009d0       0x10 C:/Program Files/TeliumSDK/SDK11.16.8.02/SDKTPLUS/HW_T2/gnu_434/lib/GRAPHICLIB.LIB(GL_Widget_SearchId.o)
 .ARM.attributes
                0x000009e0       0x10 C:/Program Files/TeliumSDK/SDK11.16.8.02/SDKTPLUS/HW_T2/gnu_434/lib/GRAPHICLIB.LIB(GL_Widget_SetBackAlign.o)
 .ARM.attributes
                0x000009f0       0x10 C:/Program Files/TeliumSDK/SDK11.16.8.02/SDKTPLUS/HW_T2/gnu_434/lib/GRAPHICLIB.LIB(GL_Widget_SetBackColor.o)
 .ARM.attributes
                0x00000a00       0x10 C:/Program Files/TeliumSDK/SDK11.16.8.02/SDKTPLUS/HW_T2/gnu_434/lib/GRAPHICLIB.LIB(GL_Widget_SetBorders.o)
 .ARM.attributes
                0x00000a10       0x10 C:/Program Files/TeliumSDK/SDK11.16.8.02/SDKTPLUS/HW_T2/gnu_434/lib/GRAPHICLIB.LIB(GL_Widget_SetExpand.o)
 .ARM.attributes
                0x00000a20       0x10 C:/Program Files/TeliumSDK/SDK11.16.8.02/SDKTPLUS/HW_T2/gnu_434/lib/GRAPHICLIB.LIB(GL_Widget_SetFocusable.o)
 .ARM.attributes
                0x00000a30       0x10 C:/Program Files/TeliumSDK/SDK11.16.8.02/SDKTPLUS/HW_T2/gnu_434/lib/GRAPHICLIB.LIB(GL_Widget_SetFontName.o)
 .ARM.attributes
                0x00000a40       0x10 C:/Program Files/TeliumSDK/SDK11.16.8.02/SDKTPLUS/HW_T2/gnu_434/lib/GRAPHICLIB.LIB(GL_Widget_SetFontScale.o)
 .ARM.attributes
                0x00000a50       0x10 C:/Program Files/TeliumSDK/SDK11.16.8.02/SDKTPLUS/HW_T2/gnu_434/lib/GRAPHICLIB.LIB(GL_Widget_SetFontStyle.o)
 .ARM.attributes
                0x00000a60       0x10 C:/Program Files/TeliumSDK/SDK11.16.8.02/SDKTPLUS/HW_T2/gnu_434/lib/GRAPHICLIB.LIB(GL_Widget_SetForeColor.o)
 .ARM.attributes
                0x00000a70       0x10 C:/Program Files/TeliumSDK/SDK11.16.8.02/SDKTPLUS/HW_T2/gnu_434/lib/GRAPHICLIB.LIB(GL_Widget_SetGrow.o)
 .ARM.attributes
                0x00000a80       0x10 C:/Program Files/TeliumSDK/SDK11.16.8.02/SDKTPLUS/HW_T2/gnu_434/lib/GRAPHICLIB.LIB(GL_Widget_SetId.o)
 .ARM.attributes
                0x00000a90       0x10 C:/Program Files/TeliumSDK/SDK11.16.8.02/SDKTPLUS/HW_T2/gnu_434/lib/GRAPHICLIB.LIB(GL_Widget_SetItem.o)
 .ARM.attributes
                0x00000aa0       0x10 C:/Program Files/TeliumSDK/SDK11.16.8.02/SDKTPLUS/HW_T2/gnu_434/lib/GRAPHICLIB.LIB(GL_Widget_SetMargins.o)
 .ARM.attributes
                0x00000ab0       0x10 C:/Program Files/TeliumSDK/SDK11.16.8.02/SDKTPLUS/HW_T2/gnu_434/lib/GRAPHICLIB.LIB(GL_Widget_SetMinSize.o)
 .ARM.attributes
                0x00000ac0       0x10 C:/Program Files/TeliumSDK/SDK11.16.8.02/SDKTPLUS/HW_T2/gnu_434/lib/GRAPHICLIB.LIB(GL_Widget_SetShortcut.o)
 .ARM.attributes
                0x00000ad0       0x10 C:/Program Files/TeliumSDK/SDK11.16.8.02/SDKTPLUS/HW_T2/gnu_434/lib/GRAPHICLIB.LIB(GL_Widget_SetShrink.o)
 .ARM.attributes
                0x00000ae0       0x10 C:/Program Files/TeliumSDK/SDK11.16.8.02/SDKTPLUS/HW_T2/gnu_434/lib/GRAPHICLIB.LIB(GL_Widget_SetSize.o)
 .ARM.attributes
                0x00000af0       0x10 C:/Program Files/TeliumSDK/SDK11.16.8.02/SDKTPLUS/HW_T2/gnu_434/lib/GRAPHICLIB.LIB(GL_Widget_SetSource.o)
 .ARM.attributes
                0x00000b00       0x10 C:/Program Files/TeliumSDK/SDK11.16.8.02/SDKTPLUS/HW_T2/gnu_434/lib/GRAPHICLIB.LIB(GL_Widget_SetText.o)
 .ARM.attributes
                0x00000b10       0x10 C:/Program Files/TeliumSDK/SDK11.16.8.02/SDKTPLUS/HW_T2/gnu_434/lib/GRAPHICLIB.LIB(GL_Widget_SetTextAlign.o)
 .ARM.attributes
                0x00000b20       0x10 C:/Program Files/TeliumSDK/SDK11.16.8.02/SDKTPLUS/HW_T2/gnu_434/lib/GRAPHICLIB.LIB(GL_Widget_SetTextPaddings.o)
 .ARM.attributes
                0x00000b30       0x10 C:/Program Files/TeliumSDK/SDK11.16.8.02/SDKTPLUS/HW_T2/gnu_434/lib/GRAPHICLIB.LIB(GL_Widget_SetTransformation.o)
 .ARM.attributes
                0x00000b40       0x10 C:/Program Files/TeliumSDK/SDK11.16.8.02/SDKTPLUS/HW_T2/gnu_434/lib/GRAPHICLIB.LIB(GL_Widget_SetVisible.o)
 .ARM.attributes
                0x00000b50       0x10 C:/Program Files/TeliumSDK/SDK11.16.8.02/SDKTPLUS/HW_T2/gnu_434/lib/GRAPHICLIB.LIB(GL_Widget_SetWrap.o)
 .ARM.attributes
                0x00000b60       0x10 C:/Program Files/TeliumSDK/SDK11.16.8.02/SDKTPLUS/HW_T2/gnu_434/lib/GRAPHICLIB.LIB(GL_Widget_UnregisterCallback.o)
 .ARM.attributes
                0x00000b70       0x10 C:/Program Files/TeliumSDK/SDK11.16.8.02/SDKTPLUS/HW_T2/gnu_434/lib/GRAPHICLIB.LIB(GL_Window_Create.o)
 .ARM.attributes
                0x00000b80       0x10 C:/Program Files/TeliumSDK/SDK11.16.8.02/SDKTPLUS/HW_T2/gnu_434/lib/GRAPHICLIB.LIB(GL_Window_Dispatch.o)
 .ARM.attributes
                0x00000b90       0x10 C:/Program Files/TeliumSDK/SDK11.16.8.02/SDKTPLUS/HW_T2/gnu_434/lib/GRAPHICLIB.LIB(GL_Window_GetResult.o)
 .ARM.attributes
                0x00000ba0       0x10 C:/Program Files/TeliumSDK/SDK11.16.8.02/SDKTPLUS/HW_T2/gnu_434/lib/GRAPHICLIB.LIB(GL_Window_MainLoop.o)
 .ARM.attributes
                0x00000bb0       0x10 C:/Program Files/TeliumSDK/SDK11.16.8.02/SDKTPLUS/HW_T2/gnu_434/lib/GRAPHICLIB.LIB(GL_link.o)
 .ARM.attributes
                0x00000bc0       0x10 C:/Program Files/TeliumSDK/SDK11.16.8.02/SDKTPLUS/HW_T2/gnu_434/lib/GRAPHICLIB.LIB(gl_asm_link.o)
 .ARM.attributes
                0x00000bd0       0x10 C:/Program Files/TeliumSDK/SDK11.16.8.02/SDKTPLUS/HW_T2/gnu_434/lib/OSLAYER.LIB(OSL_Dll_Close.o)
 .ARM.attributes
                0x00000be0       0x10 C:/Program Files/TeliumSDK/SDK11.16.8.02/SDKTPLUS/HW_T2/gnu_434/lib/OSLAYER.LIB(OSL_Dll_GetSymbolByName.o)
 .ARM.attributes
                0x00000bf0       0x10 C:/Program Files/TeliumSDK/SDK11.16.8.02/SDKTPLUS/HW_T2/gnu_434/lib/OSLAYER.LIB(OSL_Dll_Open.o)
 .ARM.attributes
                0x00000c00       0x10 C:/Program Files/TeliumSDK/SDK11.16.8.02/SDKTPLUS/HW_T2/gnu_434/lib/OSLAYER.LIB(OSL_Dll_OpenByAppliType.o)
 .ARM.attributes
                0x00000c10       0x10 C:/Program Files/TeliumSDK/SDK11.16.8.02/SDKTPLUS/HW_T2/gnu_434/lib/OSLAYER.LIB(OSL_TimeStp_ElapsedMs.o)
 .ARM.attributes
                0x00000c20       0x10 C:/Program Files/TeliumSDK/SDK11.16.8.02/SDKTPLUS/HW_T2/gnu_434/lib/OSLAYER.LIB(OSL_TimeStp_Now.o)
 .ARM.attributes
                0x00000c30       0x10 C:/Program Files/TeliumSDK/SDK11.16.8.02/SDKTPLUS/HW_T2/gnu_434/lib/eft30tplus.lib(Telium_ServiceCall.o)
 .ARM.attributes
                0x00000c40       0x10 C:/Program Files/TeliumSDK/SDK11.16.8.02/SDKTPLUS/HW_T2/gnu_434/lib/TRAP_TELIUM_PLUS.LIB(FS_exist.o)
 .ARM.attributes
                0x00000c50       0x10 C:/Program Files/TeliumSDK/SDK11.16.8.02/SDKTPLUS/HW_T2/gnu_434/lib/TRAP_TELIUM_PLUS.LIB(FS_rename.o)
 .ARM.attributes
                0x00000c60       0x10 C:/Program Files/TeliumSDK/SDK11.16.8.02/SDKTPLUS/HW_T2/gnu_434/lib/TRAP_TELIUM_PLUS.LIB(FS_seek.o)
 .ARM.attributes
                0x00000c70       0x10 C:/Program Files/TeliumSDK/SDK11.16.8.02/SDKTPLUS/HW_T2/gnu_434/lib/TRAP_TELIUM_PLUS.LIB(FS_unlink.o)
 .ARM.attributes
                0x00000c80       0x10 C:/Program Files/TeliumSDK/SDK11.16.8.02/SDKTPLUS/HW_T2/gnu_434/lib/TRAP_TELIUM_PLUS.LIB(FS_write.o)
 .ARM.attributes
                0x00000c90       0x10 C:/Program Files/TeliumSDK/SDK11.16.8.02/SDKTPLUS/HW_T2/gnu_434/lib/TRAP_TELIUM_PLUS.LIB(ObjectLoad.o)
 .ARM.attributes
                0x00000ca0       0x10 C:/Program Files/TeliumSDK/SDK11.16.8.02/SDKTPLUS/HW_T2/gnu_434/lib/TRAP_TELIUM_PLUS.LIB(PageAlloc.o)
 .ARM.attributes
                0x00000cb0       0x10 C:/Program Files/TeliumSDK/SDK11.16.8.02/SDKTPLUS/HW_T2/gnu_434/lib/TRAP_TELIUM_PLUS.LIB(PageFree.o)
 .ARM.attributes
                0x00000cc0       0x10 C:/Program Files/TeliumSDK/SDK11.16.8.02/SDKTPLUS/HW_T2/gnu_434/lib/TRAP_TELIUM_PLUS.LIB(TMT_Retrieve_Clock.o)
 .ARM.attributes
                0x00000cd0       0x10 C:/Program Files/TeliumSDK/SDK11.16.8.02/SDKTPLUS/HW_T2/gnu_434/lib/TRAP_TELIUM_PLUS.LIB(upload_diagnostic_txt.o)
 .ARM.attributes
                0x00000ce0       0x10 C:/Program Files/TeliumSDK/SDK11.16.8.02/SDKTPLUS/HW_T2/gnu_434/lib/XMLs_TPlus.lib(XMLs_Attributes.o)
 .ARM.attributes
                0x00000cf0       0x10 C:/Program Files/TeliumSDK/SDK11.16.8.02/SDKTPLUS/HW_T2/gnu_434/lib/XMLs_TPlus.lib(XMLs_Common.o)
 .ARM.attributes
                0x00000d00       0x10 C:/Program Files/TeliumSDK/SDK11.16.8.02/SDKTPLUS/HW_T2/gnu_434/lib/XMLs_TPlus.lib(XMLs_Options.o)
 .ARM.attributes
                0x00000d10       0x10 C:/Program Files/TeliumSDK/SDK11.16.8.02/SDKTPLUS/HW_T2/gnu_434/lib/XMLs_TPlus.lib(XMLs_ProcessData.o)
 .ARM.attributes
                0x00000d20       0x10 C:/Program Files/TeliumSDK/SDK11.16.8.02/SDKTPLUS/HW_T2/gnu_434/lib/XMLs_TPlus.lib(XMLs.o)
 .ARM.attributes
                0x00000d30       0x10 C:/Program Files/TeliumSDK/SDK11.16.8.02/SDKTPLUS/HW_T2/gnu_434/lib/XMLs_TPlus.lib(XMLs_Buffer.o)
 .ARM.attributes
                0x00000d40       0x10 C:/Program Files/TeliumSDK/SDK11.16.8.02/SDKTPLUS/HW_T2/gnu_434/lib/XMLs_TPlus.lib(XMLs_Parser.o)
 .ARM.attributes
                0x00000d50       0x10 C:/Program Files/TeliumSDK/SDK11.16.8.02/SDKTPLUS/HW_T2/gnu_434/lib/XMLs_TPlus.lib(XMLs_Stream.o)
 .ARM.attributes
                0x00000d60       0x10 E:/IngeDev_8.18.0.5/toolchains/gnuArm4/arm-elf/lib/thumb/soft/interwork/libc.a(lib_a-memcmp.o)
 .ARM.attributes
                0x00000d70       0x10 E:/IngeDev_8.18.0.5/toolchains/gnuArm4/arm-elf/lib/thumb/soft/interwork/libc.a(lib_a-memcpy.o)
 .ARM.attributes
                0x00000d80       0x10 E:/IngeDev_8.18.0.5/toolchains/gnuArm4/arm-elf/lib/thumb/soft/interwork/libc.a(lib_a-memmove.o)
 .ARM.attributes
                0x00000d90       0x10 E:/IngeDev_8.18.0.5/toolchains/gnuArm4/arm-elf/lib/thumb/soft/interwork/libc.a(lib_a-memset.o)
 .ARM.attributes
                0x00000da0       0x10 E:/IngeDev_8.18.0.5/toolchains/gnuArm4/arm-elf/lib/thumb/soft/interwork/libc.a(lib_a-strcasecmp.o)
 .ARM.attributes
                0x00000db0       0x10 E:/IngeDev_8.18.0.5/toolchains/gnuArm4/arm-elf/lib/thumb/soft/interwork/libc.a(lib_a-strcat.o)
 .ARM.attributes
                0x00000dc0       0x10 E:/IngeDev_8.18.0.5/toolchains/gnuArm4/arm-elf/lib/thumb/soft/interwork/libc.a(lib_a-strchr.o)
 .ARM.attributes
                0x00000dd0       0x10 E:/IngeDev_8.18.0.5/toolchains/gnuArm4/arm-elf/lib/thumb/soft/interwork/libc.a(lib_a-strcmp.o)
 .ARM.attributes
                0x00000de0       0x10 E:/IngeDev_8.18.0.5/toolchains/gnuArm4/arm-elf/lib/thumb/soft/interwork/libc.a(lib_a-strcpy.o)
 .ARM.attributes
                0x00000df0       0x10 E:/IngeDev_8.18.0.5/toolchains/gnuArm4/arm-elf/lib/thumb/soft/interwork/libc.a(lib_a-strlen.o)
 .ARM.attributes
                0x00000e00       0x10 E:/IngeDev_8.18.0.5/toolchains/gnuArm4/arm-elf/lib/thumb/soft/interwork/libc.a(lib_a-strncpy.o)
 .ARM.attributes
                0x00000e10       0x10 E:/IngeDev_8.18.0.5/toolchains/gnuArm4/arm-elf/lib/thumb/soft/interwork/libc.a(lib_a-strrchr.o)
 .ARM.attributes
                0x00000e20       0x10 E:/IngeDev_8.18.0.5/toolchains/gnuArm4/arm-elf/lib/thumb/soft/interwork/libc.a(lib_a-strtoul.o)
 .ARM.attributes
                0x00000e30       0x10 E:/IngeDev_8.18.0.5/toolchains/gnuArm4/arm-elf/lib/thumb/soft/interwork/libc.a(lib_a-ctype_.o)
 .ARM.attributes
                0x00000e40       0x10 E:/IngeDev_8.18.0.5/toolchains/gnuArm4/arm-elf/lib/thumb/soft/interwork/libc.a(lib_a-impure.o)
 .ARM.attributes
                0x00000e50       0x10 E:/IngeDev_8.18.0.5/toolchains/gnuArm4/lib/gcc/arm-elf/4.3.4/thumb/soft/interwork/libgcc.a(_udivsi3.o)
 .ARM.attributes
                0x00000e60       0x10 E:/IngeDev_8.18.0.5/toolchains/gnuArm4/lib/gcc/arm-elf/4.3.4/thumb/soft/interwork/libgcc.a(_divsi3.o)
 .ARM.attributes
                0x00000e70       0x10 E:/IngeDev_8.18.0.5/toolchains/gnuArm4/lib/gcc/arm-elf/4.3.4/thumb/soft/interwork/libgcc.a(_umodsi3.o)
 .ARM.attributes
                0x00000e80       0x10 E:/IngeDev_8.18.0.5/toolchains/gnuArm4/lib/gcc/arm-elf/4.3.4/thumb/soft/interwork/libgcc.a(_modsi3.o)
 .ARM.attributes
                0x00000e90       0x10 E:/IngeDev_8.18.0.5/toolchains/gnuArm4/lib/gcc/arm-elf/4.3.4/thumb/soft/interwork/libgcc.a(_dvmd_tls.o)

.comment        0x00000000       0x23
 .comment       0x00000000       0x12 C:/Program Files/TeliumSDK/SDK11.16.8.02/SDKTPLUS/HW_T2/gnu_434/startfiles/libcpatch.o
 .comment       0x00000012       0x11 Obj/GNU_ARM_DEBUG_T2/Main.o
                                 0x12 (size before relaxing)
 .comment       0x00000000       0x12 Obj/GNU_ARM_DEBUG_T2/Entry.o
 .comment       0x00000000       0x12 Obj/GNU_ARM_DEBUG_T2/Menu.o
 .comment       0x00000000       0x12 Obj/GNU_ARM_DEBUG_T2/ComGPRS.o
 .comment       0x00000000       0x12 Obj/GNU_ARM_DEBUG_T2/Goal.o
 .comment       0x00000000       0x12 Obj/GNU_ARM_DEBUG_T2/Mapapp.o
 .comment       0x00000000       0x12 Obj/GNU_ARM_DEBUG_T2/FMG.o
 .comment       0x00000000       0x12 Obj/GNU_ARM_DEBUG_T2/Utility.o
 .comment       0x00000000       0x12 Obj/GNU_ARM_DEBUG_T2/Timer.o
 .comment       0x00000000       0x12 Obj/GNU_ARM_DEBUG_T2/iso8583.o
 .comment       0x00000000       0x12 Obj/GNU_ARM_DEBUG_T2/transaction.o
 .comment       0x00000000       0x12 Obj/GNU_ARM_DEBUG_T2/globals.o
 .comment       0x00000000       0x12 Obj/GNU_ARM_DEBUG_T2/magnetic.o
 .comment       0x00000000       0x12 Obj/GNU_ARM_DEBUG_T2/schemes.o
 .comment       0x00000000       0x12 Obj/GNU_ARM_DEBUG_T2/amount.o
 .comment       0x00000000       0x12 Obj/GNU_ARM_DEBUG_T2/printer.o
 .comment       0x00000000       0x12 C:/Program Files/TeliumSDK/SDK11.16.8.02/SDKTPLUS/HW_T2/gnu_434/lib/eft30tplus.lib(extenstp1.o)
 .comment       0x00000000       0x12 C:/Program Files/TeliumSDK/SDK11.16.8.02/SDKTPLUS/HW_T2/gnu_434/lib/eft30tplus.lib(libgrtp1.o)
 .comment       0x00000000       0x12 C:/Program Files/TeliumSDK/SDK11.16.8.02/SDKTPLUS/HW_T2/gnu_434/lib/eft30tplus.lib(paramtp1.o)
 .comment       0x00000000       0x12 C:/Program Files/TeliumSDK/SDK11.16.8.02/SDKTPLUS/HW_T2/gnu_434/lib/eft30tplus.lib(pinpadtp1.o)
 .comment       0x00000000       0x12 C:/Program Files/TeliumSDK/SDK11.16.8.02/SDKTPLUS/HW_T2/gnu_434/lib/eft30tplus.lib(Telium_Atoi.o)
 .comment       0x00000000       0x12 C:/Program Files/TeliumSDK/SDK11.16.8.02/SDKTPLUS/HW_T2/gnu_434/lib/eft30tplus.lib(Telium_Pprintf.o)
 .comment       0x00000000       0x12 C:/Program Files/TeliumSDK/SDK11.16.8.02/SDKTPLUS/HW_T2/gnu_434/lib/eft30tplus.lib(Telium_Printf.o)
 .comment       0x00000000       0x12 C:/Program Files/TeliumSDK/SDK11.16.8.02/SDKTPLUS/HW_T2/gnu_434/lib/eft30tplus.lib(Telium_Sprintf.o)
 .comment       0x00000000       0x12 C:/Program Files/TeliumSDK/SDK11.16.8.02/SDKTPLUS/HW_T2/gnu_434/lib/eft30tplus.lib(sprintf.o)
 .comment       0x00000000       0x12 C:/Program Files/TeliumSDK/SDK11.16.8.02/SDKTPLUS/HW_T2/gnu_434/lib/eft30tplus.lib(toolstp1.o)
 .comment       0x00000000       0x12 C:/Program Files/TeliumSDK/SDK11.16.8.02/SDKTPLUS/HW_T2/gnu_434/lib/SECTPLUS.lib(SECLibOpenClose.o)
 .comment       0x00000000       0x12 C:/Program Files/TeliumSDK/SDK11.16.8.02/SDKTPLUS/HW_T2/gnu_434/lib/SECTPLUS.lib(SEC1.o)
 .comment       0x00000000       0x12 C:/Program Files/TeliumSDK/SDK11.16.8.02/SDKTPLUS/HW_T2/gnu_434/lib/SECTPLUS.lib(SEC7.o)
 .comment       0x00000000       0x12 C:/Program Files/TeliumSDK/SDK11.16.8.02/SDKTPLUS/HW_T2/gnu_434/lib/SECTPLUS.lib(SEC8.o)
 .comment       0x00000000       0x12 C:/Program Files/TeliumSDK/SDK11.16.8.02/SDKTPLUS/HW_T2/gnu_434/lib/SECTPLUS.lib(SEC9.o)
 .comment       0x00000000       0x12 C:/Program Files/TeliumSDK/SDK11.16.8.02/SDKTPLUS/HW_T2/gnu_434/lib/SECTPLUS.lib(SEC10.o)
 .comment       0x00000000       0x12 C:/Program Files/TeliumSDK/SDK11.16.8.02/SDKTPLUS/HW_T2/gnu_434/lib/SECTPLUS.lib(SEC11.o)
 .comment       0x00000000       0x12 C:/Program Files/TeliumSDK/SDK11.16.8.02/SDKTPLUS/HW_T2/gnu_434/lib/SECTPLUS.lib(SEC19.o)
 .comment       0x00000000       0x12 C:/Program Files/TeliumSDK/SDK11.16.8.02/SDKTPLUS/HW_T2/gnu_434/lib/SECTPLUS.lib(SEC20.o)
 .comment       0x00000000       0x12 C:/Program Files/TeliumSDK/SDK11.16.8.02/SDKTPLUS/HW_T2/gnu_434/lib/SECTPLUS.lib(SEC21.o)
 .comment       0x00000000       0x12 C:/Program Files/TeliumSDK/SDK11.16.8.02/SDKTPLUS/HW_T2/gnu_434/lib/SECTPLUS.lib(SEC22.o)
 .comment       0x00000000       0x12 C:/Program Files/TeliumSDK/SDK11.16.8.02/SDKTPLUS/HW_T2/gnu_434/lib/SECTPLUS.lib(SEC23.o)
 .comment       0x00000000       0x12 C:/Program Files/TeliumSDK/SDK11.16.8.02/SDKTPLUS/HW_T2/gnu_434/lib/SECTPLUS.lib(SEC24.o)
 .comment       0x00000000       0x12 C:/Program Files/TeliumSDK/SDK11.16.8.02/SDKTPLUS/HW_T2/gnu_434/lib/SECTPLUS.lib(SEC34.o)
 .comment       0x00000000       0x12 C:/Program Files/TeliumSDK/SDK11.16.8.02/SDKTPLUS/HW_T2/gnu_434/lib/SECTPLUS.lib(SEC37.o)
 .comment       0x00000000       0x12 C:/Program Files/TeliumSDK/SDK11.16.8.02/SDKTPLUS/HW_T2/gnu_434/lib/SECTPLUS.lib(SEC38.o)
 .comment       0x00000000       0x12 C:/Program Files/TeliumSDK/SDK11.16.8.02/SDKTPLUS/HW_T2/gnu_434/lib/SECTPLUS.lib(SEC54.o)
 .comment       0x00000000       0x12 C:/Program Files/TeliumSDK/SDK11.16.8.02/SDKTPLUS/HW_T2/gnu_434/lib/LinkLayerExeInterface_TPlus.lib(LinkLayerServices.o)
 .comment       0x00000000       0x12 C:/Program Files/TeliumSDK/SDK11.16.8.02/SDKTPLUS/HW_T2/gnu_434/lib/ExtraGPRS.lib(EXTRA_GPRS_link.o)
 .comment       0x00000000       0x12 C:/Program Files/TeliumSDK/SDK11.16.8.02/SDKTPLUS/HW_T2/gnu_434/lib/GTL_TPlus.lib(GTL_StdTimer.o)
 .comment       0x00000000       0x12 C:/Program Files/TeliumSDK/SDK11.16.8.02/SDKTPLUS/HW_T2/gnu_434/lib/FMG_TPlus.lib(VGE_FMG.o)
 .comment       0x00000000       0x12 C:/Program Files/TeliumSDK/SDK11.16.8.02/SDKTPLUS/HW_T2/gnu_434/lib/FMG_TPlus.lib(md5.o)
 .comment       0x00000000       0x12 C:/Program Files/TeliumSDK/SDK11.16.8.02/SDKTPLUS/HW_T2/gnu_434/lib/TlvTree_TPlus.lib(Proxy.o)
 .comment       0x00000000       0x12 C:/Program Files/TeliumSDK/SDK11.16.8.02/SDKTPLUS/HW_T2/gnu_434/lib/TlvTree_TPlus.lib(Serializer.o)
 .comment       0x00000000       0x12 C:/Program Files/TeliumSDK/SDK11.16.8.02/SDKTPLUS/HW_T2/gnu_434/lib/TlvTree_TPlus.lib(Internal.o)
 .comment       0x00000000       0x12 C:/Program Files/TeliumSDK/SDK11.16.8.02/SDKTPLUS/HW_T2/gnu_434/lib/TlvTree_TPlus.lib(Serializer_Default.o)
 .comment       0x00000000       0x12 C:/Program Files/TeliumSDK/SDK11.16.8.02/SDKTPLUS/HW_T2/gnu_434/lib/TlvTree_TPlus.lib(Serializer_Xml.o)
 .comment       0x00000000       0x12 C:/Program Files/TeliumSDK/SDK11.16.8.02/SDKTPLUS/HW_T2/gnu_434/lib/GRAPHICLIB.LIB(GL_GraphicLib_Create.o)
 .comment       0x00000000       0x12 C:/Program Files/TeliumSDK/SDK11.16.8.02/SDKTPLUS/HW_T2/gnu_434/lib/GRAPHICLIB.LIB(GL_link.o)
 .comment       0x00000000       0x12 C:/Program Files/TeliumSDK/SDK11.16.8.02/SDKTPLUS/HW_T2/gnu_434/lib/XMLs_TPlus.lib(XMLs_Attributes.o)
 .comment       0x00000000       0x12 C:/Program Files/TeliumSDK/SDK11.16.8.02/SDKTPLUS/HW_T2/gnu_434/lib/XMLs_TPlus.lib(XMLs_Common.o)
 .comment       0x00000000       0x12 C:/Program Files/TeliumSDK/SDK11.16.8.02/SDKTPLUS/HW_T2/gnu_434/lib/XMLs_TPlus.lib(XMLs_Options.o)
 .comment       0x00000000       0x12 C:/Program Files/TeliumSDK/SDK11.16.8.02/SDKTPLUS/HW_T2/gnu_434/lib/XMLs_TPlus.lib(XMLs_ProcessData.o)
 .comment       0x00000000       0x12 C:/Program Files/TeliumSDK/SDK11.16.8.02/SDKTPLUS/HW_T2/gnu_434/lib/XMLs_TPlus.lib(XMLs.o)
 .comment       0x00000000       0x12 C:/Program Files/TeliumSDK/SDK11.16.8.02/SDKTPLUS/HW_T2/gnu_434/lib/XMLs_TPlus.lib(XMLs_Buffer.o)
 .comment       0x00000000       0x12 C:/Program Files/TeliumSDK/SDK11.16.8.02/SDKTPLUS/HW_T2/gnu_434/lib/XMLs_TPlus.lib(XMLs_Parser.o)
 .comment       0x00000000       0x12 C:/Program Files/TeliumSDK/SDK11.16.8.02/SDKTPLUS/HW_T2/gnu_434/lib/XMLs_TPlus.lib(XMLs_Stream.o)
 .comment       0x00000000       0x12 E:/IngeDev_8.18.0.5/toolchains/gnuArm4/arm-elf/lib/thumb/soft/interwork/libc.a(lib_a-memcmp.o)
 .comment       0x00000000       0x12 E:/IngeDev_8.18.0.5/toolchains/gnuArm4/arm-elf/lib/thumb/soft/interwork/libc.a(lib_a-memcpy.o)
 .comment       0x00000000       0x12 E:/IngeDev_8.18.0.5/toolchains/gnuArm4/arm-elf/lib/thumb/soft/interwork/libc.a(lib_a-memmove.o)
 .comment       0x00000000       0x12 E:/IngeDev_8.18.0.5/toolchains/gnuArm4/arm-elf/lib/thumb/soft/interwork/libc.a(lib_a-memset.o)
 .comment       0x00000000       0x12 E:/IngeDev_8.18.0.5/toolchains/gnuArm4/arm-elf/lib/thumb/soft/interwork/libc.a(lib_a-strcasecmp.o)
 .comment       0x00000000       0x12 E:/IngeDev_8.18.0.5/toolchains/gnuArm4/arm-elf/lib/thumb/soft/interwork/libc.a(lib_a-strcat.o)
 .comment       0x00000000       0x12 E:/IngeDev_8.18.0.5/toolchains/gnuArm4/arm-elf/lib/thumb/soft/interwork/libc.a(lib_a-strchr.o)
 .comment       0x00000000       0x12 E:/IngeDev_8.18.0.5/toolchains/gnuArm4/arm-elf/lib/thumb/soft/interwork/libc.a(lib_a-strcmp.o)
 .comment       0x00000000       0x12 E:/IngeDev_8.18.0.5/toolchains/gnuArm4/arm-elf/lib/thumb/soft/interwork/libc.a(lib_a-strcpy.o)
 .comment       0x00000000       0x12 E:/IngeDev_8.18.0.5/toolchains/gnuArm4/arm-elf/lib/thumb/soft/interwork/libc.a(lib_a-strlen.o)
 .comment       0x00000000       0x12 E:/IngeDev_8.18.0.5/toolchains/gnuArm4/arm-elf/lib/thumb/soft/interwork/libc.a(lib_a-strncpy.o)
 .comment       0x00000000       0x12 E:/IngeDev_8.18.0.5/toolchains/gnuArm4/arm-elf/lib/thumb/soft/interwork/libc.a(lib_a-strrchr.o)
 .comment       0x00000000       0x12 E:/IngeDev_8.18.0.5/toolchains/gnuArm4/arm-elf/lib/thumb/soft/interwork/libc.a(lib_a-strtoul.o)
 .comment       0x00000000       0x12 E:/IngeDev_8.18.0.5/toolchains/gnuArm4/arm-elf/lib/thumb/soft/interwork/libc.a(lib_a-ctype_.o)
 .comment       0x00000000       0x12 E:/IngeDev_8.18.0.5/toolchains/gnuArm4/arm-elf/lib/thumb/soft/interwork/libc.a(lib_a-impure.o)

.debug_abbrev   0x00000000     0x3a34
 .debug_abbrev  0x00000000      0x1ab C:/Program Files/TeliumSDK/SDK11.16.8.02/SDKTPLUS/HW_T2/gnu_434/startfiles/libcpatch.o
 .debug_abbrev  0x000001ab      0x151 Obj/GNU_ARM_DEBUG_T2/Main.o
 .debug_abbrev  0x000002fc      0x23d Obj/GNU_ARM_DEBUG_T2/Entry.o
 .debug_abbrev  0x00000539       0xfc Obj/GNU_ARM_DEBUG_T2/Menu.o
 .debug_abbrev  0x00000635      0x1b3 Obj/GNU_ARM_DEBUG_T2/ComGPRS.o
 .debug_abbrev  0x000007e8      0x189 Obj/GNU_ARM_DEBUG_T2/Goal.o
 .debug_abbrev  0x00000971      0x13d Obj/GNU_ARM_DEBUG_T2/Mapapp.o
 .debug_abbrev  0x00000aae      0x183 Obj/GNU_ARM_DEBUG_T2/FMG.o
 .debug_abbrev  0x00000c31      0x16e Obj/GNU_ARM_DEBUG_T2/Utility.o
 .debug_abbrev  0x00000d9f      0x129 Obj/GNU_ARM_DEBUG_T2/Timer.o
 .debug_abbrev  0x00000ec8       0xb0 Obj/GNU_ARM_DEBUG_T2/iso8583.o
 .debug_abbrev  0x00000f78      0x1bb Obj/GNU_ARM_DEBUG_T2/transaction.o
 .debug_abbrev  0x00001133      0x269 Obj/GNU_ARM_DEBUG_T2/globals.o
 .debug_abbrev  0x0000139c      0x148 Obj/GNU_ARM_DEBUG_T2/magnetic.o
 .debug_abbrev  0x000014e4      0x1de Obj/GNU_ARM_DEBUG_T2/schemes.o
 .debug_abbrev  0x000016c2      0x10e Obj/GNU_ARM_DEBUG_T2/amount.o
 .debug_abbrev  0x000017d0      0x139 Obj/GNU_ARM_DEBUG_T2/printer.o
 .debug_abbrev  0x00001909      0x14a C:/Program Files/TeliumSDK/SDK11.16.8.02/SDKTPLUS/HW_T2/gnu_434/lib/LinkLayerExeInterface_TPlus.lib(LinkLayerServices.o)
 .debug_abbrev  0x00001a53      0x225 C:/Program Files/TeliumSDK/SDK11.16.8.02/SDKTPLUS/HW_T2/gnu_434/lib/FMG_TPlus.lib(VGE_FMG.o)
 .debug_abbrev  0x00001c78      0x17f C:/Program Files/TeliumSDK/SDK11.16.8.02/SDKTPLUS/HW_T2/gnu_434/lib/FMG_TPlus.lib(md5.o)
 .debug_abbrev  0x00001df7       0xd4 C:/Program Files/TeliumSDK/SDK11.16.8.02/SDKTPLUS/HW_T2/gnu_434/lib/TlvTree_TPlus.lib(Proxy.o)
 .debug_abbrev  0x00001ecb       0xa3 C:/Program Files/TeliumSDK/SDK11.16.8.02/SDKTPLUS/HW_T2/gnu_434/lib/TlvTree_TPlus.lib(Serializer.o)
 .debug_abbrev  0x00001f6e      0x1b8 C:/Program Files/TeliumSDK/SDK11.16.8.02/SDKTPLUS/HW_T2/gnu_434/lib/TlvTree_TPlus.lib(Internal.o)
 .debug_abbrev  0x00002126      0x14e C:/Program Files/TeliumSDK/SDK11.16.8.02/SDKTPLUS/HW_T2/gnu_434/lib/TlvTree_TPlus.lib(Serializer_Default.o)
 .debug_abbrev  0x00002274      0x2e0 C:/Program Files/TeliumSDK/SDK11.16.8.02/SDKTPLUS/HW_T2/gnu_434/lib/TlvTree_TPlus.lib(Serializer_Xml.o)
 .debug_abbrev  0x00002554      0x143 C:/Program Files/TeliumSDK/SDK11.16.8.02/SDKTPLUS/HW_T2/gnu_434/lib/XMLs_TPlus.lib(XMLs_Attributes.o)
 .debug_abbrev  0x00002697      0x141 C:/Program Files/TeliumSDK/SDK11.16.8.02/SDKTPLUS/HW_T2/gnu_434/lib/XMLs_TPlus.lib(XMLs_Common.o)
 .debug_abbrev  0x000027d8       0xf3 C:/Program Files/TeliumSDK/SDK11.16.8.02/SDKTPLUS/HW_T2/gnu_434/lib/XMLs_TPlus.lib(XMLs_Options.o)
 .debug_abbrev  0x000028cb      0x106 C:/Program Files/TeliumSDK/SDK11.16.8.02/SDKTPLUS/HW_T2/gnu_434/lib/XMLs_TPlus.lib(XMLs_ProcessData.o)
 .debug_abbrev  0x000029d1      0x12b C:/Program Files/TeliumSDK/SDK11.16.8.02/SDKTPLUS/HW_T2/gnu_434/lib/XMLs_TPlus.lib(XMLs.o)
 .debug_abbrev  0x00002afc       0xf8 C:/Program Files/TeliumSDK/SDK11.16.8.02/SDKTPLUS/HW_T2/gnu_434/lib/XMLs_TPlus.lib(XMLs_Buffer.o)
 .debug_abbrev  0x00002bf4      0x29f C:/Program Files/TeliumSDK/SDK11.16.8.02/SDKTPLUS/HW_T2/gnu_434/lib/XMLs_TPlus.lib(XMLs_Parser.o)
 .debug_abbrev  0x00002e93      0x12c C:/Program Files/TeliumSDK/SDK11.16.8.02/SDKTPLUS/HW_T2/gnu_434/lib/XMLs_TPlus.lib(XMLs_Stream.o)
 .debug_abbrev  0x00002fbf       0x92 E:/IngeDev_8.18.0.5/toolchains/gnuArm4/arm-elf/lib/thumb/soft/interwork/libc.a(lib_a-memcmp.o)
 .debug_abbrev  0x00003051       0xa6 E:/IngeDev_8.18.0.5/toolchains/gnuArm4/arm-elf/lib/thumb/soft/interwork/libc.a(lib_a-memcpy.o)
 .debug_abbrev  0x000030f7       0xa2 E:/IngeDev_8.18.0.5/toolchains/gnuArm4/arm-elf/lib/thumb/soft/interwork/libc.a(lib_a-memmove.o)
 .debug_abbrev  0x00003199       0x85 E:/IngeDev_8.18.0.5/toolchains/gnuArm4/arm-elf/lib/thumb/soft/interwork/libc.a(lib_a-memset.o)
 .debug_abbrev  0x0000321e       0xb1 E:/IngeDev_8.18.0.5/toolchains/gnuArm4/arm-elf/lib/thumb/soft/interwork/libc.a(lib_a-strcasecmp.o)
 .debug_abbrev  0x000032cf       0x76 E:/IngeDev_8.18.0.5/toolchains/gnuArm4/arm-elf/lib/thumb/soft/interwork/libc.a(lib_a-strcat.o)
 .debug_abbrev  0x00003345       0x89 E:/IngeDev_8.18.0.5/toolchains/gnuArm4/arm-elf/lib/thumb/soft/interwork/libc.a(lib_a-strchr.o)
 .debug_abbrev  0x000033ce       0x78 E:/IngeDev_8.18.0.5/toolchains/gnuArm4/arm-elf/lib/thumb/soft/interwork/libc.a(lib_a-strcmp.o)
 .debug_abbrev  0x00003446       0x78 E:/IngeDev_8.18.0.5/toolchains/gnuArm4/arm-elf/lib/thumb/soft/interwork/libc.a(lib_a-strcpy.o)
 .debug_abbrev  0x000034be       0x94 E:/IngeDev_8.18.0.5/toolchains/gnuArm4/arm-elf/lib/thumb/soft/interwork/libc.a(lib_a-strlen.o)
 .debug_abbrev  0x00003552       0x85 E:/IngeDev_8.18.0.5/toolchains/gnuArm4/arm-elf/lib/thumb/soft/interwork/libc.a(lib_a-strncpy.o)
 .debug_abbrev  0x000035d7       0x78 E:/IngeDev_8.18.0.5/toolchains/gnuArm4/arm-elf/lib/thumb/soft/interwork/libc.a(lib_a-strrchr.o)
 .debug_abbrev  0x0000364f      0x1c6 E:/IngeDev_8.18.0.5/toolchains/gnuArm4/arm-elf/lib/thumb/soft/interwork/libc.a(lib_a-strtoul.o)
 .debug_abbrev  0x00003815       0x5b E:/IngeDev_8.18.0.5/toolchains/gnuArm4/arm-elf/lib/thumb/soft/interwork/libc.a(lib_a-ctype_.o)
 .debug_abbrev  0x00003870      0x160 E:/IngeDev_8.18.0.5/toolchains/gnuArm4/arm-elf/lib/thumb/soft/interwork/libc.a(lib_a-impure.o)
 .debug_abbrev  0x000039d0       0x14 E:/IngeDev_8.18.0.5/toolchains/gnuArm4/lib/gcc/arm-elf/4.3.4/thumb/soft/interwork/libgcc.a(_udivsi3.o)
 .debug_abbrev  0x000039e4       0x14 E:/IngeDev_8.18.0.5/toolchains/gnuArm4/lib/gcc/arm-elf/4.3.4/thumb/soft/interwork/libgcc.a(_divsi3.o)
 .debug_abbrev  0x000039f8       0x14 E:/IngeDev_8.18.0.5/toolchains/gnuArm4/lib/gcc/arm-elf/4.3.4/thumb/soft/interwork/libgcc.a(_umodsi3.o)
 .debug_abbrev  0x00003a0c       0x14 E:/IngeDev_8.18.0.5/toolchains/gnuArm4/lib/gcc/arm-elf/4.3.4/thumb/soft/interwork/libgcc.a(_modsi3.o)
 .debug_abbrev  0x00003a20       0x14 E:/IngeDev_8.18.0.5/toolchains/gnuArm4/lib/gcc/arm-elf/4.3.4/thumb/soft/interwork/libgcc.a(_dvmd_tls.o)

.debug_info     0x00000000    0x1f406
 .debug_info    0x00000000      0xcb8 C:/Program Files/TeliumSDK/SDK11.16.8.02/SDKTPLUS/HW_T2/gnu_434/startfiles/libcpatch.o
 .debug_info    0x00000cb8     0x23e8 Obj/GNU_ARM_DEBUG_T2/Main.o
 .debug_info    0x000030a0     0x19fb Obj/GNU_ARM_DEBUG_T2/Entry.o
 .debug_info    0x00004a9b      0x286 Obj/GNU_ARM_DEBUG_T2/Menu.o
 .debug_info    0x00004d21     0x1247 Obj/GNU_ARM_DEBUG_T2/ComGPRS.o
 .debug_info    0x00005f68     0x19d0 Obj/GNU_ARM_DEBUG_T2/Goal.o
 .debug_info    0x00007938     0x104c Obj/GNU_ARM_DEBUG_T2/Mapapp.o
 .debug_info    0x00008984      0x9fe Obj/GNU_ARM_DEBUG_T2/FMG.o
 .debug_info    0x00009382      0x710 Obj/GNU_ARM_DEBUG_T2/Utility.o
 .debug_info    0x00009a92      0x768 Obj/GNU_ARM_DEBUG_T2/Timer.o
 .debug_info    0x0000a1fa      0x48b Obj/GNU_ARM_DEBUG_T2/iso8583.o
 .debug_info    0x0000a685     0x1a9e Obj/GNU_ARM_DEBUG_T2/transaction.o
 .debug_info    0x0000c123     0x3d03 Obj/GNU_ARM_DEBUG_T2/globals.o
 .debug_info    0x0000fe26     0x142b Obj/GNU_ARM_DEBUG_T2/magnetic.o
 .debug_info    0x00011251     0x1f38 Obj/GNU_ARM_DEBUG_T2/schemes.o
 .debug_info    0x00013189      0xddc Obj/GNU_ARM_DEBUG_T2/amount.o
 .debug_info    0x00013f65     0x11c6 Obj/GNU_ARM_DEBUG_T2/printer.o
 .debug_info    0x0001512b      0xbd5 C:/Program Files/TeliumSDK/SDK11.16.8.02/SDKTPLUS/HW_T2/gnu_434/lib/LinkLayerExeInterface_TPlus.lib(LinkLayerServices.o)
 .debug_info    0x00015d00     0x1e5e C:/Program Files/TeliumSDK/SDK11.16.8.02/SDKTPLUS/HW_T2/gnu_434/lib/FMG_TPlus.lib(VGE_FMG.o)
 .debug_info    0x00017b5e      0x34c C:/Program Files/TeliumSDK/SDK11.16.8.02/SDKTPLUS/HW_T2/gnu_434/lib/FMG_TPlus.lib(md5.o)
 .debug_info    0x00017eaa      0x6ec C:/Program Files/TeliumSDK/SDK11.16.8.02/SDKTPLUS/HW_T2/gnu_434/lib/TlvTree_TPlus.lib(Proxy.o)
 .debug_info    0x00018596      0x210 C:/Program Files/TeliumSDK/SDK11.16.8.02/SDKTPLUS/HW_T2/gnu_434/lib/TlvTree_TPlus.lib(Serializer.o)
 .debug_info    0x000187a6      0x78f C:/Program Files/TeliumSDK/SDK11.16.8.02/SDKTPLUS/HW_T2/gnu_434/lib/TlvTree_TPlus.lib(Internal.o)
 .debug_info    0x00018f35      0x4c7 C:/Program Files/TeliumSDK/SDK11.16.8.02/SDKTPLUS/HW_T2/gnu_434/lib/TlvTree_TPlus.lib(Serializer_Default.o)
 .debug_info    0x000193fc      0xe04 C:/Program Files/TeliumSDK/SDK11.16.8.02/SDKTPLUS/HW_T2/gnu_434/lib/TlvTree_TPlus.lib(Serializer_Xml.o)
 .debug_info    0x0001a200      0x2f0 C:/Program Files/TeliumSDK/SDK11.16.8.02/SDKTPLUS/HW_T2/gnu_434/lib/XMLs_TPlus.lib(XMLs_Attributes.o)
 .debug_info    0x0001a4f0      0x684 C:/Program Files/TeliumSDK/SDK11.16.8.02/SDKTPLUS/HW_T2/gnu_434/lib/XMLs_TPlus.lib(XMLs_Common.o)
 .debug_info    0x0001ab74      0x594 C:/Program Files/TeliumSDK/SDK11.16.8.02/SDKTPLUS/HW_T2/gnu_434/lib/XMLs_TPlus.lib(XMLs_Options.o)
 .debug_info    0x0001b108      0x2a8 C:/Program Files/TeliumSDK/SDK11.16.8.02/SDKTPLUS/HW_T2/gnu_434/lib/XMLs_TPlus.lib(XMLs_ProcessData.o)
 .debug_info    0x0001b3b0      0x67b C:/Program Files/TeliumSDK/SDK11.16.8.02/SDKTPLUS/HW_T2/gnu_434/lib/XMLs_TPlus.lib(XMLs.o)
 .debug_info    0x0001ba2b      0x2b2 C:/Program Files/TeliumSDK/SDK11.16.8.02/SDKTPLUS/HW_T2/gnu_434/lib/XMLs_TPlus.lib(XMLs_Buffer.o)
 .debug_info    0x0001bcdd     0x111f C:/Program Files/TeliumSDK/SDK11.16.8.02/SDKTPLUS/HW_T2/gnu_434/lib/XMLs_TPlus.lib(XMLs_Parser.o)
 .debug_info    0x0001cdfc      0x347 C:/Program Files/TeliumSDK/SDK11.16.8.02/SDKTPLUS/HW_T2/gnu_434/lib/XMLs_TPlus.lib(XMLs_Stream.o)
 .debug_info    0x0001d143       0xe7 E:/IngeDev_8.18.0.5/toolchains/gnuArm4/arm-elf/lib/thumb/soft/interwork/libc.a(lib_a-memcmp.o)
 .debug_info    0x0001d22a       0xfa E:/IngeDev_8.18.0.5/toolchains/gnuArm4/arm-elf/lib/thumb/soft/interwork/libc.a(lib_a-memcpy.o)
 .debug_info    0x0001d324      0x102 E:/IngeDev_8.18.0.5/toolchains/gnuArm4/arm-elf/lib/thumb/soft/interwork/libc.a(lib_a-memmove.o)
 .debug_info    0x0001d426       0xcd E:/IngeDev_8.18.0.5/toolchains/gnuArm4/arm-elf/lib/thumb/soft/interwork/libc.a(lib_a-memset.o)
 .debug_info    0x0001d4f3      0x14f E:/IngeDev_8.18.0.5/toolchains/gnuArm4/arm-elf/lib/thumb/soft/interwork/libc.a(lib_a-strcasecmp.o)
 .debug_info    0x0001d642       0xc6 E:/IngeDev_8.18.0.5/toolchains/gnuArm4/arm-elf/lib/thumb/soft/interwork/libc.a(lib_a-strcat.o)
 .debug_info    0x0001d708       0xe1 E:/IngeDev_8.18.0.5/toolchains/gnuArm4/arm-elf/lib/thumb/soft/interwork/libc.a(lib_a-strchr.o)
 .debug_info    0x0001d7e9       0xb3 E:/IngeDev_8.18.0.5/toolchains/gnuArm4/arm-elf/lib/thumb/soft/interwork/libc.a(lib_a-strcmp.o)
 .debug_info    0x0001d89c       0xbb E:/IngeDev_8.18.0.5/toolchains/gnuArm4/arm-elf/lib/thumb/soft/interwork/libc.a(lib_a-strcpy.o)
 .debug_info    0x0001d957       0xcf E:/IngeDev_8.18.0.5/toolchains/gnuArm4/arm-elf/lib/thumb/soft/interwork/libc.a(lib_a-strlen.o)
 .debug_info    0x0001da26       0xf3 E:/IngeDev_8.18.0.5/toolchains/gnuArm4/arm-elf/lib/thumb/soft/interwork/libc.a(lib_a-strncpy.o)
 .debug_info    0x0001db19       0xca E:/IngeDev_8.18.0.5/toolchains/gnuArm4/arm-elf/lib/thumb/soft/interwork/libc.a(lib_a-strrchr.o)
 .debug_info    0x0001dbe3      0xa52 E:/IngeDev_8.18.0.5/toolchains/gnuArm4/arm-elf/lib/thumb/soft/interwork/libc.a(lib_a-strtoul.o)
 .debug_info    0x0001e635       0x75 E:/IngeDev_8.18.0.5/toolchains/gnuArm4/arm-elf/lib/thumb/soft/interwork/libc.a(lib_a-ctype_.o)
 .debug_info    0x0001e6aa      0x965 E:/IngeDev_8.18.0.5/toolchains/gnuArm4/arm-elf/lib/thumb/soft/interwork/libc.a(lib_a-impure.o)
 .debug_info    0x0001f00f       0xcb E:/IngeDev_8.18.0.5/toolchains/gnuArm4/lib/gcc/arm-elf/4.3.4/thumb/soft/interwork/libgcc.a(_udivsi3.o)
 .debug_info    0x0001f0da       0xcb E:/IngeDev_8.18.0.5/toolchains/gnuArm4/lib/gcc/arm-elf/4.3.4/thumb/soft/interwork/libgcc.a(_divsi3.o)
 .debug_info    0x0001f1a5       0xcb E:/IngeDev_8.18.0.5/toolchains/gnuArm4/lib/gcc/arm-elf/4.3.4/thumb/soft/interwork/libgcc.a(_umodsi3.o)
 .debug_info    0x0001f270       0xcb E:/IngeDev_8.18.0.5/toolchains/gnuArm4/lib/gcc/arm-elf/4.3.4/thumb/soft/interwork/libgcc.a(_modsi3.o)
 .debug_info    0x0001f33b       0xcb E:/IngeDev_8.18.0.5/toolchains/gnuArm4/lib/gcc/arm-elf/4.3.4/thumb/soft/interwork/libgcc.a(_dvmd_tls.o)

.debug_line     0x00000000     0x4c9a
 .debug_line    0x00000000      0x1b2 C:/Program Files/TeliumSDK/SDK11.16.8.02/SDKTPLUS/HW_T2/gnu_434/startfiles/libcpatch.o
 .debug_line    0x000001b2       0xe2 Obj/GNU_ARM_DEBUG_T2/Main.o
 .debug_line    0x00000294      0x2b7 Obj/GNU_ARM_DEBUG_T2/Entry.o
 .debug_line    0x0000054b       0xed Obj/GNU_ARM_DEBUG_T2/Menu.o
 .debug_line    0x00000638      0x334 Obj/GNU_ARM_DEBUG_T2/ComGPRS.o
 .debug_line    0x0000096c      0x43e Obj/GNU_ARM_DEBUG_T2/Goal.o
 .debug_line    0x00000daa      0x111 Obj/GNU_ARM_DEBUG_T2/Mapapp.o
 .debug_line    0x00000ebb      0x178 Obj/GNU_ARM_DEBUG_T2/FMG.o
 .debug_line    0x00001033      0x1ff Obj/GNU_ARM_DEBUG_T2/Utility.o
 .debug_line    0x00001232      0x11f Obj/GNU_ARM_DEBUG_T2/Timer.o
 .debug_line    0x00001351       0xab Obj/GNU_ARM_DEBUG_T2/iso8583.o
 .debug_line    0x000013fc      0x19c Obj/GNU_ARM_DEBUG_T2/transaction.o
 .debug_line    0x00001598      0x735 Obj/GNU_ARM_DEBUG_T2/globals.o
 .debug_line    0x00001ccd      0x168 Obj/GNU_ARM_DEBUG_T2/magnetic.o
 .debug_line    0x00001e35      0x3b1 Obj/GNU_ARM_DEBUG_T2/schemes.o
 .debug_line    0x000021e6       0xd4 Obj/GNU_ARM_DEBUG_T2/amount.o
 .debug_line    0x000022ba      0x193 Obj/GNU_ARM_DEBUG_T2/printer.o
 .debug_line    0x0000244d      0x1e5 C:/Program Files/TeliumSDK/SDK11.16.8.02/SDKTPLUS/HW_T2/gnu_434/lib/LinkLayerExeInterface_TPlus.lib(LinkLayerServices.o)
 .debug_line    0x00002632      0x792 C:/Program Files/TeliumSDK/SDK11.16.8.02/SDKTPLUS/HW_T2/gnu_434/lib/FMG_TPlus.lib(VGE_FMG.o)
 .debug_line    0x00002dc4      0x1d0 C:/Program Files/TeliumSDK/SDK11.16.8.02/SDKTPLUS/HW_T2/gnu_434/lib/FMG_TPlus.lib(md5.o)
 .debug_line    0x00002f94      0x111 C:/Program Files/TeliumSDK/SDK11.16.8.02/SDKTPLUS/HW_T2/gnu_434/lib/TlvTree_TPlus.lib(Proxy.o)
 .debug_line    0x000030a5       0x72 C:/Program Files/TeliumSDK/SDK11.16.8.02/SDKTPLUS/HW_T2/gnu_434/lib/TlvTree_TPlus.lib(Serializer.o)
 .debug_line    0x00003117      0x15d C:/Program Files/TeliumSDK/SDK11.16.8.02/SDKTPLUS/HW_T2/gnu_434/lib/TlvTree_TPlus.lib(Internal.o)
 .debug_line    0x00003274      0x11e C:/Program Files/TeliumSDK/SDK11.16.8.02/SDKTPLUS/HW_T2/gnu_434/lib/TlvTree_TPlus.lib(Serializer_Default.o)
 .debug_line    0x00003392      0x2aa C:/Program Files/TeliumSDK/SDK11.16.8.02/SDKTPLUS/HW_T2/gnu_434/lib/TlvTree_TPlus.lib(Serializer_Xml.o)
 .debug_line    0x0000363c       0xb0 C:/Program Files/TeliumSDK/SDK11.16.8.02/SDKTPLUS/HW_T2/gnu_434/lib/XMLs_TPlus.lib(XMLs_Attributes.o)
 .debug_line    0x000036ec       0xa7 C:/Program Files/TeliumSDK/SDK11.16.8.02/SDKTPLUS/HW_T2/gnu_434/lib/XMLs_TPlus.lib(XMLs_Common.o)
 .debug_line    0x00003793       0x9c C:/Program Files/TeliumSDK/SDK11.16.8.02/SDKTPLUS/HW_T2/gnu_434/lib/XMLs_TPlus.lib(XMLs_Options.o)
 .debug_line    0x0000382f       0xc3 C:/Program Files/TeliumSDK/SDK11.16.8.02/SDKTPLUS/HW_T2/gnu_434/lib/XMLs_TPlus.lib(XMLs_ProcessData.o)
 .debug_line    0x000038f2       0xc9 C:/Program Files/TeliumSDK/SDK11.16.8.02/SDKTPLUS/HW_T2/gnu_434/lib/XMLs_TPlus.lib(XMLs.o)
 .debug_line    0x000039bb       0xb9 C:/Program Files/TeliumSDK/SDK11.16.8.02/SDKTPLUS/HW_T2/gnu_434/lib/XMLs_TPlus.lib(XMLs_Buffer.o)
 .debug_line    0x00003a74      0x2be C:/Program Files/TeliumSDK/SDK11.16.8.02/SDKTPLUS/HW_T2/gnu_434/lib/XMLs_TPlus.lib(XMLs_Parser.o)
 .debug_line    0x00003d32       0xbc C:/Program Files/TeliumSDK/SDK11.16.8.02/SDKTPLUS/HW_T2/gnu_434/lib/XMLs_TPlus.lib(XMLs_Stream.o)
 .debug_line    0x00003dee       0xd7 E:/IngeDev_8.18.0.5/toolchains/gnuArm4/arm-elf/lib/thumb/soft/interwork/libc.a(lib_a-memcmp.o)
 .debug_line    0x00003ec5       0xd8 E:/IngeDev_8.18.0.5/toolchains/gnuArm4/arm-elf/lib/thumb/soft/interwork/libc.a(lib_a-memcpy.o)
 .debug_line    0x00003f9d       0xde E:/IngeDev_8.18.0.5/toolchains/gnuArm4/arm-elf/lib/thumb/soft/interwork/libc.a(lib_a-memmove.o)
 .debug_line    0x0000407b       0xd6 E:/IngeDev_8.18.0.5/toolchains/gnuArm4/arm-elf/lib/thumb/soft/interwork/libc.a(lib_a-memset.o)
 .debug_line    0x00004151       0xe0 E:/IngeDev_8.18.0.5/toolchains/gnuArm4/arm-elf/lib/thumb/soft/interwork/libc.a(lib_a-strcasecmp.o)
 .debug_line    0x00004231       0x80 E:/IngeDev_8.18.0.5/toolchains/gnuArm4/arm-elf/lib/thumb/soft/interwork/libc.a(lib_a-strcat.o)
 .debug_line    0x000042b1       0x7f E:/IngeDev_8.18.0.5/toolchains/gnuArm4/arm-elf/lib/thumb/soft/interwork/libc.a(lib_a-strchr.o)
 .debug_line    0x00004330       0x81 E:/IngeDev_8.18.0.5/toolchains/gnuArm4/arm-elf/lib/thumb/soft/interwork/libc.a(lib_a-strcmp.o)
 .debug_line    0x000043b1       0x81 E:/IngeDev_8.18.0.5/toolchains/gnuArm4/arm-elf/lib/thumb/soft/interwork/libc.a(lib_a-strcpy.o)
 .debug_line    0x00004432       0xdc E:/IngeDev_8.18.0.5/toolchains/gnuArm4/arm-elf/lib/thumb/soft/interwork/libc.a(lib_a-strlen.o)
 .debug_line    0x0000450e       0xde E:/IngeDev_8.18.0.5/toolchains/gnuArm4/arm-elf/lib/thumb/soft/interwork/libc.a(lib_a-strncpy.o)
 .debug_line    0x000045ec       0x7f E:/IngeDev_8.18.0.5/toolchains/gnuArm4/arm-elf/lib/thumb/soft/interwork/libc.a(lib_a-strrchr.o)
 .debug_line    0x0000466b      0x1d6 E:/IngeDev_8.18.0.5/toolchains/gnuArm4/arm-elf/lib/thumb/soft/interwork/libc.a(lib_a-strtoul.o)
 .debug_line    0x00004841       0x68 E:/IngeDev_8.18.0.5/toolchains/gnuArm4/arm-elf/lib/thumb/soft/interwork/libc.a(lib_a-ctype_.o)
 .debug_line    0x000048a9      0x132 E:/IngeDev_8.18.0.5/toolchains/gnuArm4/arm-elf/lib/thumb/soft/interwork/libc.a(lib_a-impure.o)
 .debug_line    0x000049db       0x90 E:/IngeDev_8.18.0.5/toolchains/gnuArm4/lib/gcc/arm-elf/4.3.4/thumb/soft/interwork/libgcc.a(_udivsi3.o)
 .debug_line    0x00004a6b       0x9c E:/IngeDev_8.18.0.5/toolchains/gnuArm4/lib/gcc/arm-elf/4.3.4/thumb/soft/interwork/libgcc.a(_divsi3.o)
 .debug_line    0x00004b07       0x88 E:/IngeDev_8.18.0.5/toolchains/gnuArm4/lib/gcc/arm-elf/4.3.4/thumb/soft/interwork/libgcc.a(_umodsi3.o)
 .debug_line    0x00004b8f       0x91 E:/IngeDev_8.18.0.5/toolchains/gnuArm4/lib/gcc/arm-elf/4.3.4/thumb/soft/interwork/libgcc.a(_modsi3.o)
 .debug_line    0x00004c20       0x7a E:/IngeDev_8.18.0.5/toolchains/gnuArm4/lib/gcc/arm-elf/4.3.4/thumb/soft/interwork/libgcc.a(_dvmd_tls.o)

.debug_frame    0x00000000     0x2fd8
 .debug_frame   0x00000000       0x70 C:/Program Files/TeliumSDK/SDK11.16.8.02/SDKTPLUS/HW_T2/gnu_434/startfiles/libcpatch.o
 .debug_frame   0x00000070       0x28 Obj/GNU_ARM_DEBUG_T2/Main.o
 .debug_frame   0x00000098      0x28c Obj/GNU_ARM_DEBUG_T2/Entry.o
 .debug_frame   0x00000324       0x74 Obj/GNU_ARM_DEBUG_T2/Menu.o
 .debug_frame   0x00000398      0x140 Obj/GNU_ARM_DEBUG_T2/ComGPRS.o
 .debug_frame   0x000004d8      0x324 Obj/GNU_ARM_DEBUG_T2/Goal.o
 .debug_frame   0x000007fc       0xac Obj/GNU_ARM_DEBUG_T2/Mapapp.o
 .debug_frame   0x000008a8       0xb8 Obj/GNU_ARM_DEBUG_T2/FMG.o
 .debug_frame   0x00000960      0x178 Obj/GNU_ARM_DEBUG_T2/Utility.o
 .debug_frame   0x00000ad8       0x88 Obj/GNU_ARM_DEBUG_T2/Timer.o
 .debug_frame   0x00000b60       0x40 Obj/GNU_ARM_DEBUG_T2/iso8583.o
 .debug_frame   0x00000ba0      0x134 Obj/GNU_ARM_DEBUG_T2/transaction.o
 .debug_frame   0x00000cd4      0xb24 Obj/GNU_ARM_DEBUG_T2/globals.o
 .debug_frame   0x000017f8       0x48 Obj/GNU_ARM_DEBUG_T2/magnetic.o
 .debug_frame   0x00001840      0x1e4 Obj/GNU_ARM_DEBUG_T2/schemes.o
 .debug_frame   0x00001a24       0x2c Obj/GNU_ARM_DEBUG_T2/amount.o
 .debug_frame   0x00001a50       0x2c Obj/GNU_ARM_DEBUG_T2/printer.o
 .debug_frame   0x00001a7c      0x204 C:/Program Files/TeliumSDK/SDK11.16.8.02/SDKTPLUS/HW_T2/gnu_434/lib/LinkLayerExeInterface_TPlus.lib(LinkLayerServices.o)
 .debug_frame   0x00001c80      0x3fc C:/Program Files/TeliumSDK/SDK11.16.8.02/SDKTPLUS/HW_T2/gnu_434/lib/FMG_TPlus.lib(VGE_FMG.o)
 .debug_frame   0x0000207c       0x8c C:/Program Files/TeliumSDK/SDK11.16.8.02/SDKTPLUS/HW_T2/gnu_434/lib/FMG_TPlus.lib(md5.o)
 .debug_frame   0x00002108      0x2b4 C:/Program Files/TeliumSDK/SDK11.16.8.02/SDKTPLUS/HW_T2/gnu_434/lib/TlvTree_TPlus.lib(Proxy.o)
 .debug_frame   0x000023bc       0x60 C:/Program Files/TeliumSDK/SDK11.16.8.02/SDKTPLUS/HW_T2/gnu_434/lib/TlvTree_TPlus.lib(Serializer.o)
 .debug_frame   0x0000241c      0x238 C:/Program Files/TeliumSDK/SDK11.16.8.02/SDKTPLUS/HW_T2/gnu_434/lib/TlvTree_TPlus.lib(Internal.o)
 .debug_frame   0x00002654       0xd0 C:/Program Files/TeliumSDK/SDK11.16.8.02/SDKTPLUS/HW_T2/gnu_434/lib/TlvTree_TPlus.lib(Serializer_Default.o)
 .debug_frame   0x00002724      0x158 C:/Program Files/TeliumSDK/SDK11.16.8.02/SDKTPLUS/HW_T2/gnu_434/lib/TlvTree_TPlus.lib(Serializer_Xml.o)
 .debug_frame   0x0000287c       0x84 C:/Program Files/TeliumSDK/SDK11.16.8.02/SDKTPLUS/HW_T2/gnu_434/lib/XMLs_TPlus.lib(XMLs_Attributes.o)
 .debug_frame   0x00002900       0x8c C:/Program Files/TeliumSDK/SDK11.16.8.02/SDKTPLUS/HW_T2/gnu_434/lib/XMLs_TPlus.lib(XMLs_Common.o)
 .debug_frame   0x0000298c       0x50 C:/Program Files/TeliumSDK/SDK11.16.8.02/SDKTPLUS/HW_T2/gnu_434/lib/XMLs_TPlus.lib(XMLs_Options.o)
 .debug_frame   0x000029dc       0x30 C:/Program Files/TeliumSDK/SDK11.16.8.02/SDKTPLUS/HW_T2/gnu_434/lib/XMLs_TPlus.lib(XMLs_ProcessData.o)
 .debug_frame   0x00002a0c       0xa0 C:/Program Files/TeliumSDK/SDK11.16.8.02/SDKTPLUS/HW_T2/gnu_434/lib/XMLs_TPlus.lib(XMLs.o)
 .debug_frame   0x00002aac       0xd4 C:/Program Files/TeliumSDK/SDK11.16.8.02/SDKTPLUS/HW_T2/gnu_434/lib/XMLs_TPlus.lib(XMLs_Buffer.o)
 .debug_frame   0x00002b80      0x124 C:/Program Files/TeliumSDK/SDK11.16.8.02/SDKTPLUS/HW_T2/gnu_434/lib/XMLs_TPlus.lib(XMLs_Parser.o)
 .debug_frame   0x00002ca4       0x7c C:/Program Files/TeliumSDK/SDK11.16.8.02/SDKTPLUS/HW_T2/gnu_434/lib/XMLs_TPlus.lib(XMLs_Stream.o)
 .debug_frame   0x00002d20       0x2c E:/IngeDev_8.18.0.5/toolchains/gnuArm4/arm-elf/lib/thumb/soft/interwork/libc.a(lib_a-memcmp.o)
 .debug_frame   0x00002d4c       0x28 E:/IngeDev_8.18.0.5/toolchains/gnuArm4/arm-elf/lib/thumb/soft/interwork/libc.a(lib_a-memcpy.o)
 .debug_frame   0x00002d74       0x2c E:/IngeDev_8.18.0.5/toolchains/gnuArm4/arm-elf/lib/thumb/soft/interwork/libc.a(lib_a-memmove.o)
 .debug_frame   0x00002da0       0x20 E:/IngeDev_8.18.0.5/toolchains/gnuArm4/arm-elf/lib/thumb/soft/interwork/libc.a(lib_a-memset.o)
 .debug_frame   0x00002dc0       0x30 E:/IngeDev_8.18.0.5/toolchains/gnuArm4/arm-elf/lib/thumb/soft/interwork/libc.a(lib_a-strcasecmp.o)
 .debug_frame   0x00002df0       0x28 E:/IngeDev_8.18.0.5/toolchains/gnuArm4/arm-elf/lib/thumb/soft/interwork/libc.a(lib_a-strcat.o)
 .debug_frame   0x00002e18       0x20 E:/IngeDev_8.18.0.5/toolchains/gnuArm4/arm-elf/lib/thumb/soft/interwork/libc.a(lib_a-strchr.o)
 .debug_frame   0x00002e38       0x20 E:/IngeDev_8.18.0.5/toolchains/gnuArm4/arm-elf/lib/thumb/soft/interwork/libc.a(lib_a-strcmp.o)
 .debug_frame   0x00002e58       0x20 E:/IngeDev_8.18.0.5/toolchains/gnuArm4/arm-elf/lib/thumb/soft/interwork/libc.a(lib_a-strcpy.o)
 .debug_frame   0x00002e78       0x20 E:/IngeDev_8.18.0.5/toolchains/gnuArm4/arm-elf/lib/thumb/soft/interwork/libc.a(lib_a-strlen.o)
 .debug_frame   0x00002e98       0x28 E:/IngeDev_8.18.0.5/toolchains/gnuArm4/arm-elf/lib/thumb/soft/interwork/libc.a(lib_a-strncpy.o)
 .debug_frame   0x00002ec0       0x2c E:/IngeDev_8.18.0.5/toolchains/gnuArm4/arm-elf/lib/thumb/soft/interwork/libc.a(lib_a-strrchr.o)
 .debug_frame   0x00002eec       0x4c E:/IngeDev_8.18.0.5/toolchains/gnuArm4/arm-elf/lib/thumb/soft/interwork/libc.a(lib_a-strtoul.o)
 .debug_frame   0x00002f38       0x28 E:/IngeDev_8.18.0.5/toolchains/gnuArm4/lib/gcc/arm-elf/4.3.4/thumb/soft/interwork/libgcc.a(_udivsi3.o)
 .debug_frame   0x00002f60       0x28 E:/IngeDev_8.18.0.5/toolchains/gnuArm4/lib/gcc/arm-elf/4.3.4/thumb/soft/interwork/libgcc.a(_divsi3.o)
 .debug_frame   0x00002f88       0x28 E:/IngeDev_8.18.0.5/toolchains/gnuArm4/lib/gcc/arm-elf/4.3.4/thumb/soft/interwork/libgcc.a(_umodsi3.o)
 .debug_frame   0x00002fb0       0x28 E:/IngeDev_8.18.0.5/toolchains/gnuArm4/lib/gcc/arm-elf/4.3.4/thumb/soft/interwork/libgcc.a(_modsi3.o)

.debug_pubnames
                0x00000000     0x5939
 .debug_pubnames
                0x00000000       0x49 C:/Program Files/TeliumSDK/SDK11.16.8.02/SDKTPLUS/HW_T2/gnu_434/startfiles/libcpatch.o
 .debug_pubnames
                0x00000049       0x1b Obj/GNU_ARM_DEBUG_T2/Main.o
 .debug_pubnames
                0x00000064      0x1b9 Obj/GNU_ARM_DEBUG_T2/Entry.o
 .debug_pubnames
                0x0000021d       0xb7 Obj/GNU_ARM_DEBUG_T2/Menu.o
 .debug_pubnames
                0x000002d4       0x2d Obj/GNU_ARM_DEBUG_T2/ComGPRS.o
 .debug_pubnames
                0x00000301      0x1ee Obj/GNU_ARM_DEBUG_T2/Goal.o
 .debug_pubnames
                0x000004ef      0x913 Obj/GNU_ARM_DEBUG_T2/Mapapp.o
 .debug_pubnames
                0x00000e02       0x6a Obj/GNU_ARM_DEBUG_T2/FMG.o
 .debug_pubnames
                0x00000e6c       0xb9 Obj/GNU_ARM_DEBUG_T2/Utility.o
 .debug_pubnames
                0x00000f25       0x46 Obj/GNU_ARM_DEBUG_T2/Timer.o
 .debug_pubnames
                0x00000f6b       0x30 Obj/GNU_ARM_DEBUG_T2/iso8583.o
 .debug_pubnames
                0x00000f9b      0x8fd Obj/GNU_ARM_DEBUG_T2/transaction.o
 .debug_pubnames
                0x00001898      0xd76 Obj/GNU_ARM_DEBUG_T2/globals.o
 .debug_pubnames
                0x0000260e      0x8dd Obj/GNU_ARM_DEBUG_T2/magnetic.o
 .debug_pubnames
                0x00002eeb      0x9a0 Obj/GNU_ARM_DEBUG_T2/schemes.o
 .debug_pubnames
                0x0000388b      0x8ce Obj/GNU_ARM_DEBUG_T2/amount.o
 .debug_pubnames
                0x00004159      0x8d5 Obj/GNU_ARM_DEBUG_T2/printer.o
 .debug_pubnames
                0x00004a2e      0x157 C:/Program Files/TeliumSDK/SDK11.16.8.02/SDKTPLUS/HW_T2/gnu_434/lib/LinkLayerExeInterface_TPlus.lib(LinkLayerServices.o)
 .debug_pubnames
                0x00004b85      0x311 C:/Program Files/TeliumSDK/SDK11.16.8.02/SDKTPLUS/HW_T2/gnu_434/lib/FMG_TPlus.lib(VGE_FMG.o)
 .debug_pubnames
                0x00004e96       0x3d C:/Program Files/TeliumSDK/SDK11.16.8.02/SDKTPLUS/HW_T2/gnu_434/lib/FMG_TPlus.lib(md5.o)
 .debug_pubnames
                0x00004ed3      0x229 C:/Program Files/TeliumSDK/SDK11.16.8.02/SDKTPLUS/HW_T2/gnu_434/lib/TlvTree_TPlus.lib(Proxy.o)
 .debug_pubnames
                0x000050fc       0x67 C:/Program Files/TeliumSDK/SDK11.16.8.02/SDKTPLUS/HW_T2/gnu_434/lib/TlvTree_TPlus.lib(Serializer.o)
 .debug_pubnames
                0x00005163      0x1dd C:/Program Files/TeliumSDK/SDK11.16.8.02/SDKTPLUS/HW_T2/gnu_434/lib/TlvTree_TPlus.lib(Internal.o)
 .debug_pubnames
                0x00005340       0x7f C:/Program Files/TeliumSDK/SDK11.16.8.02/SDKTPLUS/HW_T2/gnu_434/lib/TlvTree_TPlus.lib(Serializer_Default.o)
 .debug_pubnames
                0x000053bf       0x73 C:/Program Files/TeliumSDK/SDK11.16.8.02/SDKTPLUS/HW_T2/gnu_434/lib/TlvTree_TPlus.lib(Serializer_Xml.o)
 .debug_pubnames
                0x00005432       0x6c C:/Program Files/TeliumSDK/SDK11.16.8.02/SDKTPLUS/HW_T2/gnu_434/lib/XMLs_TPlus.lib(XMLs_Attributes.o)
 .debug_pubnames
                0x0000549e       0x6f C:/Program Files/TeliumSDK/SDK11.16.8.02/SDKTPLUS/HW_T2/gnu_434/lib/XMLs_TPlus.lib(XMLs_Common.o)
 .debug_pubnames
                0x0000550d       0x38 C:/Program Files/TeliumSDK/SDK11.16.8.02/SDKTPLUS/HW_T2/gnu_434/lib/XMLs_TPlus.lib(XMLs_Options.o)
 .debug_pubnames
                0x00005545       0x27 C:/Program Files/TeliumSDK/SDK11.16.8.02/SDKTPLUS/HW_T2/gnu_434/lib/XMLs_TPlus.lib(XMLs_ProcessData.o)
 .debug_pubnames
                0x0000556c       0x5d C:/Program Files/TeliumSDK/SDK11.16.8.02/SDKTPLUS/HW_T2/gnu_434/lib/XMLs_TPlus.lib(XMLs.o)
 .debug_pubnames
                0x000055c9       0xa8 C:/Program Files/TeliumSDK/SDK11.16.8.02/SDKTPLUS/HW_T2/gnu_434/lib/XMLs_TPlus.lib(XMLs_Buffer.o)
 .debug_pubnames
                0x00005671       0x58 C:/Program Files/TeliumSDK/SDK11.16.8.02/SDKTPLUS/HW_T2/gnu_434/lib/XMLs_TPlus.lib(XMLs_Parser.o)
 .debug_pubnames
                0x000056c9       0x77 C:/Program Files/TeliumSDK/SDK11.16.8.02/SDKTPLUS/HW_T2/gnu_434/lib/XMLs_TPlus.lib(XMLs_Stream.o)
 .debug_pubnames
                0x00005740       0x1d E:/IngeDev_8.18.0.5/toolchains/gnuArm4/arm-elf/lib/thumb/soft/interwork/libc.a(lib_a-memcmp.o)
 .debug_pubnames
                0x0000575d       0x1d E:/IngeDev_8.18.0.5/toolchains/gnuArm4/arm-elf/lib/thumb/soft/interwork/libc.a(lib_a-memcpy.o)
 .debug_pubnames
                0x0000577a       0x1e E:/IngeDev_8.18.0.5/toolchains/gnuArm4/arm-elf/lib/thumb/soft/interwork/libc.a(lib_a-memmove.o)
 .debug_pubnames
                0x00005798       0x1d E:/IngeDev_8.18.0.5/toolchains/gnuArm4/arm-elf/lib/thumb/soft/interwork/libc.a(lib_a-memset.o)
 .debug_pubnames
                0x000057b5       0x21 E:/IngeDev_8.18.0.5/toolchains/gnuArm4/arm-elf/lib/thumb/soft/interwork/libc.a(lib_a-strcasecmp.o)
 .debug_pubnames
                0x000057d6       0x1d E:/IngeDev_8.18.0.5/toolchains/gnuArm4/arm-elf/lib/thumb/soft/interwork/libc.a(lib_a-strcat.o)
 .debug_pubnames
                0x000057f3       0x1d E:/IngeDev_8.18.0.5/toolchains/gnuArm4/arm-elf/lib/thumb/soft/interwork/libc.a(lib_a-strchr.o)
 .debug_pubnames
                0x00005810       0x1d E:/IngeDev_8.18.0.5/toolchains/gnuArm4/arm-elf/lib/thumb/soft/interwork/libc.a(lib_a-strcmp.o)
 .debug_pubnames
                0x0000582d       0x1d E:/IngeDev_8.18.0.5/toolchains/gnuArm4/arm-elf/lib/thumb/soft/interwork/libc.a(lib_a-strcpy.o)
 .debug_pubnames
                0x0000584a       0x1d E:/IngeDev_8.18.0.5/toolchains/gnuArm4/arm-elf/lib/thumb/soft/interwork/libc.a(lib_a-strlen.o)
 .debug_pubnames
                0x00005867       0x1e E:/IngeDev_8.18.0.5/toolchains/gnuArm4/arm-elf/lib/thumb/soft/interwork/libc.a(lib_a-strncpy.o)
 .debug_pubnames
                0x00005885       0x1e E:/IngeDev_8.18.0.5/toolchains/gnuArm4/arm-elf/lib/thumb/soft/interwork/libc.a(lib_a-strrchr.o)
 .debug_pubnames
                0x000058a3       0x2d E:/IngeDev_8.18.0.5/toolchains/gnuArm4/arm-elf/lib/thumb/soft/interwork/libc.a(lib_a-strtoul.o)
 .debug_pubnames
                0x000058d0       0x30 E:/IngeDev_8.18.0.5/toolchains/gnuArm4/arm-elf/lib/thumb/soft/interwork/libc.a(lib_a-ctype_.o)
 .debug_pubnames
                0x00005900       0x39 E:/IngeDev_8.18.0.5/toolchains/gnuArm4/arm-elf/lib/thumb/soft/interwork/libc.a(lib_a-impure.o)

.debug_aranges  0x00000000      0x660
 .debug_aranges
                0x00000000       0x20 C:/Program Files/TeliumSDK/SDK11.16.8.02/SDKTPLUS/HW_T2/gnu_434/startfiles/libcpatch.o
 .debug_aranges
                0x00000020       0x20 Obj/GNU_ARM_DEBUG_T2/Main.o
 .debug_aranges
                0x00000040       0x20 Obj/GNU_ARM_DEBUG_T2/Entry.o
 .debug_aranges
                0x00000060       0x20 Obj/GNU_ARM_DEBUG_T2/Menu.o
 .debug_aranges
                0x00000080       0x20 Obj/GNU_ARM_DEBUG_T2/ComGPRS.o
 .debug_aranges
                0x000000a0       0x20 Obj/GNU_ARM_DEBUG_T2/Goal.o
 .debug_aranges
                0x000000c0       0x20 Obj/GNU_ARM_DEBUG_T2/Mapapp.o
 .debug_aranges
                0x000000e0       0x20 Obj/GNU_ARM_DEBUG_T2/FMG.o
 .debug_aranges
                0x00000100       0x20 Obj/GNU_ARM_DEBUG_T2/Utility.o
 .debug_aranges
                0x00000120       0x20 Obj/GNU_ARM_DEBUG_T2/Timer.o
 .debug_aranges
                0x00000140       0x20 Obj/GNU_ARM_DEBUG_T2/iso8583.o
 .debug_aranges
                0x00000160       0x20 Obj/GNU_ARM_DEBUG_T2/transaction.o
 .debug_aranges
                0x00000180       0x20 Obj/GNU_ARM_DEBUG_T2/globals.o
 .debug_aranges
                0x000001a0       0x20 Obj/GNU_ARM_DEBUG_T2/magnetic.o
 .debug_aranges
                0x000001c0       0x20 Obj/GNU_ARM_DEBUG_T2/schemes.o
 .debug_aranges
                0x000001e0       0x20 Obj/GNU_ARM_DEBUG_T2/amount.o
 .debug_aranges
                0x00000200       0x20 Obj/GNU_ARM_DEBUG_T2/printer.o
 .debug_aranges
                0x00000220       0x20 C:/Program Files/TeliumSDK/SDK11.16.8.02/SDKTPLUS/HW_T2/gnu_434/lib/LinkLayerExeInterface_TPlus.lib(LinkLayerServices.o)
 .debug_aranges
                0x00000240       0x20 C:/Program Files/TeliumSDK/SDK11.16.8.02/SDKTPLUS/HW_T2/gnu_434/lib/FMG_TPlus.lib(VGE_FMG.o)
 .debug_aranges
                0x00000260       0x20 C:/Program Files/TeliumSDK/SDK11.16.8.02/SDKTPLUS/HW_T2/gnu_434/lib/FMG_TPlus.lib(md5.o)
 .debug_aranges
                0x00000280       0x20 C:/Program Files/TeliumSDK/SDK11.16.8.02/SDKTPLUS/HW_T2/gnu_434/lib/TlvTree_TPlus.lib(Proxy.o)
 .debug_aranges
                0x000002a0       0x20 C:/Program Files/TeliumSDK/SDK11.16.8.02/SDKTPLUS/HW_T2/gnu_434/lib/TlvTree_TPlus.lib(Serializer.o)
 .debug_aranges
                0x000002c0       0x20 C:/Program Files/TeliumSDK/SDK11.16.8.02/SDKTPLUS/HW_T2/gnu_434/lib/TlvTree_TPlus.lib(Internal.o)
 .debug_aranges
                0x000002e0       0x20 C:/Program Files/TeliumSDK/SDK11.16.8.02/SDKTPLUS/HW_T2/gnu_434/lib/TlvTree_TPlus.lib(Serializer_Default.o)
 .debug_aranges
                0x00000300       0x20 C:/Program Files/TeliumSDK/SDK11.16.8.02/SDKTPLUS/HW_T2/gnu_434/lib/TlvTree_TPlus.lib(Serializer_Xml.o)
 .debug_aranges
                0x00000320       0x20 C:/Program Files/TeliumSDK/SDK11.16.8.02/SDKTPLUS/HW_T2/gnu_434/lib/XMLs_TPlus.lib(XMLs_Attributes.o)
 .debug_aranges
                0x00000340       0x20 C:/Program Files/TeliumSDK/SDK11.16.8.02/SDKTPLUS/HW_T2/gnu_434/lib/XMLs_TPlus.lib(XMLs_Common.o)
 .debug_aranges
                0x00000360       0x20 C:/Program Files/TeliumSDK/SDK11.16.8.02/SDKTPLUS/HW_T2/gnu_434/lib/XMLs_TPlus.lib(XMLs_Options.o)
 .debug_aranges
                0x00000380       0x20 C:/Program Files/TeliumSDK/SDK11.16.8.02/SDKTPLUS/HW_T2/gnu_434/lib/XMLs_TPlus.lib(XMLs_ProcessData.o)
 .debug_aranges
                0x000003a0       0x20 C:/Program Files/TeliumSDK/SDK11.16.8.02/SDKTPLUS/HW_T2/gnu_434/lib/XMLs_TPlus.lib(XMLs.o)
 .debug_aranges
                0x000003c0       0x20 C:/Program Files/TeliumSDK/SDK11.16.8.02/SDKTPLUS/HW_T2/gnu_434/lib/XMLs_TPlus.lib(XMLs_Buffer.o)
 .debug_aranges
                0x000003e0       0x20 C:/Program Files/TeliumSDK/SDK11.16.8.02/SDKTPLUS/HW_T2/gnu_434/lib/XMLs_TPlus.lib(XMLs_Parser.o)
 .debug_aranges
                0x00000400       0x20 C:/Program Files/TeliumSDK/SDK11.16.8.02/SDKTPLUS/HW_T2/gnu_434/lib/XMLs_TPlus.lib(XMLs_Stream.o)
 .debug_aranges
                0x00000420       0x20 E:/IngeDev_8.18.0.5/toolchains/gnuArm4/arm-elf/lib/thumb/soft/interwork/libc.a(lib_a-memcmp.o)
 .debug_aranges
                0x00000440       0x20 E:/IngeDev_8.18.0.5/toolchains/gnuArm4/arm-elf/lib/thumb/soft/interwork/libc.a(lib_a-memcpy.o)
 .debug_aranges
                0x00000460       0x20 E:/IngeDev_8.18.0.5/toolchains/gnuArm4/arm-elf/lib/thumb/soft/interwork/libc.a(lib_a-memmove.o)
 .debug_aranges
                0x00000480       0x20 E:/IngeDev_8.18.0.5/toolchains/gnuArm4/arm-elf/lib/thumb/soft/interwork/libc.a(lib_a-memset.o)
 .debug_aranges
                0x000004a0       0x20 E:/IngeDev_8.18.0.5/toolchains/gnuArm4/arm-elf/lib/thumb/soft/interwork/libc.a(lib_a-strcasecmp.o)
 .debug_aranges
                0x000004c0       0x20 E:/IngeDev_8.18.0.5/toolchains/gnuArm4/arm-elf/lib/thumb/soft/interwork/libc.a(lib_a-strcat.o)
 .debug_aranges
                0x000004e0       0x20 E:/IngeDev_8.18.0.5/toolchains/gnuArm4/arm-elf/lib/thumb/soft/interwork/libc.a(lib_a-strchr.o)
 .debug_aranges
                0x00000500       0x20 E:/IngeDev_8.18.0.5/toolchains/gnuArm4/arm-elf/lib/thumb/soft/interwork/libc.a(lib_a-strcmp.o)
 .debug_aranges
                0x00000520       0x20 E:/IngeDev_8.18.0.5/toolchains/gnuArm4/arm-elf/lib/thumb/soft/interwork/libc.a(lib_a-strcpy.o)
 .debug_aranges
                0x00000540       0x20 E:/IngeDev_8.18.0.5/toolchains/gnuArm4/arm-elf/lib/thumb/soft/interwork/libc.a(lib_a-strlen.o)
 .debug_aranges
                0x00000560       0x20 E:/IngeDev_8.18.0.5/toolchains/gnuArm4/arm-elf/lib/thumb/soft/interwork/libc.a(lib_a-strncpy.o)
 .debug_aranges
                0x00000580       0x20 E:/IngeDev_8.18.0.5/toolchains/gnuArm4/arm-elf/lib/thumb/soft/interwork/libc.a(lib_a-strrchr.o)
 .debug_aranges
                0x000005a0       0x20 E:/IngeDev_8.18.0.5/toolchains/gnuArm4/arm-elf/lib/thumb/soft/interwork/libc.a(lib_a-strtoul.o)
 .debug_aranges
                0x000005c0       0x20 E:/IngeDev_8.18.0.5/toolchains/gnuArm4/lib/gcc/arm-elf/4.3.4/thumb/soft/interwork/libgcc.a(_udivsi3.o)
 .debug_aranges
                0x000005e0       0x20 E:/IngeDev_8.18.0.5/toolchains/gnuArm4/lib/gcc/arm-elf/4.3.4/thumb/soft/interwork/libgcc.a(_divsi3.o)
 .debug_aranges
                0x00000600       0x20 E:/IngeDev_8.18.0.5/toolchains/gnuArm4/lib/gcc/arm-elf/4.3.4/thumb/soft/interwork/libgcc.a(_umodsi3.o)
 .debug_aranges
                0x00000620       0x20 E:/IngeDev_8.18.0.5/toolchains/gnuArm4/lib/gcc/arm-elf/4.3.4/thumb/soft/interwork/libgcc.a(_modsi3.o)
 .debug_aranges
                0x00000640       0x20 E:/IngeDev_8.18.0.5/toolchains/gnuArm4/lib/gcc/arm-elf/4.3.4/thumb/soft/interwork/libgcc.a(_dvmd_tls.o)

.debug_str      0x00000000     0x76b4
 .debug_str     0x00000000       0x20 C:/Program Files/TeliumSDK/SDK11.16.8.02/SDKTPLUS/HW_T2/gnu_434/startfiles/libcpatch.o
 .debug_str     0x00000020      0xe2f Obj/GNU_ARM_DEBUG_T2/Main.o
                               0x120b (size before relaxing)
 .debug_str     0x00000e4f      0x968 Obj/GNU_ARM_DEBUG_T2/Entry.o
                                0xfe9 (size before relaxing)
 .debug_str     0x000017b7       0xd7 Obj/GNU_ARM_DEBUG_T2/Menu.o
                                0x341 (size before relaxing)
 .debug_str     0x0000188e      0x7bb Obj/GNU_ARM_DEBUG_T2/ComGPRS.o
                                0xee5 (size before relaxing)
 .debug_str     0x00002049      0xaee Obj/GNU_ARM_DEBUG_T2/Goal.o
                               0x113a (size before relaxing)
 .debug_str     0x00002b37      0x80e Obj/GNU_ARM_DEBUG_T2/Mapapp.o
                                0xab5 (size before relaxing)
 .debug_str     0x00003345      0x102 Obj/GNU_ARM_DEBUG_T2/FMG.o
                                0x95b (size before relaxing)
 .debug_str     0x00003447      0x1ed Obj/GNU_ARM_DEBUG_T2/Utility.o
                                0x397 (size before relaxing)
 .debug_str     0x00003634       0x7b Obj/GNU_ARM_DEBUG_T2/Timer.o
                                0x7ca (size before relaxing)
 .debug_str     0x000036af      0x43b Obj/GNU_ARM_DEBUG_T2/iso8583.o
                                0x527 (size before relaxing)
 .debug_str     0x00003aea      0x6d2 Obj/GNU_ARM_DEBUG_T2/transaction.o
                               0x13f3 (size before relaxing)
 .debug_str     0x000041bc      0x66b Obj/GNU_ARM_DEBUG_T2/globals.o
                               0x1729 (size before relaxing)
 .debug_str     0x00004827       0x6a Obj/GNU_ARM_DEBUG_T2/magnetic.o
                               0x1008 (size before relaxing)
 .debug_str     0x00004891      0x444 Obj/GNU_ARM_DEBUG_T2/schemes.o
                               0x127e (size before relaxing)
 .debug_str     0x00004cd5       0x32 Obj/GNU_ARM_DEBUG_T2/amount.o
                                0xa42 (size before relaxing)
 .debug_str     0x00004d07       0x39 Obj/GNU_ARM_DEBUG_T2/printer.o
                                0xf4e (size before relaxing)
 .debug_str     0x00004d40      0x390 C:/Program Files/TeliumSDK/SDK11.16.8.02/SDKTPLUS/HW_T2/gnu_434/lib/LinkLayerExeInterface_TPlus.lib(LinkLayerServices.o)
                                0x4b2 (size before relaxing)
 .debug_str     0x000050d0      0x5b7 C:/Program Files/TeliumSDK/SDK11.16.8.02/SDKTPLUS/HW_T2/gnu_434/lib/FMG_TPlus.lib(VGE_FMG.o)
                                0x92b (size before relaxing)
 .debug_str     0x00005687       0x51 C:/Program Files/TeliumSDK/SDK11.16.8.02/SDKTPLUS/HW_T2/gnu_434/lib/FMG_TPlus.lib(md5.o)
                                0x174 (size before relaxing)
 .debug_str     0x000056d8      0x176 C:/Program Files/TeliumSDK/SDK11.16.8.02/SDKTPLUS/HW_T2/gnu_434/lib/TlvTree_TPlus.lib(Proxy.o)
                                0x350 (size before relaxing)
 .debug_str     0x0000584e       0x83 C:/Program Files/TeliumSDK/SDK11.16.8.02/SDKTPLUS/HW_T2/gnu_434/lib/TlvTree_TPlus.lib(Serializer.o)
                                0x18e (size before relaxing)
 .debug_str     0x000058d1      0x268 C:/Program Files/TeliumSDK/SDK11.16.8.02/SDKTPLUS/HW_T2/gnu_434/lib/TlvTree_TPlus.lib(Internal.o)
                                0x395 (size before relaxing)
 .debug_str     0x00005b39      0x138 C:/Program Files/TeliumSDK/SDK11.16.8.02/SDKTPLUS/HW_T2/gnu_434/lib/TlvTree_TPlus.lib(Serializer_Default.o)
                                0x297 (size before relaxing)
 .debug_str     0x00005c71      0x3e6 C:/Program Files/TeliumSDK/SDK11.16.8.02/SDKTPLUS/HW_T2/gnu_434/lib/TlvTree_TPlus.lib(Serializer_Xml.o)
                                0x5e4 (size before relaxing)
 .debug_str     0x00006057      0x168 C:/Program Files/TeliumSDK/SDK11.16.8.02/SDKTPLUS/HW_T2/gnu_434/lib/XMLs_TPlus.lib(XMLs_Attributes.o)
                                0x202 (size before relaxing)
 .debug_str     0x000061bf      0x2f4 C:/Program Files/TeliumSDK/SDK11.16.8.02/SDKTPLUS/HW_T2/gnu_434/lib/XMLs_TPlus.lib(XMLs_Common.o)
                                0x431 (size before relaxing)
 .debug_str     0x000064b3       0x47 C:/Program Files/TeliumSDK/SDK11.16.8.02/SDKTPLUS/HW_T2/gnu_434/lib/XMLs_TPlus.lib(XMLs_Options.o)
                                0x481 (size before relaxing)
 .debug_str     0x000064fa       0xf3 C:/Program Files/TeliumSDK/SDK11.16.8.02/SDKTPLUS/HW_T2/gnu_434/lib/XMLs_TPlus.lib(XMLs_ProcessData.o)
                                0x174 (size before relaxing)
 .debug_str     0x000065ed       0xd0 C:/Program Files/TeliumSDK/SDK11.16.8.02/SDKTPLUS/HW_T2/gnu_434/lib/XMLs_TPlus.lib(XMLs.o)
                                0x4ca (size before relaxing)
 .debug_str     0x000066bd       0xc4 C:/Program Files/TeliumSDK/SDK11.16.8.02/SDKTPLUS/HW_T2/gnu_434/lib/XMLs_TPlus.lib(XMLs_Buffer.o)
                                0x19e (size before relaxing)
 .debug_str     0x00006781      0x2d5 C:/Program Files/TeliumSDK/SDK11.16.8.02/SDKTPLUS/HW_T2/gnu_434/lib/XMLs_TPlus.lib(XMLs_Parser.o)
                                0x720 (size before relaxing)
 .debug_str     0x00006a56      0x144 C:/Program Files/TeliumSDK/SDK11.16.8.02/SDKTPLUS/HW_T2/gnu_434/lib/XMLs_TPlus.lib(XMLs_Stream.o)
                                0x299 (size before relaxing)
 .debug_str     0x00006b9a       0xc2 E:/IngeDev_8.18.0.5/toolchains/gnuArm4/arm-elf/lib/thumb/soft/interwork/libc.a(lib_a-memcmp.o)
                                0x157 (size before relaxing)
 .debug_str     0x00006c5c       0x64 E:/IngeDev_8.18.0.5/toolchains/gnuArm4/arm-elf/lib/thumb/soft/interwork/libc.a(lib_a-memcpy.o)
                                0x16b (size before relaxing)
 .debug_str     0x00006cc0       0x64 E:/IngeDev_8.18.0.5/toolchains/gnuArm4/arm-elf/lib/thumb/soft/interwork/libc.a(lib_a-memmove.o)
                                0x172 (size before relaxing)
 .debug_str     0x00006d24       0x50 E:/IngeDev_8.18.0.5/toolchains/gnuArm4/arm-elf/lib/thumb/soft/interwork/libc.a(lib_a-memset.o)
                                0x157 (size before relaxing)
 .debug_str     0x00006d74       0x70 E:/IngeDev_8.18.0.5/toolchains/gnuArm4/arm-elf/lib/thumb/soft/interwork/libc.a(lib_a-strcasecmp.o)
                                0x170 (size before relaxing)
 .debug_str     0x00006de4       0x50 E:/IngeDev_8.18.0.5/toolchains/gnuArm4/arm-elf/lib/thumb/soft/interwork/libc.a(lib_a-strcat.o)
                                0x150 (size before relaxing)
 .debug_str     0x00006e34       0x50 E:/IngeDev_8.18.0.5/toolchains/gnuArm4/arm-elf/lib/thumb/soft/interwork/libc.a(lib_a-strchr.o)
                                0x150 (size before relaxing)
 .debug_str     0x00006e84       0xc8 E:/IngeDev_8.18.0.5/toolchains/gnuArm4/arm-elf/lib/thumb/soft/interwork/libc.a(lib_a-strcmp.o)
                                0x15d (size before relaxing)
 .debug_str     0x00006f4c       0x58 E:/IngeDev_8.18.0.5/toolchains/gnuArm4/arm-elf/lib/thumb/soft/interwork/libc.a(lib_a-strcpy.o)
                                0x15d (size before relaxing)
 .debug_str     0x00006fa4       0x60 E:/IngeDev_8.18.0.5/toolchains/gnuArm4/arm-elf/lib/thumb/soft/interwork/libc.a(lib_a-strlen.o)
                                0x16c (size before relaxing)
 .debug_str     0x00007004       0x5e E:/IngeDev_8.18.0.5/toolchains/gnuArm4/arm-elf/lib/thumb/soft/interwork/libc.a(lib_a-strncpy.o)
                                0x175 (size before relaxing)
 .debug_str     0x00007062       0x52 E:/IngeDev_8.18.0.5/toolchains/gnuArm4/arm-elf/lib/thumb/soft/interwork/libc.a(lib_a-strrchr.o)
                                0x157 (size before relaxing)
 .debug_str     0x000070b4      0x475 E:/IngeDev_8.18.0.5/toolchains/gnuArm4/arm-elf/lib/thumb/soft/interwork/libc.a(lib_a-strtoul.o)
                                0x54a (size before relaxing)
 .debug_str     0x00007529       0xba E:/IngeDev_8.18.0.5/toolchains/gnuArm4/arm-elf/lib/thumb/soft/interwork/libc.a(lib_a-ctype_.o)
                                 0xd9 (size before relaxing)
 .debug_str     0x000075e3       0xd1 E:/IngeDev_8.18.0.5/toolchains/gnuArm4/arm-elf/lib/thumb/soft/interwork/libc.a(lib_a-impure.o)
                                0x521 (size before relaxing)

.debug_loc      0x00000000     0xd425
 .debug_loc     0x00000000       0x2b Obj/GNU_ARM_DEBUG_T2/Main.o
 .debug_loc     0x0000002b      0x439 Obj/GNU_ARM_DEBUG_T2/Entry.o
 .debug_loc     0x00000464       0xad Obj/GNU_ARM_DEBUG_T2/Menu.o
 .debug_loc     0x00000511      0x1de Obj/GNU_ARM_DEBUG_T2/ComGPRS.o
 .debug_loc     0x000006ef      0x514 Obj/GNU_ARM_DEBUG_T2/Goal.o
 .debug_loc     0x00000c03      0x105 Obj/GNU_ARM_DEBUG_T2/Mapapp.o
 .debug_loc     0x00000d08      0x104 Obj/GNU_ARM_DEBUG_T2/FMG.o
 .debug_loc     0x00000e0c      0x25c Obj/GNU_ARM_DEBUG_T2/Utility.o
 .debug_loc     0x00001068       0xac Obj/GNU_ARM_DEBUG_T2/Timer.o
 .debug_loc     0x00001114       0x56 Obj/GNU_ARM_DEBUG_T2/iso8583.o
 .debug_loc     0x0000116a      0x1f6 Obj/GNU_ARM_DEBUG_T2/transaction.o
 .debug_loc     0x00001360     0x12b1 Obj/GNU_ARM_DEBUG_T2/globals.o
 .debug_loc     0x00002611       0x57 Obj/GNU_ARM_DEBUG_T2/magnetic.o
 .debug_loc     0x00002668      0x2e5 Obj/GNU_ARM_DEBUG_T2/schemes.o
 .debug_loc     0x0000294d       0x2c Obj/GNU_ARM_DEBUG_T2/amount.o
 .debug_loc     0x00002979       0x2c Obj/GNU_ARM_DEBUG_T2/printer.o
 .debug_loc     0x000029a5      0xd8b C:/Program Files/TeliumSDK/SDK11.16.8.02/SDKTPLUS/HW_T2/gnu_434/lib/LinkLayerExeInterface_TPlus.lib(LinkLayerServices.o)
 .debug_loc     0x00003730     0x45f4 C:/Program Files/TeliumSDK/SDK11.16.8.02/SDKTPLUS/HW_T2/gnu_434/lib/FMG_TPlus.lib(VGE_FMG.o)
 .debug_loc     0x00007d24      0x60f C:/Program Files/TeliumSDK/SDK11.16.8.02/SDKTPLUS/HW_T2/gnu_434/lib/FMG_TPlus.lib(md5.o)
 .debug_loc     0x00008333      0x875 C:/Program Files/TeliumSDK/SDK11.16.8.02/SDKTPLUS/HW_T2/gnu_434/lib/TlvTree_TPlus.lib(Proxy.o)
 .debug_loc     0x00008ba8      0x2f9 C:/Program Files/TeliumSDK/SDK11.16.8.02/SDKTPLUS/HW_T2/gnu_434/lib/TlvTree_TPlus.lib(Serializer.o)
 .debug_loc     0x00008ea1      0xb86 C:/Program Files/TeliumSDK/SDK11.16.8.02/SDKTPLUS/HW_T2/gnu_434/lib/TlvTree_TPlus.lib(Internal.o)
 .debug_loc     0x00009a27      0x60f C:/Program Files/TeliumSDK/SDK11.16.8.02/SDKTPLUS/HW_T2/gnu_434/lib/TlvTree_TPlus.lib(Serializer_Default.o)
 .debug_loc     0x0000a036      0xc2d C:/Program Files/TeliumSDK/SDK11.16.8.02/SDKTPLUS/HW_T2/gnu_434/lib/TlvTree_TPlus.lib(Serializer_Xml.o)
 .debug_loc     0x0000ac63      0x2ad C:/Program Files/TeliumSDK/SDK11.16.8.02/SDKTPLUS/HW_T2/gnu_434/lib/XMLs_TPlus.lib(XMLs_Attributes.o)
 .debug_loc     0x0000af10      0x1c7 C:/Program Files/TeliumSDK/SDK11.16.8.02/SDKTPLUS/HW_T2/gnu_434/lib/XMLs_TPlus.lib(XMLs_Common.o)
 .debug_loc     0x0000b0d7      0x172 C:/Program Files/TeliumSDK/SDK11.16.8.02/SDKTPLUS/HW_T2/gnu_434/lib/XMLs_TPlus.lib(XMLs_Options.o)
 .debug_loc     0x0000b249      0x428 C:/Program Files/TeliumSDK/SDK11.16.8.02/SDKTPLUS/HW_T2/gnu_434/lib/XMLs_TPlus.lib(XMLs_ProcessData.o)
 .debug_loc     0x0000b671      0x32b C:/Program Files/TeliumSDK/SDK11.16.8.02/SDKTPLUS/HW_T2/gnu_434/lib/XMLs_TPlus.lib(XMLs.o)
 .debug_loc     0x0000b99c      0x31e C:/Program Files/TeliumSDK/SDK11.16.8.02/SDKTPLUS/HW_T2/gnu_434/lib/XMLs_TPlus.lib(XMLs_Buffer.o)
 .debug_loc     0x0000bcba      0xe71 C:/Program Files/TeliumSDK/SDK11.16.8.02/SDKTPLUS/HW_T2/gnu_434/lib/XMLs_TPlus.lib(XMLs_Parser.o)
 .debug_loc     0x0000cb2b      0x22c C:/Program Files/TeliumSDK/SDK11.16.8.02/SDKTPLUS/HW_T2/gnu_434/lib/XMLs_TPlus.lib(XMLs_Stream.o)
 .debug_loc     0x0000cd57       0x66 E:/IngeDev_8.18.0.5/toolchains/gnuArm4/arm-elf/lib/thumb/soft/interwork/libc.a(lib_a-memcmp.o)
 .debug_loc     0x0000cdbd       0x5b E:/IngeDev_8.18.0.5/toolchains/gnuArm4/arm-elf/lib/thumb/soft/interwork/libc.a(lib_a-memcpy.o)
 .debug_loc     0x0000ce18       0xa2 E:/IngeDev_8.18.0.5/toolchains/gnuArm4/arm-elf/lib/thumb/soft/interwork/libc.a(lib_a-memmove.o)
 .debug_loc     0x0000ceba       0xfc E:/IngeDev_8.18.0.5/toolchains/gnuArm4/arm-elf/lib/thumb/soft/interwork/libc.a(lib_a-strcasecmp.o)
 .debug_loc     0x0000cfb6       0x5b E:/IngeDev_8.18.0.5/toolchains/gnuArm4/arm-elf/lib/thumb/soft/interwork/libc.a(lib_a-strcat.o)
 .debug_loc     0x0000d011       0x5a E:/IngeDev_8.18.0.5/toolchains/gnuArm4/arm-elf/lib/thumb/soft/interwork/libc.a(lib_a-strchr.o)
 .debug_loc     0x0000d06b       0x13 E:/IngeDev_8.18.0.5/toolchains/gnuArm4/arm-elf/lib/thumb/soft/interwork/libc.a(lib_a-strcmp.o)
 .debug_loc     0x0000d07e       0x13 E:/IngeDev_8.18.0.5/toolchains/gnuArm4/arm-elf/lib/thumb/soft/interwork/libc.a(lib_a-strcpy.o)
 .debug_loc     0x0000d091       0x26 E:/IngeDev_8.18.0.5/toolchains/gnuArm4/arm-elf/lib/thumb/soft/interwork/libc.a(lib_a-strlen.o)
 .debug_loc     0x0000d0b7       0x79 E:/IngeDev_8.18.0.5/toolchains/gnuArm4/arm-elf/lib/thumb/soft/interwork/libc.a(lib_a-strncpy.o)
 .debug_loc     0x0000d130       0xdc E:/IngeDev_8.18.0.5/toolchains/gnuArm4/arm-elf/lib/thumb/soft/interwork/libc.a(lib_a-strrchr.o)
 .debug_loc     0x0000d20c      0x219 E:/IngeDev_8.18.0.5/toolchains/gnuArm4/arm-elf/lib/thumb/soft/interwork/libc.a(lib_a-strtoul.o)

.debug_ranges   0x00000000      0x738
 .debug_ranges  0x00000000       0x20 C:/Program Files/TeliumSDK/SDK11.16.8.02/SDKTPLUS/HW_T2/gnu_434/lib/FMG_TPlus.lib(md5.o)
 .debug_ranges  0x00000020       0x48 C:/Program Files/TeliumSDK/SDK11.16.8.02/SDKTPLUS/HW_T2/gnu_434/lib/TlvTree_TPlus.lib(Serializer_Default.o)
 .debug_ranges  0x00000068      0x1c0 C:/Program Files/TeliumSDK/SDK11.16.8.02/SDKTPLUS/HW_T2/gnu_434/lib/TlvTree_TPlus.lib(Serializer_Xml.o)
 .debug_ranges  0x00000228      0x120 C:/Program Files/TeliumSDK/SDK11.16.8.02/SDKTPLUS/HW_T2/gnu_434/lib/XMLs_TPlus.lib(XMLs_ProcessData.o)
 .debug_ranges  0x00000348       0x18 C:/Program Files/TeliumSDK/SDK11.16.8.02/SDKTPLUS/HW_T2/gnu_434/lib/XMLs_TPlus.lib(XMLs.o)
 .debug_ranges  0x00000360       0x48 C:/Program Files/TeliumSDK/SDK11.16.8.02/SDKTPLUS/HW_T2/gnu_434/lib/XMLs_TPlus.lib(XMLs_Buffer.o)
 .debug_ranges  0x000003a8      0x350 C:/Program Files/TeliumSDK/SDK11.16.8.02/SDKTPLUS/HW_T2/gnu_434/lib/XMLs_TPlus.lib(XMLs_Parser.o)
 .debug_ranges  0x000006f8       0x40 E:/IngeDev_8.18.0.5/toolchains/gnuArm4/arm-elf/lib/thumb/soft/interwork/libc.a(lib_a-strcasecmp.o)
